
MFE--MiniRideheight.elf:     file format elf32-littlearm

Sections:
Idx Name          Size      VMA       LMA       File off  Algn
  0 .isr_vector   000001d8  08000000  08000000  00001000  2**0
                  CONTENTS, ALLOC, LOAD, READONLY, DATA
  1 .text         000068b0  080001e0  080001e0  000011e0  2**4
                  CONTENTS, ALLOC, LOAD, READONLY, CODE
  2 .rodata       00000394  08006a90  08006a90  00007a90  2**2
                  CONTENTS, ALLOC, LOAD, READONLY, DATA
  3 .ARM.extab    00000000  08006e24  08006e24  00008068  2**0
                  CONTENTS, READONLY
  4 .ARM          00000008  08006e24  08006e24  00007e24  2**2
                  CONTENTS, ALLOC, LOAD, READONLY, DATA
  5 .preinit_array 00000000  08006e2c  08006e2c  00008068  2**0
                  CONTENTS, ALLOC, LOAD, DATA
  6 .init_array   00000004  08006e2c  08006e2c  00007e2c  2**2
                  CONTENTS, ALLOC, LOAD, READONLY, DATA
  7 .fini_array   00000004  08006e30  08006e30  00007e30  2**2
                  CONTENTS, ALLOC, LOAD, READONLY, DATA
  8 .data         00000068  20000000  08006e34  00008000  2**2
                  CONTENTS, ALLOC, LOAD, DATA
  9 .bss          0000063c  20000068  08006e9c  00008068  2**2
                  ALLOC
 10 ._user_heap_stack 00000604  200006a4  08006e9c  000086a4  2**0
                  ALLOC
 11 .ARM.attributes 00000030  00000000  00000000  00008068  2**0
                  CONTENTS, READONLY
 12 .debug_info   00017d0d  00000000  00000000  00008098  2**0
                  CONTENTS, READONLY, DEBUGGING, OCTETS
 13 .debug_abbrev 000038f1  00000000  00000000  0001fda5  2**0
                  CONTENTS, READONLY, DEBUGGING, OCTETS
 14 .debug_aranges 00001210  00000000  00000000  00023698  2**3
                  CONTENTS, READONLY, DEBUGGING, OCTETS
 15 .debug_rnglists 00000dbd  00000000  00000000  000248a8  2**0
                  CONTENTS, READONLY, DEBUGGING, OCTETS
 16 .debug_macro  0002434f  00000000  00000000  00025665  2**0
                  CONTENTS, READONLY, DEBUGGING, OCTETS
 17 .debug_line   000188e4  00000000  00000000  000499b4  2**0
                  CONTENTS, READONLY, DEBUGGING, OCTETS
 18 .debug_str    000cb5b4  00000000  00000000  00062298  2**0
                  CONTENTS, READONLY, DEBUGGING, OCTETS
 19 .comment      00000043  00000000  00000000  0012d84c  2**0
                  CONTENTS, READONLY
 20 .debug_frame  00005170  00000000  00000000  0012d890  2**2
                  CONTENTS, READONLY, DEBUGGING, OCTETS
 21 .debug_line_str 00000073  00000000  00000000  00132a00  2**0
                  CONTENTS, READONLY, DEBUGGING, OCTETS

Disassembly of section .text:

080001e0 <__do_global_dtors_aux>:
 80001e0:	b510      	push	{r4, lr}
 80001e2:	4c05      	ldr	r4, [pc, #20]	@ (80001f8 <__do_global_dtors_aux+0x18>)
 80001e4:	7823      	ldrb	r3, [r4, #0]
 80001e6:	b933      	cbnz	r3, 80001f6 <__do_global_dtors_aux+0x16>
 80001e8:	4b04      	ldr	r3, [pc, #16]	@ (80001fc <__do_global_dtors_aux+0x1c>)
 80001ea:	b113      	cbz	r3, 80001f2 <__do_global_dtors_aux+0x12>
 80001ec:	4804      	ldr	r0, [pc, #16]	@ (8000200 <__do_global_dtors_aux+0x20>)
 80001ee:	f3af 8000 	nop.w
 80001f2:	2301      	movs	r3, #1
 80001f4:	7023      	strb	r3, [r4, #0]
 80001f6:	bd10      	pop	{r4, pc}
 80001f8:	20000068 	.word	0x20000068
 80001fc:	00000000 	.word	0x00000000
 8000200:	08006a78 	.word	0x08006a78

08000204 <frame_dummy>:
 8000204:	b508      	push	{r3, lr}
 8000206:	4b03      	ldr	r3, [pc, #12]	@ (8000214 <frame_dummy+0x10>)
 8000208:	b11b      	cbz	r3, 8000212 <frame_dummy+0xe>
 800020a:	4903      	ldr	r1, [pc, #12]	@ (8000218 <frame_dummy+0x14>)
 800020c:	4803      	ldr	r0, [pc, #12]	@ (800021c <frame_dummy+0x18>)
 800020e:	f3af 8000 	nop.w
 8000212:	bd08      	pop	{r3, pc}
 8000214:	00000000 	.word	0x00000000
 8000218:	2000006c 	.word	0x2000006c
 800021c:	08006a78 	.word	0x08006a78

08000220 <memchr>:
 8000220:	f001 01ff 	and.w	r1, r1, #255	@ 0xff
 8000224:	2a10      	cmp	r2, #16
 8000226:	db2b      	blt.n	8000280 <memchr+0x60>
 8000228:	f010 0f07 	tst.w	r0, #7
 800022c:	d008      	beq.n	8000240 <memchr+0x20>
 800022e:	f810 3b01 	ldrb.w	r3, [r0], #1
 8000232:	3a01      	subs	r2, #1
 8000234:	428b      	cmp	r3, r1
 8000236:	d02d      	beq.n	8000294 <memchr+0x74>
 8000238:	f010 0f07 	tst.w	r0, #7
 800023c:	b342      	cbz	r2, 8000290 <memchr+0x70>
 800023e:	d1f6      	bne.n	800022e <memchr+0xe>
 8000240:	b4f0      	push	{r4, r5, r6, r7}
 8000242:	ea41 2101 	orr.w	r1, r1, r1, lsl #8
 8000246:	ea41 4101 	orr.w	r1, r1, r1, lsl #16
 800024a:	f022 0407 	bic.w	r4, r2, #7
 800024e:	f07f 0700 	mvns.w	r7, #0
 8000252:	2300      	movs	r3, #0
 8000254:	e8f0 5602 	ldrd	r5, r6, [r0], #8
 8000258:	3c08      	subs	r4, #8
 800025a:	ea85 0501 	eor.w	r5, r5, r1
 800025e:	ea86 0601 	eor.w	r6, r6, r1
 8000262:	fa85 f547 	uadd8	r5, r5, r7
 8000266:	faa3 f587 	sel	r5, r3, r7
 800026a:	fa86 f647 	uadd8	r6, r6, r7
 800026e:	faa5 f687 	sel	r6, r5, r7
 8000272:	b98e      	cbnz	r6, 8000298 <memchr+0x78>
 8000274:	d1ee      	bne.n	8000254 <memchr+0x34>
 8000276:	bcf0      	pop	{r4, r5, r6, r7}
 8000278:	f001 01ff 	and.w	r1, r1, #255	@ 0xff
 800027c:	f002 0207 	and.w	r2, r2, #7
 8000280:	b132      	cbz	r2, 8000290 <memchr+0x70>
 8000282:	f810 3b01 	ldrb.w	r3, [r0], #1
 8000286:	3a01      	subs	r2, #1
 8000288:	ea83 0301 	eor.w	r3, r3, r1
 800028c:	b113      	cbz	r3, 8000294 <memchr+0x74>
 800028e:	d1f8      	bne.n	8000282 <memchr+0x62>
 8000290:	2000      	movs	r0, #0
 8000292:	4770      	bx	lr
 8000294:	3801      	subs	r0, #1
 8000296:	4770      	bx	lr
 8000298:	2d00      	cmp	r5, #0
 800029a:	bf06      	itte	eq
 800029c:	4635      	moveq	r5, r6
 800029e:	3803      	subeq	r0, #3
 80002a0:	3807      	subne	r0, #7
 80002a2:	f015 0f01 	tst.w	r5, #1
 80002a6:	d107      	bne.n	80002b8 <memchr+0x98>
 80002a8:	3001      	adds	r0, #1
 80002aa:	f415 7f80 	tst.w	r5, #256	@ 0x100
 80002ae:	bf02      	ittt	eq
 80002b0:	3001      	addeq	r0, #1
 80002b2:	f415 3fc0 	tsteq.w	r5, #98304	@ 0x18000
 80002b6:	3001      	addeq	r0, #1
 80002b8:	bcf0      	pop	{r4, r5, r6, r7}
 80002ba:	3801      	subs	r0, #1
 80002bc:	4770      	bx	lr
 80002be:	bf00      	nop

080002c0 <__aeabi_uldivmod>:
 80002c0:	b953      	cbnz	r3, 80002d8 <__aeabi_uldivmod+0x18>
 80002c2:	b94a      	cbnz	r2, 80002d8 <__aeabi_uldivmod+0x18>
 80002c4:	2900      	cmp	r1, #0
 80002c6:	bf08      	it	eq
 80002c8:	2800      	cmpeq	r0, #0
 80002ca:	bf1c      	itt	ne
 80002cc:	f04f 31ff 	movne.w	r1, #4294967295
 80002d0:	f04f 30ff 	movne.w	r0, #4294967295
 80002d4:	f000 b988 	b.w	80005e8 <__aeabi_idiv0>
 80002d8:	f1ad 0c08 	sub.w	ip, sp, #8
 80002dc:	e96d ce04 	strd	ip, lr, [sp, #-16]!
 80002e0:	f000 f806 	bl	80002f0 <__udivmoddi4>
 80002e4:	f8dd e004 	ldr.w	lr, [sp, #4]
 80002e8:	e9dd 2302 	ldrd	r2, r3, [sp, #8]
 80002ec:	b004      	add	sp, #16
 80002ee:	4770      	bx	lr

080002f0 <__udivmoddi4>:
 80002f0:	e92d 47f0 	stmdb	sp!, {r4, r5, r6, r7, r8, r9, sl, lr}
 80002f4:	9d08      	ldr	r5, [sp, #32]
 80002f6:	468e      	mov	lr, r1
 80002f8:	4604      	mov	r4, r0
 80002fa:	4688      	mov	r8, r1
 80002fc:	2b00      	cmp	r3, #0
 80002fe:	d14a      	bne.n	8000396 <__udivmoddi4+0xa6>
 8000300:	428a      	cmp	r2, r1
 8000302:	4617      	mov	r7, r2
 8000304:	d962      	bls.n	80003cc <__udivmoddi4+0xdc>
 8000306:	fab2 f682 	clz	r6, r2
 800030a:	b14e      	cbz	r6, 8000320 <__udivmoddi4+0x30>
 800030c:	f1c6 0320 	rsb	r3, r6, #32
 8000310:	fa01 f806 	lsl.w	r8, r1, r6
 8000314:	fa20 f303 	lsr.w	r3, r0, r3
 8000318:	40b7      	lsls	r7, r6
 800031a:	ea43 0808 	orr.w	r8, r3, r8
 800031e:	40b4      	lsls	r4, r6
 8000320:	ea4f 4e17 	mov.w	lr, r7, lsr #16
 8000324:	fa1f fc87 	uxth.w	ip, r7
 8000328:	fbb8 f1fe 	udiv	r1, r8, lr
 800032c:	0c23      	lsrs	r3, r4, #16
 800032e:	fb0e 8811 	mls	r8, lr, r1, r8
 8000332:	ea43 4308 	orr.w	r3, r3, r8, lsl #16
 8000336:	fb01 f20c 	mul.w	r2, r1, ip
 800033a:	429a      	cmp	r2, r3
 800033c:	d909      	bls.n	8000352 <__udivmoddi4+0x62>
 800033e:	18fb      	adds	r3, r7, r3
 8000340:	f101 30ff 	add.w	r0, r1, #4294967295
 8000344:	f080 80ea 	bcs.w	800051c <__udivmoddi4+0x22c>
 8000348:	429a      	cmp	r2, r3
 800034a:	f240 80e7 	bls.w	800051c <__udivmoddi4+0x22c>
 800034e:	3902      	subs	r1, #2
 8000350:	443b      	add	r3, r7
 8000352:	1a9a      	subs	r2, r3, r2
 8000354:	b2a3      	uxth	r3, r4
 8000356:	fbb2 f0fe 	udiv	r0, r2, lr
 800035a:	fb0e 2210 	mls	r2, lr, r0, r2
 800035e:	ea43 4302 	orr.w	r3, r3, r2, lsl #16
 8000362:	fb00 fc0c 	mul.w	ip, r0, ip
 8000366:	459c      	cmp	ip, r3
 8000368:	d909      	bls.n	800037e <__udivmoddi4+0x8e>
 800036a:	18fb      	adds	r3, r7, r3
 800036c:	f100 32ff 	add.w	r2, r0, #4294967295
 8000370:	f080 80d6 	bcs.w	8000520 <__udivmoddi4+0x230>
 8000374:	459c      	cmp	ip, r3
 8000376:	f240 80d3 	bls.w	8000520 <__udivmoddi4+0x230>
 800037a:	443b      	add	r3, r7
 800037c:	3802      	subs	r0, #2
 800037e:	ea40 4001 	orr.w	r0, r0, r1, lsl #16
 8000382:	eba3 030c 	sub.w	r3, r3, ip
 8000386:	2100      	movs	r1, #0
 8000388:	b11d      	cbz	r5, 8000392 <__udivmoddi4+0xa2>
 800038a:	40f3      	lsrs	r3, r6
 800038c:	2200      	movs	r2, #0
 800038e:	e9c5 3200 	strd	r3, r2, [r5]
 8000392:	e8bd 87f0 	ldmia.w	sp!, {r4, r5, r6, r7, r8, r9, sl, pc}
 8000396:	428b      	cmp	r3, r1
 8000398:	d905      	bls.n	80003a6 <__udivmoddi4+0xb6>
 800039a:	b10d      	cbz	r5, 80003a0 <__udivmoddi4+0xb0>
 800039c:	e9c5 0100 	strd	r0, r1, [r5]
 80003a0:	2100      	movs	r1, #0
 80003a2:	4608      	mov	r0, r1
 80003a4:	e7f5      	b.n	8000392 <__udivmoddi4+0xa2>
 80003a6:	fab3 f183 	clz	r1, r3
 80003aa:	2900      	cmp	r1, #0
 80003ac:	d146      	bne.n	800043c <__udivmoddi4+0x14c>
 80003ae:	4573      	cmp	r3, lr
 80003b0:	d302      	bcc.n	80003b8 <__udivmoddi4+0xc8>
 80003b2:	4282      	cmp	r2, r0
 80003b4:	f200 8105 	bhi.w	80005c2 <__udivmoddi4+0x2d2>
 80003b8:	1a84      	subs	r4, r0, r2
 80003ba:	eb6e 0203 	sbc.w	r2, lr, r3
 80003be:	2001      	movs	r0, #1
 80003c0:	4690      	mov	r8, r2
 80003c2:	2d00      	cmp	r5, #0
 80003c4:	d0e5      	beq.n	8000392 <__udivmoddi4+0xa2>
 80003c6:	e9c5 4800 	strd	r4, r8, [r5]
 80003ca:	e7e2      	b.n	8000392 <__udivmoddi4+0xa2>
 80003cc:	2a00      	cmp	r2, #0
 80003ce:	f000 8090 	beq.w	80004f2 <__udivmoddi4+0x202>
 80003d2:	fab2 f682 	clz	r6, r2
 80003d6:	2e00      	cmp	r6, #0
 80003d8:	f040 80a4 	bne.w	8000524 <__udivmoddi4+0x234>
 80003dc:	1a8a      	subs	r2, r1, r2
 80003de:	0c03      	lsrs	r3, r0, #16
 80003e0:	ea4f 4e17 	mov.w	lr, r7, lsr #16
 80003e4:	b280      	uxth	r0, r0
 80003e6:	b2bc      	uxth	r4, r7
 80003e8:	2101      	movs	r1, #1
 80003ea:	fbb2 fcfe 	udiv	ip, r2, lr
 80003ee:	fb0e 221c 	mls	r2, lr, ip, r2
 80003f2:	ea43 4302 	orr.w	r3, r3, r2, lsl #16
 80003f6:	fb04 f20c 	mul.w	r2, r4, ip
 80003fa:	429a      	cmp	r2, r3
 80003fc:	d907      	bls.n	800040e <__udivmoddi4+0x11e>
 80003fe:	18fb      	adds	r3, r7, r3
 8000400:	f10c 38ff 	add.w	r8, ip, #4294967295
 8000404:	d202      	bcs.n	800040c <__udivmoddi4+0x11c>
 8000406:	429a      	cmp	r2, r3
 8000408:	f200 80e0 	bhi.w	80005cc <__udivmoddi4+0x2dc>
 800040c:	46c4      	mov	ip, r8
 800040e:	1a9b      	subs	r3, r3, r2
 8000410:	fbb3 f2fe 	udiv	r2, r3, lr
 8000414:	fb0e 3312 	mls	r3, lr, r2, r3
 8000418:	ea40 4303 	orr.w	r3, r0, r3, lsl #16
 800041c:	fb02 f404 	mul.w	r4, r2, r4
 8000420:	429c      	cmp	r4, r3
 8000422:	d907      	bls.n	8000434 <__udivmoddi4+0x144>
 8000424:	18fb      	adds	r3, r7, r3
 8000426:	f102 30ff 	add.w	r0, r2, #4294967295
 800042a:	d202      	bcs.n	8000432 <__udivmoddi4+0x142>
 800042c:	429c      	cmp	r4, r3
 800042e:	f200 80ca 	bhi.w	80005c6 <__udivmoddi4+0x2d6>
 8000432:	4602      	mov	r2, r0
 8000434:	1b1b      	subs	r3, r3, r4
 8000436:	ea42 400c 	orr.w	r0, r2, ip, lsl #16
 800043a:	e7a5      	b.n	8000388 <__udivmoddi4+0x98>
 800043c:	f1c1 0620 	rsb	r6, r1, #32
 8000440:	408b      	lsls	r3, r1
 8000442:	fa22 f706 	lsr.w	r7, r2, r6
 8000446:	431f      	orrs	r7, r3
 8000448:	fa0e f401 	lsl.w	r4, lr, r1
 800044c:	fa20 f306 	lsr.w	r3, r0, r6
 8000450:	fa2e fe06 	lsr.w	lr, lr, r6
 8000454:	ea4f 4917 	mov.w	r9, r7, lsr #16
 8000458:	4323      	orrs	r3, r4
 800045a:	fa00 f801 	lsl.w	r8, r0, r1
 800045e:	fa1f fc87 	uxth.w	ip, r7
 8000462:	fbbe f0f9 	udiv	r0, lr, r9
 8000466:	0c1c      	lsrs	r4, r3, #16
 8000468:	fb09 ee10 	mls	lr, r9, r0, lr
 800046c:	ea44 440e 	orr.w	r4, r4, lr, lsl #16
 8000470:	fb00 fe0c 	mul.w	lr, r0, ip
 8000474:	45a6      	cmp	lr, r4
 8000476:	fa02 f201 	lsl.w	r2, r2, r1
 800047a:	d909      	bls.n	8000490 <__udivmoddi4+0x1a0>
 800047c:	193c      	adds	r4, r7, r4
 800047e:	f100 3aff 	add.w	sl, r0, #4294967295
 8000482:	f080 809c 	bcs.w	80005be <__udivmoddi4+0x2ce>
 8000486:	45a6      	cmp	lr, r4
 8000488:	f240 8099 	bls.w	80005be <__udivmoddi4+0x2ce>
 800048c:	3802      	subs	r0, #2
 800048e:	443c      	add	r4, r7
 8000490:	eba4 040e 	sub.w	r4, r4, lr
 8000494:	fa1f fe83 	uxth.w	lr, r3
 8000498:	fbb4 f3f9 	udiv	r3, r4, r9
 800049c:	fb09 4413 	mls	r4, r9, r3, r4
 80004a0:	ea4e 4404 	orr.w	r4, lr, r4, lsl #16
 80004a4:	fb03 fc0c 	mul.w	ip, r3, ip
 80004a8:	45a4      	cmp	ip, r4
 80004aa:	d908      	bls.n	80004be <__udivmoddi4+0x1ce>
 80004ac:	193c      	adds	r4, r7, r4
 80004ae:	f103 3eff 	add.w	lr, r3, #4294967295
 80004b2:	f080 8082 	bcs.w	80005ba <__udivmoddi4+0x2ca>
 80004b6:	45a4      	cmp	ip, r4
 80004b8:	d97f      	bls.n	80005ba <__udivmoddi4+0x2ca>
 80004ba:	3b02      	subs	r3, #2
 80004bc:	443c      	add	r4, r7
 80004be:	ea43 4000 	orr.w	r0, r3, r0, lsl #16
 80004c2:	eba4 040c 	sub.w	r4, r4, ip
 80004c6:	fba0 ec02 	umull	lr, ip, r0, r2
 80004ca:	4564      	cmp	r4, ip
 80004cc:	4673      	mov	r3, lr
 80004ce:	46e1      	mov	r9, ip
 80004d0:	d362      	bcc.n	8000598 <__udivmoddi4+0x2a8>
 80004d2:	d05f      	beq.n	8000594 <__udivmoddi4+0x2a4>
 80004d4:	b15d      	cbz	r5, 80004ee <__udivmoddi4+0x1fe>
 80004d6:	ebb8 0203 	subs.w	r2, r8, r3
 80004da:	eb64 0409 	sbc.w	r4, r4, r9
 80004de:	fa04 f606 	lsl.w	r6, r4, r6
 80004e2:	fa22 f301 	lsr.w	r3, r2, r1
 80004e6:	431e      	orrs	r6, r3
 80004e8:	40cc      	lsrs	r4, r1
 80004ea:	e9c5 6400 	strd	r6, r4, [r5]
 80004ee:	2100      	movs	r1, #0
 80004f0:	e74f      	b.n	8000392 <__udivmoddi4+0xa2>
 80004f2:	fbb1 fcf2 	udiv	ip, r1, r2
 80004f6:	0c01      	lsrs	r1, r0, #16
 80004f8:	ea41 410e 	orr.w	r1, r1, lr, lsl #16
 80004fc:	b280      	uxth	r0, r0
 80004fe:	ea40 4201 	orr.w	r2, r0, r1, lsl #16
 8000502:	463b      	mov	r3, r7
 8000504:	4638      	mov	r0, r7
 8000506:	463c      	mov	r4, r7
 8000508:	46b8      	mov	r8, r7
 800050a:	46be      	mov	lr, r7
 800050c:	2620      	movs	r6, #32
 800050e:	fbb1 f1f7 	udiv	r1, r1, r7
 8000512:	eba2 0208 	sub.w	r2, r2, r8
 8000516:	ea41 410c 	orr.w	r1, r1, ip, lsl #16
 800051a:	e766      	b.n	80003ea <__udivmoddi4+0xfa>
 800051c:	4601      	mov	r1, r0
 800051e:	e718      	b.n	8000352 <__udivmoddi4+0x62>
 8000520:	4610      	mov	r0, r2
 8000522:	e72c      	b.n	800037e <__udivmoddi4+0x8e>
 8000524:	f1c6 0220 	rsb	r2, r6, #32
 8000528:	fa2e f302 	lsr.w	r3, lr, r2
 800052c:	40b7      	lsls	r7, r6
 800052e:	40b1      	lsls	r1, r6
 8000530:	fa20 f202 	lsr.w	r2, r0, r2
 8000534:	ea4f 4e17 	mov.w	lr, r7, lsr #16
 8000538:	430a      	orrs	r2, r1
 800053a:	fbb3 f8fe 	udiv	r8, r3, lr
 800053e:	b2bc      	uxth	r4, r7
 8000540:	fb0e 3318 	mls	r3, lr, r8, r3
 8000544:	0c11      	lsrs	r1, r2, #16
 8000546:	ea41 4103 	orr.w	r1, r1, r3, lsl #16
 800054a:	fb08 f904 	mul.w	r9, r8, r4
 800054e:	40b0      	lsls	r0, r6
 8000550:	4589      	cmp	r9, r1
 8000552:	ea4f 4310 	mov.w	r3, r0, lsr #16
 8000556:	b280      	uxth	r0, r0
 8000558:	d93e      	bls.n	80005d8 <__udivmoddi4+0x2e8>
 800055a:	1879      	adds	r1, r7, r1
 800055c:	f108 3cff 	add.w	ip, r8, #4294967295
 8000560:	d201      	bcs.n	8000566 <__udivmoddi4+0x276>
 8000562:	4589      	cmp	r9, r1
 8000564:	d81f      	bhi.n	80005a6 <__udivmoddi4+0x2b6>
 8000566:	eba1 0109 	sub.w	r1, r1, r9
 800056a:	fbb1 f9fe 	udiv	r9, r1, lr
 800056e:	fb09 f804 	mul.w	r8, r9, r4
 8000572:	fb0e 1119 	mls	r1, lr, r9, r1
 8000576:	b292      	uxth	r2, r2
 8000578:	ea42 4201 	orr.w	r2, r2, r1, lsl #16
 800057c:	4542      	cmp	r2, r8
 800057e:	d229      	bcs.n	80005d4 <__udivmoddi4+0x2e4>
 8000580:	18ba      	adds	r2, r7, r2
 8000582:	f109 31ff 	add.w	r1, r9, #4294967295
 8000586:	d2c4      	bcs.n	8000512 <__udivmoddi4+0x222>
 8000588:	4542      	cmp	r2, r8
 800058a:	d2c2      	bcs.n	8000512 <__udivmoddi4+0x222>
 800058c:	f1a9 0102 	sub.w	r1, r9, #2
 8000590:	443a      	add	r2, r7
 8000592:	e7be      	b.n	8000512 <__udivmoddi4+0x222>
 8000594:	45f0      	cmp	r8, lr
 8000596:	d29d      	bcs.n	80004d4 <__udivmoddi4+0x1e4>
 8000598:	ebbe 0302 	subs.w	r3, lr, r2
 800059c:	eb6c 0c07 	sbc.w	ip, ip, r7
 80005a0:	3801      	subs	r0, #1
 80005a2:	46e1      	mov	r9, ip
 80005a4:	e796      	b.n	80004d4 <__udivmoddi4+0x1e4>
 80005a6:	eba7 0909 	sub.w	r9, r7, r9
 80005aa:	4449      	add	r1, r9
 80005ac:	f1a8 0c02 	sub.w	ip, r8, #2
 80005b0:	fbb1 f9fe 	udiv	r9, r1, lr
 80005b4:	fb09 f804 	mul.w	r8, r9, r4
 80005b8:	e7db      	b.n	8000572 <__udivmoddi4+0x282>
 80005ba:	4673      	mov	r3, lr
 80005bc:	e77f      	b.n	80004be <__udivmoddi4+0x1ce>
 80005be:	4650      	mov	r0, sl
 80005c0:	e766      	b.n	8000490 <__udivmoddi4+0x1a0>
 80005c2:	4608      	mov	r0, r1
 80005c4:	e6fd      	b.n	80003c2 <__udivmoddi4+0xd2>
 80005c6:	443b      	add	r3, r7
 80005c8:	3a02      	subs	r2, #2
 80005ca:	e733      	b.n	8000434 <__udivmoddi4+0x144>
 80005cc:	f1ac 0c02 	sub.w	ip, ip, #2
 80005d0:	443b      	add	r3, r7
 80005d2:	e71c      	b.n	800040e <__udivmoddi4+0x11e>
 80005d4:	4649      	mov	r1, r9
 80005d6:	e79c      	b.n	8000512 <__udivmoddi4+0x222>
 80005d8:	eba1 0109 	sub.w	r1, r1, r9
 80005dc:	46c4      	mov	ip, r8
 80005de:	fbb1 f9fe 	udiv	r9, r1, lr
 80005e2:	fb09 f804 	mul.w	r8, r9, r4
 80005e6:	e7c4      	b.n	8000572 <__udivmoddi4+0x282>

080005e8 <__aeabi_idiv0>:
 80005e8:	4770      	bx	lr
 80005ea:	bf00      	nop

080005ec <initializeCAN>:
 *      Author: aniru
 */

#include "BoardManager.h"

bool initializeCAN(){
 80005ec:	b580      	push	{r7, lr}
 80005ee:	af00      	add	r7, sp, #0
	can_handle = CAN_create(&hfdcan1, 0x0, 0x7FF); //create pointer to can_driver class
 80005f0:	f240 72ff 	movw	r2, #2047	@ 0x7ff
 80005f4:	2100      	movs	r1, #0
 80005f6:	4811      	ldr	r0, [pc, #68]	@ (800063c <initializeCAN+0x50>)
 80005f8:	f000 fb78 	bl	8000cec <CAN_create>
 80005fc:	4603      	mov	r3, r0
 80005fe:	4a10      	ldr	r2, [pc, #64]	@ (8000640 <initializeCAN+0x54>)
 8000600:	6013      	str	r3, [r2, #0]

	if (!CAN_initialize(can_handle)){return false;} //enable fdcan peripheral
 8000602:	4b0f      	ldr	r3, [pc, #60]	@ (8000640 <initializeCAN+0x54>)
 8000604:	681b      	ldr	r3, [r3, #0]
 8000606:	4618      	mov	r0, r3
 8000608:	f000 fba0 	bl	8000d4c <CAN_initialize>
 800060c:	4603      	mov	r3, r0
 800060e:	f083 0301 	eor.w	r3, r3, #1
 8000612:	b2db      	uxtb	r3, r3
 8000614:	2b00      	cmp	r3, #0
 8000616:	d001      	beq.n	800061c <initializeCAN+0x30>
 8000618:	2300      	movs	r3, #0
 800061a:	e00d      	b.n	8000638 <initializeCAN+0x4c>

	if (!CAN_configureTransmission(can_handle)) {return false;} //configure settings
 800061c:	4b08      	ldr	r3, [pc, #32]	@ (8000640 <initializeCAN+0x54>)
 800061e:	681b      	ldr	r3, [r3, #0]
 8000620:	4618      	mov	r0, r3
 8000622:	f000 fba5 	bl	8000d70 <CAN_configureTransmission>
 8000626:	4603      	mov	r3, r0
 8000628:	f083 0301 	eor.w	r3, r3, #1
 800062c:	b2db      	uxtb	r3, r3
 800062e:	2b00      	cmp	r3, #0
 8000630:	d001      	beq.n	8000636 <initializeCAN+0x4a>
 8000632:	2300      	movs	r3, #0
 8000634:	e000      	b.n	8000638 <initializeCAN+0x4c>

	return true;
 8000636:	2301      	movs	r3, #1
}
 8000638:	4618      	mov	r0, r3
 800063a:	bd80      	pop	{r7, pc}
 800063c:	200003e4 	.word	0x200003e4
 8000640:	200004a0 	.word	0x200004a0

08000644 <push_on_bus>:

bool push_on_bus(uint16_t payload){
 8000644:	b580      	push	{r7, lr}
 8000646:	b082      	sub	sp, #8
 8000648:	af00      	add	r7, sp, #0
 800064a:	4603      	mov	r3, r0
 800064c:	80fb      	strh	r3, [r7, #6]
	if (!CAN_addMessageToQueue(can_handle, FRONT_CAN_ID, (uint8_t*) &payload, PAYLOAD_LENGTH)) {return false;}
 800064e:	4b13      	ldr	r3, [pc, #76]	@ (800069c <push_on_bus+0x58>)
 8000650:	6818      	ldr	r0, [r3, #0]
 8000652:	1dba      	adds	r2, r7, #6
 8000654:	2302      	movs	r3, #2
 8000656:	f240 2162 	movw	r1, #610	@ 0x262
 800065a:	f000 fb9b 	bl	8000d94 <CAN_addMessageToQueue>
 800065e:	4603      	mov	r3, r0
 8000660:	f083 0301 	eor.w	r3, r3, #1
 8000664:	b2db      	uxtb	r3, r3
 8000666:	2b00      	cmp	r3, #0
 8000668:	d001      	beq.n	800066e <push_on_bus+0x2a>
 800066a:	2300      	movs	r3, #0
 800066c:	e012      	b.n	8000694 <push_on_bus+0x50>

	if (!CAN_transmitMessage(can_handle)) {return false;}
 800066e:	4b0b      	ldr	r3, [pc, #44]	@ (800069c <push_on_bus+0x58>)
 8000670:	681b      	ldr	r3, [r3, #0]
 8000672:	4618      	mov	r0, r3
 8000674:	f000 fbb5 	bl	8000de2 <CAN_transmitMessage>
 8000678:	4603      	mov	r3, r0
 800067a:	f083 0301 	eor.w	r3, r3, #1
 800067e:	b2db      	uxtb	r3, r3
 8000680:	2b00      	cmp	r3, #0
 8000682:	d001      	beq.n	8000688 <push_on_bus+0x44>
 8000684:	2300      	movs	r3, #0
 8000686:	e005      	b.n	8000694 <push_on_bus+0x50>

	return CAN_checkACK(can_handle);
 8000688:	4b04      	ldr	r3, [pc, #16]	@ (800069c <push_on_bus+0x58>)
 800068a:	681b      	ldr	r3, [r3, #0]
 800068c:	4618      	mov	r0, r3
 800068e:	f000 fbba 	bl	8000e06 <CAN_checkACK>
 8000692:	4603      	mov	r3, r0
}
 8000694:	4618      	mov	r0, r3
 8000696:	3708      	adds	r7, #8
 8000698:	46bd      	mov	sp, r7
 800069a:	bd80      	pop	{r7, pc}
 800069c:	200004a0 	.word	0x200004a0

080006a0 <sensor_start>:

bool sensor_start(){
 80006a0:	b580      	push	{r7, lr}
 80006a2:	af00      	add	r7, sp, #0
	  if (VL53L4CD_SensorInit(DEVICE_INSTANCE)) {return false;}; //initialize sensor
 80006a4:	2052      	movs	r0, #82	@ 0x52
 80006a6:	f004 ff0d 	bl	80054c4 <VL53L4CD_SensorInit>
 80006aa:	4603      	mov	r3, r0
 80006ac:	2b00      	cmp	r3, #0
 80006ae:	d001      	beq.n	80006b4 <sensor_start+0x14>
 80006b0:	2300      	movs	r3, #0
 80006b2:	e008      	b.n	80006c6 <sensor_start+0x26>
	  if (VL53L4CD_StartRanging(DEVICE_INSTANCE)) {return false;} //begin reading distance
 80006b4:	2052      	movs	r0, #82	@ 0x52
 80006b6:	f004 ffe0 	bl	800567a <VL53L4CD_StartRanging>
 80006ba:	4603      	mov	r3, r0
 80006bc:	2b00      	cmp	r3, #0
 80006be:	d001      	beq.n	80006c4 <sensor_start+0x24>
 80006c0:	2300      	movs	r3, #0
 80006c2:	e000      	b.n	80006c6 <sensor_start+0x26>
	  return true;
 80006c4:	2301      	movs	r3, #1
}
 80006c6:	4618      	mov	r0, r3
 80006c8:	bd80      	pop	{r7, pc}
	...

080006cc <get_data_it>:

void get_data_it(){
 80006cc:	b580      	push	{r7, lr}
 80006ce:	af00      	add	r7, sp, #0
	  if (VL53L4CD_GetResult(DEVICE_INSTANCE, &data)) {//get data
 80006d0:	4910      	ldr	r1, [pc, #64]	@ (8000714 <get_data_it+0x48>)
 80006d2:	2052      	movs	r0, #82	@ 0x52
 80006d4:	f005 f978 	bl	80059c8 <VL53L4CD_GetResult>
 80006d8:	4603      	mov	r3, r0
 80006da:	2b00      	cmp	r3, #0
 80006dc:	d003      	beq.n	80006e6 <get_data_it+0x1a>
		  VL53L4CD_ClearInterrupt(DEVICE_INSTANCE); //clear interrupt
 80006de:	2052      	movs	r0, #82	@ 0x52
 80006e0:	f004 ffb4 	bl	800564c <VL53L4CD_ClearInterrupt>
		  return;
 80006e4:	e015      	b.n	8000712 <get_data_it+0x46>
	  }
	  VL53L4CD_ClearInterrupt(DEVICE_INSTANCE); //clear interrupt
 80006e6:	2052      	movs	r0, #82	@ 0x52
 80006e8:	f004 ffb0 	bl	800564c <VL53L4CD_ClearInterrupt>
	  if (data.range_status == 0){
 80006ec:	4b09      	ldr	r3, [pc, #36]	@ (8000714 <get_data_it+0x48>)
 80006ee:	781b      	ldrb	r3, [r3, #0]
 80006f0:	2b00      	cmp	r3, #0
 80006f2:	d10b      	bne.n	800070c <get_data_it+0x40>
		  push_on_bus(data.distance_mm); //send data along CAN
 80006f4:	4b07      	ldr	r3, [pc, #28]	@ (8000714 <get_data_it+0x48>)
 80006f6:	885b      	ldrh	r3, [r3, #2]
 80006f8:	4618      	mov	r0, r3
 80006fa:	f7ff ffa3 	bl	8000644 <push_on_bus>
		  printf("Distance: %d (mm)\r\n", data.distance_mm); //print data to terminal
 80006fe:	4b05      	ldr	r3, [pc, #20]	@ (8000714 <get_data_it+0x48>)
 8000700:	885b      	ldrh	r3, [r3, #2]
 8000702:	4619      	mov	r1, r3
 8000704:	4804      	ldr	r0, [pc, #16]	@ (8000718 <get_data_it+0x4c>)
 8000706:	f005 fadf 	bl	8005cc8 <iprintf>
 800070a:	e002      	b.n	8000712 <get_data_it+0x46>

	  } else{
		  printf("Measurement Error\r\n");
 800070c:	4803      	ldr	r0, [pc, #12]	@ (800071c <get_data_it+0x50>)
 800070e:	f005 fb43 	bl	8005d98 <puts>
	  }
}
 8000712:	bd80      	pop	{r7, pc}
 8000714:	200004a4 	.word	0x200004a4
 8000718:	08006a90 	.word	0x08006a90
 800071c:	08006aa4 	.word	0x08006aa4

08000720 <_ZN9CANDriverC1EP19FDCAN_HandleTypeDefmm>:

#include "CANDriver.h"
#include "CANMessage.hpp"
#include <cstdio>

CANDriver::CANDriver(FDCAN_HandleTypeDef* canInstance, uint32_t filterLowID, uint32_t filterHighID)
 8000720:	b5b0      	push	{r4, r5, r7, lr}
 8000722:	b084      	sub	sp, #16
 8000724:	af00      	add	r7, sp, #0
 8000726:	60f8      	str	r0, [r7, #12]
 8000728:	60b9      	str	r1, [r7, #8]
 800072a:	607a      	str	r2, [r7, #4]
 800072c:	603b      	str	r3, [r7, #0]
    : canInstance(canInstance),
 800072e:	68fb      	ldr	r3, [r7, #12]
 8000730:	68ba      	ldr	r2, [r7, #8]
 8000732:	601a      	str	r2, [r3, #0]
      queueSize(0),
      queueHeadIndex(0),
      queueTailIndex(0),
      filterLowID(filterLowID),
      filterHighID(filterHighID) {}
 8000734:	68fb      	ldr	r3, [r7, #12]
 8000736:	3328      	adds	r3, #40	@ 0x28
 8000738:	2431      	movs	r4, #49	@ 0x31
 800073a:	461d      	mov	r5, r3
 800073c:	e004      	b.n	8000748 <_ZN9CANDriverC1EP19FDCAN_HandleTypeDefmm+0x28>
 800073e:	4628      	mov	r0, r5
 8000740:	f000 fa86 	bl	8000c50 <_ZN10CANMessageC1Ev>
 8000744:	3c01      	subs	r4, #1
 8000746:	3510      	adds	r5, #16
 8000748:	2c00      	cmp	r4, #0
 800074a:	daf8      	bge.n	800073e <_ZN9CANDriverC1EP19FDCAN_HandleTypeDefmm+0x1e>
      queueSize(0),
 800074c:	68fb      	ldr	r3, [r7, #12]
 800074e:	2200      	movs	r2, #0
 8000750:	f8c3 2348 	str.w	r2, [r3, #840]	@ 0x348
      queueHeadIndex(0),
 8000754:	68fb      	ldr	r3, [r7, #12]
 8000756:	2200      	movs	r2, #0
 8000758:	f8c3 234c 	str.w	r2, [r3, #844]	@ 0x34c
      queueTailIndex(0),
 800075c:	68fb      	ldr	r3, [r7, #12]
 800075e:	2200      	movs	r2, #0
 8000760:	f8c3 2350 	str.w	r2, [r3, #848]	@ 0x350
      filterLowID(filterLowID),
 8000764:	68fb      	ldr	r3, [r7, #12]
 8000766:	687a      	ldr	r2, [r7, #4]
 8000768:	f8c3 2354 	str.w	r2, [r3, #852]	@ 0x354
      filterHighID(filterHighID) {}
 800076c:	68fb      	ldr	r3, [r7, #12]
 800076e:	683a      	ldr	r2, [r7, #0]
 8000770:	f8c3 2358 	str.w	r2, [r3, #856]	@ 0x358
 8000774:	68fb      	ldr	r3, [r7, #12]
 8000776:	4618      	mov	r0, r3
 8000778:	3710      	adds	r7, #16
 800077a:	46bd      	mov	sp, r7
 800077c:	bdb0      	pop	{r4, r5, r7, pc}
	...

08000780 <_ZN9CANDriver10dlcFromLenEh>:

uint32_t CANDriver::dlcFromLen(uint8_t len) {
 8000780:	b480      	push	{r7}
 8000782:	b083      	sub	sp, #12
 8000784:	af00      	add	r7, sp, #0
 8000786:	4603      	mov	r3, r0
 8000788:	71fb      	strb	r3, [r7, #7]
    if (len > 8) len = 8;
 800078a:	79fb      	ldrb	r3, [r7, #7]
 800078c:	2b08      	cmp	r3, #8
 800078e:	d901      	bls.n	8000794 <_ZN9CANDriver10dlcFromLenEh+0x14>
 8000790:	2308      	movs	r3, #8
 8000792:	71fb      	strb	r3, [r7, #7]

    switch (len) {
 8000794:	79fb      	ldrb	r3, [r7, #7]
 8000796:	2b07      	cmp	r3, #7
 8000798:	d822      	bhi.n	80007e0 <_ZN9CANDriver10dlcFromLenEh+0x60>
 800079a:	a201      	add	r2, pc, #4	@ (adr r2, 80007a0 <_ZN9CANDriver10dlcFromLenEh+0x20>)
 800079c:	f852 f023 	ldr.w	pc, [r2, r3, lsl #2]
 80007a0:	080007c1 	.word	0x080007c1
 80007a4:	080007c5 	.word	0x080007c5
 80007a8:	080007c9 	.word	0x080007c9
 80007ac:	080007cd 	.word	0x080007cd
 80007b0:	080007d1 	.word	0x080007d1
 80007b4:	080007d5 	.word	0x080007d5
 80007b8:	080007d9 	.word	0x080007d9
 80007bc:	080007dd 	.word	0x080007dd
        case 0: return FDCAN_DLC_BYTES_0;
 80007c0:	2300      	movs	r3, #0
 80007c2:	e00e      	b.n	80007e2 <_ZN9CANDriver10dlcFromLenEh+0x62>
        case 1: return FDCAN_DLC_BYTES_1;
 80007c4:	2301      	movs	r3, #1
 80007c6:	e00c      	b.n	80007e2 <_ZN9CANDriver10dlcFromLenEh+0x62>
        case 2: return FDCAN_DLC_BYTES_2;
 80007c8:	2302      	movs	r3, #2
 80007ca:	e00a      	b.n	80007e2 <_ZN9CANDriver10dlcFromLenEh+0x62>
        case 3: return FDCAN_DLC_BYTES_3;
 80007cc:	2303      	movs	r3, #3
 80007ce:	e008      	b.n	80007e2 <_ZN9CANDriver10dlcFromLenEh+0x62>
        case 4: return FDCAN_DLC_BYTES_4;
 80007d0:	2304      	movs	r3, #4
 80007d2:	e006      	b.n	80007e2 <_ZN9CANDriver10dlcFromLenEh+0x62>
        case 5: return FDCAN_DLC_BYTES_5;
 80007d4:	2305      	movs	r3, #5
 80007d6:	e004      	b.n	80007e2 <_ZN9CANDriver10dlcFromLenEh+0x62>
        case 6: return FDCAN_DLC_BYTES_6;
 80007d8:	2306      	movs	r3, #6
 80007da:	e002      	b.n	80007e2 <_ZN9CANDriver10dlcFromLenEh+0x62>
        case 7: return FDCAN_DLC_BYTES_7;
 80007dc:	2307      	movs	r3, #7
 80007de:	e000      	b.n	80007e2 <_ZN9CANDriver10dlcFromLenEh+0x62>
        default:return FDCAN_DLC_BYTES_8;
 80007e0:	2308      	movs	r3, #8
    }
}
 80007e2:	4618      	mov	r0, r3
 80007e4:	370c      	adds	r7, #12
 80007e6:	46bd      	mov	sp, r7
 80007e8:	f85d 7b04 	ldr.w	r7, [sp], #4
 80007ec:	4770      	bx	lr
 80007ee:	bf00      	nop

080007f0 <_ZN9CANDriver10initializeEv>:

bool CANDriver::initialize() {
 80007f0:	b580      	push	{r7, lr}
 80007f2:	b08a      	sub	sp, #40	@ 0x28
 80007f4:	af02      	add	r7, sp, #8
 80007f6:	6078      	str	r0, [r7, #4]
	 FDCAN_FilterTypeDef sFilterConfig;

	  /* Configure Rx filter */
	  sFilterConfig.IdType = FDCAN_STANDARD_ID;
 80007f8:	2300      	movs	r3, #0
 80007fa:	60bb      	str	r3, [r7, #8]
	  sFilterConfig.FilterIndex = 0;
 80007fc:	2300      	movs	r3, #0
 80007fe:	60fb      	str	r3, [r7, #12]
	  sFilterConfig.FilterType = FDCAN_FILTER_RANGE;
 8000800:	2300      	movs	r3, #0
 8000802:	613b      	str	r3, [r7, #16]
	  sFilterConfig.FilterConfig = FDCAN_FILTER_TO_RXFIFO0;
 8000804:	2301      	movs	r3, #1
 8000806:	617b      	str	r3, [r7, #20]
	  sFilterConfig.FilterID1 = this->filterLowID;
 8000808:	687b      	ldr	r3, [r7, #4]
 800080a:	f8d3 3354 	ldr.w	r3, [r3, #852]	@ 0x354
 800080e:	61bb      	str	r3, [r7, #24]
	  sFilterConfig.FilterID2 = this->filterHighID;
 8000810:	687b      	ldr	r3, [r7, #4]
 8000812:	f8d3 3358 	ldr.w	r3, [r3, #856]	@ 0x358
 8000816:	61fb      	str	r3, [r7, #28]

	  if(HAL_FDCAN_ConfigFilter(this->canInstance, &sFilterConfig) != HAL_OK) {
 8000818:	687b      	ldr	r3, [r7, #4]
 800081a:	681b      	ldr	r3, [r3, #0]
 800081c:	f107 0208 	add.w	r2, r7, #8
 8000820:	4611      	mov	r1, r2
 8000822:	4618      	mov	r0, r3
 8000824:	f001 fb22 	bl	8001e6c <HAL_FDCAN_ConfigFilter>
 8000828:	4603      	mov	r3, r0
 800082a:	2b00      	cmp	r3, #0
 800082c:	bf14      	ite	ne
 800082e:	2301      	movne	r3, #1
 8000830:	2300      	moveq	r3, #0
 8000832:	b2db      	uxtb	r3, r3
 8000834:	2b00      	cmp	r3, #0
 8000836:	d001      	beq.n	800083c <_ZN9CANDriver10initializeEv+0x4c>
		  return 0;
 8000838:	2300      	movs	r3, #0
 800083a:	e039      	b.n	80008b0 <_ZN9CANDriver10initializeEv+0xc0>
	  }

	  if (HAL_FDCAN_ConfigGlobalFilter(this->canInstance, FDCAN_REJECT, FDCAN_REJECT, FDCAN_FILTER_REMOTE, FDCAN_FILTER_REMOTE) != HAL_OK)
 800083c:	687b      	ldr	r3, [r7, #4]
 800083e:	6818      	ldr	r0, [r3, #0]
 8000840:	2300      	movs	r3, #0
 8000842:	9300      	str	r3, [sp, #0]
 8000844:	2300      	movs	r3, #0
 8000846:	2202      	movs	r2, #2
 8000848:	2102      	movs	r1, #2
 800084a:	f001 fb69 	bl	8001f20 <HAL_FDCAN_ConfigGlobalFilter>
 800084e:	4603      	mov	r3, r0
 8000850:	2b00      	cmp	r3, #0
 8000852:	bf14      	ite	ne
 8000854:	2301      	movne	r3, #1
 8000856:	2300      	moveq	r3, #0
 8000858:	b2db      	uxtb	r3, r3
 800085a:	2b00      	cmp	r3, #0
 800085c:	d001      	beq.n	8000862 <_ZN9CANDriver10initializeEv+0x72>
	  {
		return 0;
 800085e:	2300      	movs	r3, #0
 8000860:	e026      	b.n	80008b0 <_ZN9CANDriver10initializeEv+0xc0>
	  }

	  /* Start the FDCAN module */
	  if (HAL_FDCAN_Start(this->canInstance) != HAL_OK)
 8000862:	687b      	ldr	r3, [r7, #4]
 8000864:	681b      	ldr	r3, [r3, #0]
 8000866:	4618      	mov	r0, r3
 8000868:	f001 fb8b 	bl	8001f82 <HAL_FDCAN_Start>
 800086c:	4603      	mov	r3, r0
 800086e:	2b00      	cmp	r3, #0
 8000870:	bf14      	ite	ne
 8000872:	2301      	movne	r3, #1
 8000874:	2300      	moveq	r3, #0
 8000876:	b2db      	uxtb	r3, r3
 8000878:	2b00      	cmp	r3, #0
 800087a:	d004      	beq.n	8000886 <_ZN9CANDriver10initializeEv+0x96>
	  {
		printf("FDCAN initialization error\r\n");
 800087c:	480e      	ldr	r0, [pc, #56]	@ (80008b8 <_ZN9CANDriver10initializeEv+0xc8>)
 800087e:	f005 fa8b 	bl	8005d98 <puts>
		return 0;
 8000882:	2300      	movs	r3, #0
 8000884:	e014      	b.n	80008b0 <_ZN9CANDriver10initializeEv+0xc0>
	  }

	  if (HAL_FDCAN_ActivateNotification(this->canInstance, FDCAN_IT_RX_FIFO0_NEW_MESSAGE, 0) != HAL_OK)
 8000886:	687b      	ldr	r3, [r7, #4]
 8000888:	681b      	ldr	r3, [r3, #0]
 800088a:	2200      	movs	r2, #0
 800088c:	2101      	movs	r1, #1
 800088e:	4618      	mov	r0, r3
 8000890:	f001 fc58 	bl	8002144 <HAL_FDCAN_ActivateNotification>
 8000894:	4603      	mov	r3, r0
 8000896:	2b00      	cmp	r3, #0
 8000898:	bf14      	ite	ne
 800089a:	2301      	movne	r3, #1
 800089c:	2300      	moveq	r3, #0
 800089e:	b2db      	uxtb	r3, r3
 80008a0:	2b00      	cmp	r3, #0
 80008a2:	d001      	beq.n	80008a8 <_ZN9CANDriver10initializeEv+0xb8>
	  {
		return 0;
 80008a4:	2300      	movs	r3, #0
 80008a6:	e003      	b.n	80008b0 <_ZN9CANDriver10initializeEv+0xc0>
	  }
	  printf("fdcan initialized\r\n");
 80008a8:	4804      	ldr	r0, [pc, #16]	@ (80008bc <_ZN9CANDriver10initializeEv+0xcc>)
 80008aa:	f005 fa75 	bl	8005d98 <puts>
	  return 1;
 80008ae:	2301      	movs	r3, #1
}
 80008b0:	4618      	mov	r0, r3
 80008b2:	3720      	adds	r7, #32
 80008b4:	46bd      	mov	sp, r7
 80008b6:	bd80      	pop	{r7, pc}
 80008b8:	08006ab8 	.word	0x08006ab8
 80008bc:	08006ad4 	.word	0x08006ad4

080008c0 <_ZN9CANDriver21configureTransmissionEv>:

bool CANDriver::configureTransmission() {
 80008c0:	b4b0      	push	{r4, r5, r7}
 80008c2:	b08d      	sub	sp, #52	@ 0x34
 80008c4:	af00      	add	r7, sp, #0
 80008c6:	6078      	str	r0, [r7, #4]
	  FDCAN_TxHeaderTypeDef TxHeader;

	  TxHeader.IdType = FDCAN_STANDARD_ID;
 80008c8:	2300      	movs	r3, #0
 80008ca:	613b      	str	r3, [r7, #16]
	  TxHeader.TxFrameType = FDCAN_DATA_FRAME;
 80008cc:	2300      	movs	r3, #0
 80008ce:	617b      	str	r3, [r7, #20]
	  TxHeader.DataLength = FDCAN_DLC_BYTES_8;
 80008d0:	2308      	movs	r3, #8
 80008d2:	61bb      	str	r3, [r7, #24]
	  TxHeader.ErrorStateIndicator = FDCAN_ESI_ACTIVE;
 80008d4:	2300      	movs	r3, #0
 80008d6:	61fb      	str	r3, [r7, #28]
	  TxHeader.BitRateSwitch = FDCAN_BRS_OFF;
 80008d8:	2300      	movs	r3, #0
 80008da:	623b      	str	r3, [r7, #32]
	  TxHeader.FDFormat = FDCAN_CLASSIC_CAN;
 80008dc:	2300      	movs	r3, #0
 80008de:	627b      	str	r3, [r7, #36]	@ 0x24
	  TxHeader.TxEventFifoControl = FDCAN_NO_TX_EVENTS;
 80008e0:	2300      	movs	r3, #0
 80008e2:	62bb      	str	r3, [r7, #40]	@ 0x28
	  TxHeader.MessageMarker = 0;
 80008e4:	2300      	movs	r3, #0
 80008e6:	62fb      	str	r3, [r7, #44]	@ 0x2c

	  this->TxHeader = TxHeader;
 80008e8:	687b      	ldr	r3, [r7, #4]
 80008ea:	1d1c      	adds	r4, r3, #4
 80008ec:	f107 050c 	add.w	r5, r7, #12
 80008f0:	cd0f      	ldmia	r5!, {r0, r1, r2, r3}
 80008f2:	c40f      	stmia	r4!, {r0, r1, r2, r3}
 80008f4:	cd0f      	ldmia	r5!, {r0, r1, r2, r3}
 80008f6:	c40f      	stmia	r4!, {r0, r1, r2, r3}
 80008f8:	682b      	ldr	r3, [r5, #0]
 80008fa:	6023      	str	r3, [r4, #0]

	  return 1;
 80008fc:	2301      	movs	r3, #1
}
 80008fe:	4618      	mov	r0, r3
 8000900:	3734      	adds	r7, #52	@ 0x34
 8000902:	46bd      	mov	sp, r7
 8000904:	bcb0      	pop	{r4, r5, r7}
 8000906:	4770      	bx	lr

08000908 <_ZN9CANDriver17addMessageToQueueERK10CANMessage>:

bool CANDriver::addMessageToQueue(const CANMessage& message) {
 8000908:	b590      	push	{r4, r7, lr}
 800090a:	b083      	sub	sp, #12
 800090c:	af00      	add	r7, sp, #0
 800090e:	6078      	str	r0, [r7, #4]
 8000910:	6039      	str	r1, [r7, #0]
    if (isQueueFull()){
 8000912:	6878      	ldr	r0, [r7, #4]
 8000914:	f000 f8bc 	bl	8000a90 <_ZNK9CANDriver11isQueueFullEv>
 8000918:	4603      	mov	r3, r0
 800091a:	2b00      	cmp	r3, #0
 800091c:	d004      	beq.n	8000928 <_ZN9CANDriver17addMessageToQueueERK10CANMessage+0x20>
    	printf("Queue is full\r\n");
 800091e:	4819      	ldr	r0, [pc, #100]	@ (8000984 <_ZN9CANDriver17addMessageToQueueERK10CANMessage+0x7c>)
 8000920:	f005 fa3a 	bl	8005d98 <puts>
    	return false;
 8000924:	2300      	movs	r3, #0
 8000926:	e028      	b.n	800097a <_ZN9CANDriver17addMessageToQueueERK10CANMessage+0x72>
    }

    canQueue[queueTailIndex] = message;
 8000928:	687b      	ldr	r3, [r7, #4]
 800092a:	f8d3 3350 	ldr.w	r3, [r3, #848]	@ 0x350
 800092e:	011b      	lsls	r3, r3, #4
 8000930:	3328      	adds	r3, #40	@ 0x28
 8000932:	687a      	ldr	r2, [r7, #4]
 8000934:	4413      	add	r3, r2
 8000936:	683a      	ldr	r2, [r7, #0]
 8000938:	6814      	ldr	r4, [r2, #0]
 800093a:	6850      	ldr	r0, [r2, #4]
 800093c:	6891      	ldr	r1, [r2, #8]
 800093e:	601c      	str	r4, [r3, #0]
 8000940:	6058      	str	r0, [r3, #4]
 8000942:	6099      	str	r1, [r3, #8]
 8000944:	7b12      	ldrb	r2, [r2, #12]
 8000946:	731a      	strb	r2, [r3, #12]
    queueTailIndex = (queueTailIndex + 1) % MAX_QUEUE_CAPACITY;
 8000948:	687b      	ldr	r3, [r7, #4]
 800094a:	f8d3 3350 	ldr.w	r3, [r3, #848]	@ 0x350
 800094e:	1c5a      	adds	r2, r3, #1
 8000950:	4b0d      	ldr	r3, [pc, #52]	@ (8000988 <_ZN9CANDriver17addMessageToQueueERK10CANMessage+0x80>)
 8000952:	fb83 1302 	smull	r1, r3, r3, r2
 8000956:	1119      	asrs	r1, r3, #4
 8000958:	17d3      	asrs	r3, r2, #31
 800095a:	1acb      	subs	r3, r1, r3
 800095c:	2132      	movs	r1, #50	@ 0x32
 800095e:	fb01 f303 	mul.w	r3, r1, r3
 8000962:	1ad3      	subs	r3, r2, r3
 8000964:	687a      	ldr	r2, [r7, #4]
 8000966:	f8c2 3350 	str.w	r3, [r2, #848]	@ 0x350
    queueSize++;
 800096a:	687b      	ldr	r3, [r7, #4]
 800096c:	f8d3 3348 	ldr.w	r3, [r3, #840]	@ 0x348
 8000970:	1c5a      	adds	r2, r3, #1
 8000972:	687b      	ldr	r3, [r7, #4]
 8000974:	f8c3 2348 	str.w	r2, [r3, #840]	@ 0x348
    return true;
 8000978:	2301      	movs	r3, #1
}
 800097a:	4618      	mov	r0, r3
 800097c:	370c      	adds	r7, #12
 800097e:	46bd      	mov	sp, r7
 8000980:	bd90      	pop	{r4, r7, pc}
 8000982:	bf00      	nop
 8000984:	08006ae8 	.word	0x08006ae8
 8000988:	51eb851f 	.word	0x51eb851f

0800098c <_ZN9CANDriver15transmitMessageEv>:

bool CANDriver::transmitMessage() {
 800098c:	b5b0      	push	{r4, r5, r7, lr}
 800098e:	b088      	sub	sp, #32
 8000990:	af00      	add	r7, sp, #0
 8000992:	6078      	str	r0, [r7, #4]
    if (isQueueEmpty()) {
 8000994:	6878      	ldr	r0, [r7, #4]
 8000996:	f000 f88d 	bl	8000ab4 <_ZNK9CANDriver12isQueueEmptyEv>
 800099a:	4603      	mov	r3, r0
 800099c:	2b00      	cmp	r3, #0
 800099e:	d004      	beq.n	80009aa <_ZN9CANDriver15transmitMessageEv+0x1e>
    	printf("Queue is empty\r\n");
 80009a0:	4835      	ldr	r0, [pc, #212]	@ (8000a78 <_ZN9CANDriver15transmitMessageEv+0xec>)
 80009a2:	f005 f9f9 	bl	8005d98 <puts>
    	return false;
 80009a6:	2300      	movs	r3, #0
 80009a8:	e061      	b.n	8000a6e <_ZN9CANDriver15transmitMessageEv+0xe2>
    }

    CANMessage msg = canQueue[queueHeadIndex];
 80009aa:	687b      	ldr	r3, [r7, #4]
 80009ac:	f8d3 334c 	ldr.w	r3, [r3, #844]	@ 0x34c
 80009b0:	687a      	ldr	r2, [r7, #4]
 80009b2:	011b      	lsls	r3, r3, #4
 80009b4:	4413      	add	r3, r2
 80009b6:	3328      	adds	r3, #40	@ 0x28
 80009b8:	f107 040c 	add.w	r4, r7, #12
 80009bc:	cb0f      	ldmia	r3, {r0, r1, r2, r3}
 80009be:	e884 000f 	stmia.w	r4, {r0, r1, r2, r3}
    queueHeadIndex = (queueHeadIndex + 1) % MAX_QUEUE_CAPACITY;
 80009c2:	687b      	ldr	r3, [r7, #4]
 80009c4:	f8d3 334c 	ldr.w	r3, [r3, #844]	@ 0x34c
 80009c8:	1c5a      	adds	r2, r3, #1
 80009ca:	4b2c      	ldr	r3, [pc, #176]	@ (8000a7c <_ZN9CANDriver15transmitMessageEv+0xf0>)
 80009cc:	fb83 1302 	smull	r1, r3, r3, r2
 80009d0:	1119      	asrs	r1, r3, #4
 80009d2:	17d3      	asrs	r3, r2, #31
 80009d4:	1acb      	subs	r3, r1, r3
 80009d6:	2132      	movs	r1, #50	@ 0x32
 80009d8:	fb01 f303 	mul.w	r3, r1, r3
 80009dc:	1ad3      	subs	r3, r2, r3
 80009de:	687a      	ldr	r2, [r7, #4]
 80009e0:	f8c2 334c 	str.w	r3, [r2, #844]	@ 0x34c
    queueSize--;
 80009e4:	687b      	ldr	r3, [r7, #4]
 80009e6:	f8d3 3348 	ldr.w	r3, [r3, #840]	@ 0x348
 80009ea:	1e5a      	subs	r2, r3, #1
 80009ec:	687b      	ldr	r3, [r7, #4]
 80009ee:	f8c3 2348 	str.w	r2, [r3, #840]	@ 0x348

    TxHeader.Identifier = msg.getID();
 80009f2:	f107 030c 	add.w	r3, r7, #12
 80009f6:	4618      	mov	r0, r3
 80009f8:	f000 f960 	bl	8000cbc <_ZN10CANMessage5getIDEv>
 80009fc:	4602      	mov	r2, r0
 80009fe:	687b      	ldr	r3, [r7, #4]
 8000a00:	605a      	str	r2, [r3, #4]
    TxHeader.DataLength = CANDriver::dlcFromLen(msg.getLength());
 8000a02:	f107 030c 	add.w	r3, r7, #12
 8000a06:	4618      	mov	r0, r3
 8000a08:	f000 f964 	bl	8000cd4 <_ZN10CANMessage9getLengthEv>
 8000a0c:	4603      	mov	r3, r0
 8000a0e:	4618      	mov	r0, r3
 8000a10:	f7ff feb6 	bl	8000780 <_ZN9CANDriver10dlcFromLenEh>
 8000a14:	4602      	mov	r2, r0
 8000a16:	687b      	ldr	r3, [r7, #4]
 8000a18:	611a      	str	r2, [r3, #16]

    printf("[CAN] Calling HAL_FDCAN_AddMessageToTxFifoQ: ID=0x%03lX len=%lu\r\n",
 8000a1a:	687b      	ldr	r3, [r7, #4]
 8000a1c:	6859      	ldr	r1, [r3, #4]
 8000a1e:	687b      	ldr	r3, [r7, #4]
 8000a20:	691b      	ldr	r3, [r3, #16]
 8000a22:	461a      	mov	r2, r3
 8000a24:	4816      	ldr	r0, [pc, #88]	@ (8000a80 <_ZN9CANDriver15transmitMessageEv+0xf4>)
 8000a26:	f005 f94f 	bl	8005cc8 <iprintf>
           TxHeader.Identifier, TxHeader.DataLength);

    HAL_StatusTypeDef halStatus = HAL_FDCAN_AddMessageToTxFifoQ(canInstance, &TxHeader, msg.getData());
 8000a2a:	687b      	ldr	r3, [r7, #4]
 8000a2c:	681c      	ldr	r4, [r3, #0]
 8000a2e:	687b      	ldr	r3, [r7, #4]
 8000a30:	1d1d      	adds	r5, r3, #4
 8000a32:	f107 030c 	add.w	r3, r7, #12
 8000a36:	4618      	mov	r0, r3
 8000a38:	f000 f934 	bl	8000ca4 <_ZN10CANMessage7getDataEv>
 8000a3c:	4603      	mov	r3, r0
 8000a3e:	461a      	mov	r2, r3
 8000a40:	4629      	mov	r1, r5
 8000a42:	4620      	mov	r0, r4
 8000a44:	f001 fac5 	bl	8001fd2 <HAL_FDCAN_AddMessageToTxFifoQ>
 8000a48:	4603      	mov	r3, r0
 8000a4a:	77fb      	strb	r3, [r7, #31]
    printf("[CAN] HAL status: %d (0=OK,1=ERR,2=BUSY,3=TIMEOUT)\r\n", (int)halStatus);
 8000a4c:	7ffb      	ldrb	r3, [r7, #31]
 8000a4e:	4619      	mov	r1, r3
 8000a50:	480c      	ldr	r0, [pc, #48]	@ (8000a84 <_ZN9CANDriver15transmitMessageEv+0xf8>)
 8000a52:	f005 f939 	bl	8005cc8 <iprintf>

    if (halStatus != HAL_OK){
 8000a56:	7ffb      	ldrb	r3, [r7, #31]
 8000a58:	2b00      	cmp	r3, #0
 8000a5a:	d004      	beq.n	8000a66 <_ZN9CANDriver15transmitMessageEv+0xda>
    	printf("Transmission Error\r\n");
 8000a5c:	480a      	ldr	r0, [pc, #40]	@ (8000a88 <_ZN9CANDriver15transmitMessageEv+0xfc>)
 8000a5e:	f005 f99b 	bl	8005d98 <puts>
        return false;
 8000a62:	2300      	movs	r3, #0
 8000a64:	e003      	b.n	8000a6e <_ZN9CANDriver15transmitMessageEv+0xe2>
    }

    printf("[CAN] Message queued to TX FIFO OK\r\n");
 8000a66:	4809      	ldr	r0, [pc, #36]	@ (8000a8c <_ZN9CANDriver15transmitMessageEv+0x100>)
 8000a68:	f005 f996 	bl	8005d98 <puts>
    return true;
 8000a6c:	2301      	movs	r3, #1
}
 8000a6e:	4618      	mov	r0, r3
 8000a70:	3720      	adds	r7, #32
 8000a72:	46bd      	mov	sp, r7
 8000a74:	bdb0      	pop	{r4, r5, r7, pc}
 8000a76:	bf00      	nop
 8000a78:	08006af8 	.word	0x08006af8
 8000a7c:	51eb851f 	.word	0x51eb851f
 8000a80:	08006b08 	.word	0x08006b08
 8000a84:	08006b4c 	.word	0x08006b4c
 8000a88:	08006b84 	.word	0x08006b84
 8000a8c:	08006b98 	.word	0x08006b98

08000a90 <_ZNK9CANDriver11isQueueFullEv>:
bool CANDriver::transmitPriorityMessage() {
	//to be implemented
	return 1;
}

bool CANDriver::isQueueFull() const { return queueSize == MAX_QUEUE_CAPACITY; }
 8000a90:	b480      	push	{r7}
 8000a92:	b083      	sub	sp, #12
 8000a94:	af00      	add	r7, sp, #0
 8000a96:	6078      	str	r0, [r7, #4]
 8000a98:	687b      	ldr	r3, [r7, #4]
 8000a9a:	f8d3 3348 	ldr.w	r3, [r3, #840]	@ 0x348
 8000a9e:	2b32      	cmp	r3, #50	@ 0x32
 8000aa0:	bf0c      	ite	eq
 8000aa2:	2301      	moveq	r3, #1
 8000aa4:	2300      	movne	r3, #0
 8000aa6:	b2db      	uxtb	r3, r3
 8000aa8:	4618      	mov	r0, r3
 8000aaa:	370c      	adds	r7, #12
 8000aac:	46bd      	mov	sp, r7
 8000aae:	f85d 7b04 	ldr.w	r7, [sp], #4
 8000ab2:	4770      	bx	lr

08000ab4 <_ZNK9CANDriver12isQueueEmptyEv>:

bool CANDriver::isQueueEmpty() const { return this->queueSize == 0;}
 8000ab4:	b480      	push	{r7}
 8000ab6:	b083      	sub	sp, #12
 8000ab8:	af00      	add	r7, sp, #0
 8000aba:	6078      	str	r0, [r7, #4]
 8000abc:	687b      	ldr	r3, [r7, #4]
 8000abe:	f8d3 3348 	ldr.w	r3, [r3, #840]	@ 0x348
 8000ac2:	2b00      	cmp	r3, #0
 8000ac4:	bf0c      	ite	eq
 8000ac6:	2301      	moveq	r3, #1
 8000ac8:	2300      	movne	r3, #0
 8000aca:	b2db      	uxtb	r3, r3
 8000acc:	4618      	mov	r0, r3
 8000ace:	370c      	adds	r7, #12
 8000ad0:	46bd      	mov	sp, r7
 8000ad2:	f85d 7b04 	ldr.w	r7, [sp], #4
 8000ad6:	4770      	bx	lr

08000ad8 <_ZN9CANDriver8checkACKEv>:

int CANDriver::getQueueSize() const { return this->queueSize; }

bool CANDriver::checkACK(){
 8000ad8:	b580      	push	{r7, lr}
 8000ada:	b094      	sub	sp, #80	@ 0x50
 8000adc:	af00      	add	r7, sp, #0
 8000ade:	6078      	str	r0, [r7, #4]
	FDCAN_ProtocolStatusTypeDef status;
	HAL_FDCAN_GetProtocolStatus(canInstance, &status);
 8000ae0:	687b      	ldr	r3, [r7, #4]
 8000ae2:	681b      	ldr	r3, [r3, #0]
 8000ae4:	f107 021c 	add.w	r2, r7, #28
 8000ae8:	4611      	mov	r1, r2
 8000aea:	4618      	mov	r0, r3
 8000aec:	f001 fab5 	bl	800205a <HAL_FDCAN_GetProtocolStatus>

	FDCAN_ErrorCountersTypeDef counter;
	HAL_FDCAN_GetErrorCounters(canInstance, &counter);
 8000af0:	687b      	ldr	r3, [r7, #4]
 8000af2:	681b      	ldr	r3, [r3, #0]
 8000af4:	f107 020c 	add.w	r2, r7, #12
 8000af8:	4611      	mov	r1, r2
 8000afa:	4618      	mov	r0, r3
 8000afc:	f001 fafd 	bl	80020fa <HAL_FDCAN_GetErrorCounters>
//				5	Bit0 error	Bit mismatch
//				6	CRC error	Corrupted frame
//				7	No change	No new error
//	 */

	switch (status.LastErrorCode) {
 8000b00:	69fb      	ldr	r3, [r7, #28]
 8000b02:	2b07      	cmp	r3, #7
 8000b04:	d832      	bhi.n	8000b6c <_ZN9CANDriver8checkACKEv+0x94>
 8000b06:	a201      	add	r2, pc, #4	@ (adr r2, 8000b0c <_ZN9CANDriver8checkACKEv+0x34>)
 8000b08:	f852 f023 	ldr.w	pc, [r2, r3, lsl #2]
 8000b0c:	08000b2d 	.word	0x08000b2d
 8000b10:	08000b35 	.word	0x08000b35
 8000b14:	08000b3d 	.word	0x08000b3d
 8000b18:	08000b45 	.word	0x08000b45
 8000b1c:	08000b4d 	.word	0x08000b4d
 8000b20:	08000b55 	.word	0x08000b55
 8000b24:	08000b5d 	.word	0x08000b5d
 8000b28:	08000b65 	.word	0x08000b65
	    case 0: printf("No error\r\n"); break;
 8000b2c:	4839      	ldr	r0, [pc, #228]	@ (8000c14 <_ZN9CANDriver8checkACKEv+0x13c>)
 8000b2e:	f005 f933 	bl	8005d98 <puts>
 8000b32:	e01f      	b.n	8000b74 <_ZN9CANDriver8checkACKEv+0x9c>
	    case 1: printf("Stuff error\r\n"); break;
 8000b34:	4838      	ldr	r0, [pc, #224]	@ (8000c18 <_ZN9CANDriver8checkACKEv+0x140>)
 8000b36:	f005 f92f 	bl	8005d98 <puts>
 8000b3a:	e01b      	b.n	8000b74 <_ZN9CANDriver8checkACKEv+0x9c>
	    case 2: printf("Form error\r\n"); break;
 8000b3c:	4837      	ldr	r0, [pc, #220]	@ (8000c1c <_ZN9CANDriver8checkACKEv+0x144>)
 8000b3e:	f005 f92b 	bl	8005d98 <puts>
 8000b42:	e017      	b.n	8000b74 <_ZN9CANDriver8checkACKEv+0x9c>
	    case 3: printf("ACK error, no node detected\r\n"); break;
 8000b44:	4836      	ldr	r0, [pc, #216]	@ (8000c20 <_ZN9CANDriver8checkACKEv+0x148>)
 8000b46:	f005 f927 	bl	8005d98 <puts>
 8000b4a:	e013      	b.n	8000b74 <_ZN9CANDriver8checkACKEv+0x9c>
	    case 4: printf("Bit1 error\r\n"); break;
 8000b4c:	4835      	ldr	r0, [pc, #212]	@ (8000c24 <_ZN9CANDriver8checkACKEv+0x14c>)
 8000b4e:	f005 f923 	bl	8005d98 <puts>
 8000b52:	e00f      	b.n	8000b74 <_ZN9CANDriver8checkACKEv+0x9c>
	    case 5: printf("Bit0 error\r\n"); break;
 8000b54:	4834      	ldr	r0, [pc, #208]	@ (8000c28 <_ZN9CANDriver8checkACKEv+0x150>)
 8000b56:	f005 f91f 	bl	8005d98 <puts>
 8000b5a:	e00b      	b.n	8000b74 <_ZN9CANDriver8checkACKEv+0x9c>
	    case 6: printf("CRC error\r\n"); break;
 8000b5c:	4833      	ldr	r0, [pc, #204]	@ (8000c2c <_ZN9CANDriver8checkACKEv+0x154>)
 8000b5e:	f005 f91b 	bl	8005d98 <puts>
 8000b62:	e007      	b.n	8000b74 <_ZN9CANDriver8checkACKEv+0x9c>
	    case 7: printf("No change\r\n"); break;
 8000b64:	4832      	ldr	r0, [pc, #200]	@ (8000c30 <_ZN9CANDriver8checkACKEv+0x158>)
 8000b66:	f005 f917 	bl	8005d98 <puts>
 8000b6a:	e003      	b.n	8000b74 <_ZN9CANDriver8checkACKEv+0x9c>
	    default: printf("Unknown CAN error\r\n"); break;
 8000b6c:	4831      	ldr	r0, [pc, #196]	@ (8000c34 <_ZN9CANDriver8checkACKEv+0x15c>)
 8000b6e:	f005 f913 	bl	8005d98 <puts>
 8000b72:	bf00      	nop
	}

	//number of errors
	uint32_t error_counter;
	error_counter = counter.TxErrorCnt;
 8000b74:	68fb      	ldr	r3, [r7, #12]
 8000b76:	64fb      	str	r3, [r7, #76]	@ 0x4c
	printf("Number of error: %ld\r\n", error_counter); //maxes out at 128
 8000b78:	6cf9      	ldr	r1, [r7, #76]	@ 0x4c
 8000b7a:	482f      	ldr	r0, [pc, #188]	@ (8000c38 <_ZN9CANDriver8checkACKEv+0x160>)
 8000b7c:	f005 f8a4 	bl	8005cc8 <iprintf>


	uint8_t buffer_pending_check;
	buffer_pending_check = *(&hfdcan1.Instance->TXBRP); //check for pending messages
 8000b80:	4b2e      	ldr	r3, [pc, #184]	@ (8000c3c <_ZN9CANDriver8checkACKEv+0x164>)
 8000b82:	681b      	ldr	r3, [r3, #0]
 8000b84:	f8d3 30c8 	ldr.w	r3, [r3, #200]	@ 0xc8
 8000b88:	f887 304b 	strb.w	r3, [r7, #75]	@ 0x4b

	uint8_t buffer_transmit_check;
	buffer_transmit_check = *(&hfdcan1.Instance->TXBTO); //check bits 0,1, and 2 since since of queue only permits 3 messages to be held before overflow
 8000b8c:	4b2b      	ldr	r3, [pc, #172]	@ (8000c3c <_ZN9CANDriver8checkACKEv+0x164>)
 8000b8e:	681b      	ldr	r3, [r3, #0]
 8000b90:	f8d3 30d4 	ldr.w	r3, [r3, #212]	@ 0xd4
 8000b94:	f887 304a 	strb.w	r3, [r7, #74]	@ 0x4a

	// & 0b001 isolates bit 0 (buffer 1) from each register, leaving 0 (clear) or 1 (set).
	// !(...) on the TXBTO side is true when bit 0 is clear, i.e. buffer 1 has NOT finished
	// transmitting; combined with the TXBRP side being true (bit 0 set, buffer 1 still has
	// a request pending), the whole condition means "buffer 1 is pending but not transmitted".
	if (!(buffer_transmit_check & 0b001) && (buffer_pending_check & 0b001)){
 8000b98:	f897 304a 	ldrb.w	r3, [r7, #74]	@ 0x4a
 8000b9c:	f003 0301 	and.w	r3, r3, #1
 8000ba0:	2b00      	cmp	r3, #0
 8000ba2:	d10a      	bne.n	8000bba <_ZN9CANDriver8checkACKEv+0xe2>
 8000ba4:	f897 304b 	ldrb.w	r3, [r7, #75]	@ 0x4b
 8000ba8:	f003 0301 	and.w	r3, r3, #1
 8000bac:	2b00      	cmp	r3, #0
 8000bae:	d004      	beq.n	8000bba <_ZN9CANDriver8checkACKEv+0xe2>
		printf("buffer 1 pending but not transmitted\r\n");
 8000bb0:	4823      	ldr	r0, [pc, #140]	@ (8000c40 <_ZN9CANDriver8checkACKEv+0x168>)
 8000bb2:	f005 f8f1 	bl	8005d98 <puts>
		return false;
 8000bb6:	2300      	movs	r3, #0
 8000bb8:	e028      	b.n	8000c0c <_ZN9CANDriver8checkACKEv+0x134>
	}

	// & 0b010 isolates bit 1 (buffer 2), leaving 0 (clear) or 2 (set). !(...) is true when
	// bit 1 is clear (buffer 2 not yet transmitted); AND'd with the TXBRP side (bit 1 set,
	// buffer 2 still pending) gives "buffer 2 pending but not transmitted".
	if (!(buffer_transmit_check & 0b010) && (buffer_pending_check & 0b010)){
 8000bba:	f897 304a 	ldrb.w	r3, [r7, #74]	@ 0x4a
 8000bbe:	f003 0302 	and.w	r3, r3, #2
 8000bc2:	2b00      	cmp	r3, #0
 8000bc4:	d10d      	bne.n	8000be2 <_ZN9CANDriver8checkACKEv+0x10a>
 8000bc6:	f897 304b 	ldrb.w	r3, [r7, #75]	@ 0x4b
 8000bca:	f003 0302 	and.w	r3, r3, #2
 8000bce:	2b00      	cmp	r3, #0
 8000bd0:	d007      	beq.n	8000be2 <_ZN9CANDriver8checkACKEv+0x10a>
		printf("buffer 2 pending but not transmitted\r\n");
 8000bd2:	481c      	ldr	r0, [pc, #112]	@ (8000c44 <_ZN9CANDriver8checkACKEv+0x16c>)
 8000bd4:	f005 f8e0 	bl	8005d98 <puts>
		printf("Message not transmitted\r\n");
 8000bd8:	481b      	ldr	r0, [pc, #108]	@ (8000c48 <_ZN9CANDriver8checkACKEv+0x170>)
 8000bda:	f005 f8dd 	bl	8005d98 <puts>
		return false;
 8000bde:	2300      	movs	r3, #0
 8000be0:	e014      	b.n	8000c0c <_ZN9CANDriver8checkACKEv+0x134>
	}

	// & 0b100 isolates bit 2 (buffer 3), leaving 0 (clear) or 4 (set) — same reasoning as
	// buffer 2 above: !(...) true means bit 2 clear (not transmitted), AND'd with TXBRP bit 2
	// set (still pending) gives "buffer 3 pending but not transmitted".
	if (!(buffer_transmit_check & 0b100) && (buffer_pending_check & 0b100)){
 8000be2:	f897 304a 	ldrb.w	r3, [r7, #74]	@ 0x4a
 8000be6:	f003 0304 	and.w	r3, r3, #4
 8000bea:	2b00      	cmp	r3, #0
 8000bec:	d10d      	bne.n	8000c0a <_ZN9CANDriver8checkACKEv+0x132>
 8000bee:	f897 304b 	ldrb.w	r3, [r7, #75]	@ 0x4b
 8000bf2:	f003 0304 	and.w	r3, r3, #4
 8000bf6:	2b00      	cmp	r3, #0
 8000bf8:	d007      	beq.n	8000c0a <_ZN9CANDriver8checkACKEv+0x132>
		printf("buffer 3 pending but not transmitted\r\n");
 8000bfa:	4814      	ldr	r0, [pc, #80]	@ (8000c4c <_ZN9CANDriver8checkACKEv+0x174>)
 8000bfc:	f005 f8cc 	bl	8005d98 <puts>
		printf("Message not transmitted\r\n");
 8000c00:	4811      	ldr	r0, [pc, #68]	@ (8000c48 <_ZN9CANDriver8checkACKEv+0x170>)
 8000c02:	f005 f8c9 	bl	8005d98 <puts>
		return false;
 8000c06:	2300      	movs	r3, #0
 8000c08:	e000      	b.n	8000c0c <_ZN9CANDriver8checkACKEv+0x134>
	}

	return true;
 8000c0a:	2301      	movs	r3, #1
}
 8000c0c:	4618      	mov	r0, r3
 8000c0e:	3750      	adds	r7, #80	@ 0x50
 8000c10:	46bd      	mov	sp, r7
 8000c12:	bd80      	pop	{r7, pc}
 8000c14:	08006bbc 	.word	0x08006bbc
 8000c18:	08006bc8 	.word	0x08006bc8
 8000c1c:	08006bd8 	.word	0x08006bd8
 8000c20:	08006be4 	.word	0x08006be4
 8000c24:	08006c04 	.word	0x08006c04
 8000c28:	08006c10 	.word	0x08006c10
 8000c2c:	08006c1c 	.word	0x08006c1c
 8000c30:	08006c28 	.word	0x08006c28
 8000c34:	08006c34 	.word	0x08006c34
 8000c38:	08006c48 	.word	0x08006c48
 8000c3c:	200003e4 	.word	0x200003e4
 8000c40:	08006c60 	.word	0x08006c60
 8000c44:	08006c88 	.word	0x08006c88
 8000c48:	08006cb0 	.word	0x08006cb0
 8000c4c:	08006ccc 	.word	0x08006ccc

08000c50 <_ZN10CANMessageC1Ev>:
 8000c50:	b480      	push	{r7}
 8000c52:	b083      	sub	sp, #12
 8000c54:	af00      	add	r7, sp, #0
 8000c56:	6078      	str	r0, [r7, #4]
 8000c58:	687b      	ldr	r3, [r7, #4]
 8000c5a:	2200      	movs	r2, #0
 8000c5c:	601a      	str	r2, [r3, #0]
 8000c5e:	687b      	ldr	r3, [r7, #4]
 8000c60:	2200      	movs	r2, #0
 8000c62:	731a      	strb	r2, [r3, #12]
 8000c64:	687b      	ldr	r3, [r7, #4]
 8000c66:	4618      	mov	r0, r3
 8000c68:	370c      	adds	r7, #12
 8000c6a:	46bd      	mov	sp, r7
 8000c6c:	f85d 7b04 	ldr.w	r7, [sp], #4
 8000c70:	4770      	bx	lr

08000c72 <_ZN10CANMessageC1EmPKhh>:
 8000c72:	b580      	push	{r7, lr}
 8000c74:	b084      	sub	sp, #16
 8000c76:	af00      	add	r7, sp, #0
 8000c78:	60f8      	str	r0, [r7, #12]
 8000c7a:	60b9      	str	r1, [r7, #8]
 8000c7c:	607a      	str	r2, [r7, #4]
 8000c7e:	70fb      	strb	r3, [r7, #3]
 8000c80:	68fb      	ldr	r3, [r7, #12]
 8000c82:	68ba      	ldr	r2, [r7, #8]
 8000c84:	601a      	str	r2, [r3, #0]
 8000c86:	68fb      	ldr	r3, [r7, #12]
 8000c88:	78fa      	ldrb	r2, [r7, #3]
 8000c8a:	731a      	strb	r2, [r3, #12]
 8000c8c:	68fb      	ldr	r3, [r7, #12]
 8000c8e:	3304      	adds	r3, #4
 8000c90:	78fa      	ldrb	r2, [r7, #3]
 8000c92:	6879      	ldr	r1, [r7, #4]
 8000c94:	4618      	mov	r0, r3
 8000c96:	f005 f9da 	bl	800604e <memcpy>
 8000c9a:	68fb      	ldr	r3, [r7, #12]
 8000c9c:	4618      	mov	r0, r3
 8000c9e:	3710      	adds	r7, #16
 8000ca0:	46bd      	mov	sp, r7
 8000ca2:	bd80      	pop	{r7, pc}

08000ca4 <_ZN10CANMessage7getDataEv>:
 8000ca4:	b480      	push	{r7}
 8000ca6:	b083      	sub	sp, #12
 8000ca8:	af00      	add	r7, sp, #0
 8000caa:	6078      	str	r0, [r7, #4]
 8000cac:	687b      	ldr	r3, [r7, #4]
 8000cae:	3304      	adds	r3, #4
 8000cb0:	4618      	mov	r0, r3
 8000cb2:	370c      	adds	r7, #12
 8000cb4:	46bd      	mov	sp, r7
 8000cb6:	f85d 7b04 	ldr.w	r7, [sp], #4
 8000cba:	4770      	bx	lr

08000cbc <_ZN10CANMessage5getIDEv>:
 8000cbc:	b480      	push	{r7}
 8000cbe:	b083      	sub	sp, #12
 8000cc0:	af00      	add	r7, sp, #0
 8000cc2:	6078      	str	r0, [r7, #4]
 8000cc4:	687b      	ldr	r3, [r7, #4]
 8000cc6:	681b      	ldr	r3, [r3, #0]
 8000cc8:	4618      	mov	r0, r3
 8000cca:	370c      	adds	r7, #12
 8000ccc:	46bd      	mov	sp, r7
 8000cce:	f85d 7b04 	ldr.w	r7, [sp], #4
 8000cd2:	4770      	bx	lr

08000cd4 <_ZN10CANMessage9getLengthEv>:
 8000cd4:	b480      	push	{r7}
 8000cd6:	b083      	sub	sp, #12
 8000cd8:	af00      	add	r7, sp, #0
 8000cda:	6078      	str	r0, [r7, #4]
 8000cdc:	687b      	ldr	r3, [r7, #4]
 8000cde:	7b1b      	ldrb	r3, [r3, #12]
 8000ce0:	4618      	mov	r0, r3
 8000ce2:	370c      	adds	r7, #12
 8000ce4:	46bd      	mov	sp, r7
 8000ce6:	f85d 7b04 	ldr.w	r7, [sp], #4
 8000cea:	4770      	bx	lr

08000cec <CAN_create>:
 8000cec:	b580      	push	{r7, lr}
 8000cee:	b084      	sub	sp, #16
 8000cf0:	af00      	add	r7, sp, #0
 8000cf2:	60f8      	str	r0, [r7, #12]
 8000cf4:	60b9      	str	r1, [r7, #8]
 8000cf6:	607a      	str	r2, [r7, #4]
 8000cf8:	4b12      	ldr	r3, [pc, #72]	@ (8000d44 <CAN_create+0x58>)
 8000cfa:	681b      	ldr	r3, [r3, #0]
 8000cfc:	f3bf 8f5b 	dmb	ish
 8000d00:	f003 0301 	and.w	r3, r3, #1
 8000d04:	2b00      	cmp	r3, #0
 8000d06:	bf0c      	ite	eq
 8000d08:	2301      	moveq	r3, #1
 8000d0a:	2300      	movne	r3, #0
 8000d0c:	b2db      	uxtb	r3, r3
 8000d0e:	2b00      	cmp	r3, #0
 8000d10:	d013      	beq.n	8000d3a <CAN_create+0x4e>
 8000d12:	480c      	ldr	r0, [pc, #48]	@ (8000d44 <CAN_create+0x58>)
 8000d14:	f004 ff06 	bl	8005b24 <__cxa_guard_acquire>
 8000d18:	4603      	mov	r3, r0
 8000d1a:	2b00      	cmp	r3, #0
 8000d1c:	bf14      	ite	ne
 8000d1e:	2301      	movne	r3, #1
 8000d20:	2300      	moveq	r3, #0
 8000d22:	b2db      	uxtb	r3, r3
 8000d24:	2b00      	cmp	r3, #0
 8000d26:	d008      	beq.n	8000d3a <CAN_create+0x4e>
 8000d28:	687b      	ldr	r3, [r7, #4]
 8000d2a:	68ba      	ldr	r2, [r7, #8]
 8000d2c:	68f9      	ldr	r1, [r7, #12]
 8000d2e:	4806      	ldr	r0, [pc, #24]	@ (8000d48 <CAN_create+0x5c>)
 8000d30:	f7ff fcf6 	bl	8000720 <_ZN9CANDriverC1EP19FDCAN_HandleTypeDefmm>
 8000d34:	4803      	ldr	r0, [pc, #12]	@ (8000d44 <CAN_create+0x58>)
 8000d36:	f004 ff01 	bl	8005b3c <__cxa_guard_release>
 8000d3a:	4b03      	ldr	r3, [pc, #12]	@ (8000d48 <CAN_create+0x5c>)
 8000d3c:	4618      	mov	r0, r3
 8000d3e:	3710      	adds	r7, #16
 8000d40:	46bd      	mov	sp, r7
 8000d42:	bd80      	pop	{r7, pc}
 8000d44:	200003e0 	.word	0x200003e0
 8000d48:	20000084 	.word	0x20000084

08000d4c <CAN_initialize>:
 8000d4c:	b580      	push	{r7, lr}
 8000d4e:	b082      	sub	sp, #8
 8000d50:	af00      	add	r7, sp, #0
 8000d52:	6078      	str	r0, [r7, #4]
 8000d54:	687b      	ldr	r3, [r7, #4]
 8000d56:	2b00      	cmp	r3, #0
 8000d58:	d101      	bne.n	8000d5e <CAN_initialize+0x12>
 8000d5a:	2300      	movs	r3, #0
 8000d5c:	e004      	b.n	8000d68 <CAN_initialize+0x1c>
 8000d5e:	6878      	ldr	r0, [r7, #4]
 8000d60:	f7ff fd46 	bl	80007f0 <_ZN9CANDriver10initializeEv>
 8000d64:	4603      	mov	r3, r0
 8000d66:	bf00      	nop
 8000d68:	4618      	mov	r0, r3
 8000d6a:	3708      	adds	r7, #8
 8000d6c:	46bd      	mov	sp, r7
 8000d6e:	bd80      	pop	{r7, pc}

08000d70 <CAN_configureTransmission>:
 8000d70:	b580      	push	{r7, lr}
 8000d72:	b082      	sub	sp, #8
 8000d74:	af00      	add	r7, sp, #0
 8000d76:	6078      	str	r0, [r7, #4]
 8000d78:	687b      	ldr	r3, [r7, #4]
 8000d7a:	2b00      	cmp	r3, #0
 8000d7c:	d101      	bne.n	8000d82 <CAN_configureTransmission+0x12>
 8000d7e:	2300      	movs	r3, #0
 8000d80:	e004      	b.n	8000d8c <CAN_configureTransmission+0x1c>
 8000d82:	6878      	ldr	r0, [r7, #4]
 8000d84:	f7ff fd9c 	bl	80008c0 <_ZN9CANDriver21configureTransmissionEv>
 8000d88:	4603      	mov	r3, r0
 8000d8a:	bf00      	nop
 8000d8c:	4618      	mov	r0, r3
 8000d8e:	3708      	adds	r7, #8
 8000d90:	46bd      	mov	sp, r7
 8000d92:	bd80      	pop	{r7, pc}

08000d94 <CAN_addMessageToQueue>:
 8000d94:	b580      	push	{r7, lr}
 8000d96:	b088      	sub	sp, #32
 8000d98:	af00      	add	r7, sp, #0
 8000d9a:	60f8      	str	r0, [r7, #12]
 8000d9c:	60b9      	str	r1, [r7, #8]
 8000d9e:	607a      	str	r2, [r7, #4]
 8000da0:	70fb      	strb	r3, [r7, #3]
 8000da2:	68fb      	ldr	r3, [r7, #12]
 8000da4:	2b00      	cmp	r3, #0
 8000da6:	d002      	beq.n	8000dae <CAN_addMessageToQueue+0x1a>
 8000da8:	687b      	ldr	r3, [r7, #4]
 8000daa:	2b00      	cmp	r3, #0
 8000dac:	d101      	bne.n	8000db2 <CAN_addMessageToQueue+0x1e>
 8000dae:	2300      	movs	r3, #0
 8000db0:	e013      	b.n	8000dda <CAN_addMessageToQueue+0x46>
 8000db2:	78fb      	ldrb	r3, [r7, #3]
 8000db4:	2b08      	cmp	r3, #8
 8000db6:	d901      	bls.n	8000dbc <CAN_addMessageToQueue+0x28>
 8000db8:	2308      	movs	r3, #8
 8000dba:	70fb      	strb	r3, [r7, #3]
 8000dbc:	78fb      	ldrb	r3, [r7, #3]
 8000dbe:	f107 0010 	add.w	r0, r7, #16
 8000dc2:	687a      	ldr	r2, [r7, #4]
 8000dc4:	68b9      	ldr	r1, [r7, #8]
 8000dc6:	f7ff ff54 	bl	8000c72 <_ZN10CANMessageC1EmPKhh>
 8000dca:	f107 0310 	add.w	r3, r7, #16
 8000dce:	4619      	mov	r1, r3
 8000dd0:	68f8      	ldr	r0, [r7, #12]
 8000dd2:	f7ff fd99 	bl	8000908 <_ZN9CANDriver17addMessageToQueueERK10CANMessage>
 8000dd6:	4603      	mov	r3, r0
 8000dd8:	bf00      	nop
 8000dda:	4618      	mov	r0, r3
 8000ddc:	3720      	adds	r7, #32
 8000dde:	46bd      	mov	sp, r7
 8000de0:	bd80      	pop	{r7, pc}

08000de2 <CAN_transmitMessage>:
 8000de2:	b580      	push	{r7, lr}
 8000de4:	b082      	sub	sp, #8
 8000de6:	af00      	add	r7, sp, #0
 8000de8:	6078      	str	r0, [r7, #4]
 8000dea:	687b      	ldr	r3, [r7, #4]
 8000dec:	2b00      	cmp	r3, #0
 8000dee:	d101      	bne.n	8000df4 <CAN_transmitMessage+0x12>
 8000df0:	2300      	movs	r3, #0
 8000df2:	e004      	b.n	8000dfe <CAN_transmitMessage+0x1c>
 8000df4:	6878      	ldr	r0, [r7, #4]
 8000df6:	f7ff fdc9 	bl	800098c <_ZN9CANDriver15transmitMessageEv>
 8000dfa:	4603      	mov	r3, r0
 8000dfc:	bf00      	nop
 8000dfe:	4618      	mov	r0, r3
 8000e00:	3708      	adds	r7, #8
 8000e02:	46bd      	mov	sp, r7
 8000e04:	bd80      	pop	{r7, pc}

08000e06 <CAN_checkACK>:
 8000e06:	b580      	push	{r7, lr}
 8000e08:	b082      	sub	sp, #8
 8000e0a:	af00      	add	r7, sp, #0
 8000e0c:	6078      	str	r0, [r7, #4]
 8000e0e:	687b      	ldr	r3, [r7, #4]
 8000e10:	2b00      	cmp	r3, #0
 8000e12:	d101      	bne.n	8000e18 <CAN_checkACK+0x12>
 8000e14:	2300      	movs	r3, #0
 8000e16:	e004      	b.n	8000e22 <CAN_checkACK+0x1c>
 8000e18:	6878      	ldr	r0, [r7, #4]
 8000e1a:	f7ff fe5d 	bl	8000ad8 <_ZN9CANDriver8checkACKEv>
 8000e1e:	4603      	mov	r3, r0
 8000e20:	bf00      	nop
 8000e22:	4618      	mov	r0, r3
 8000e24:	3708      	adds	r7, #8
 8000e26:	46bd      	mov	sp, r7
 8000e28:	bd80      	pop	{r7, pc}
	...

08000e2c <MX_FDCAN1_Init>:
 8000e2c:	b580      	push	{r7, lr}
 8000e2e:	af00      	add	r7, sp, #0
 8000e30:	4b1f      	ldr	r3, [pc, #124]	@ (8000eb0 <MX_FDCAN1_Init+0x84>)
 8000e32:	4a20      	ldr	r2, [pc, #128]	@ (8000eb4 <MX_FDCAN1_Init+0x88>)
 8000e34:	601a      	str	r2, [r3, #0]
 8000e36:	4b1e      	ldr	r3, [pc, #120]	@ (8000eb0 <MX_FDCAN1_Init+0x84>)
 8000e38:	2200      	movs	r2, #0
 8000e3a:	605a      	str	r2, [r3, #4]
 8000e3c:	4b1c      	ldr	r3, [pc, #112]	@ (8000eb0 <MX_FDCAN1_Init+0x84>)
 8000e3e:	2200      	movs	r2, #0
 8000e40:	609a      	str	r2, [r3, #8]
 8000e42:	4b1b      	ldr	r3, [pc, #108]	@ (8000eb0 <MX_FDCAN1_Init+0x84>)
 8000e44:	2200      	movs	r2, #0
 8000e46:	60da      	str	r2, [r3, #12]
 8000e48:	4b19      	ldr	r3, [pc, #100]	@ (8000eb0 <MX_FDCAN1_Init+0x84>)
 8000e4a:	2200      	movs	r2, #0
 8000e4c:	741a      	strb	r2, [r3, #16]
 8000e4e:	4b18      	ldr	r3, [pc, #96]	@ (8000eb0 <MX_FDCAN1_Init+0x84>)
 8000e50:	2200      	movs	r2, #0
 8000e52:	745a      	strb	r2, [r3, #17]
 8000e54:	4b16      	ldr	r3, [pc, #88]	@ (8000eb0 <MX_FDCAN1_Init+0x84>)
 8000e56:	2200      	movs	r2, #0
 8000e58:	749a      	strb	r2, [r3, #18]
 8000e5a:	4b15      	ldr	r3, [pc, #84]	@ (8000eb0 <MX_FDCAN1_Init+0x84>)
 8000e5c:	2210      	movs	r2, #16
 8000e5e:	615a      	str	r2, [r3, #20]
 8000e60:	4b13      	ldr	r3, [pc, #76]	@ (8000eb0 <MX_FDCAN1_Init+0x84>)
 8000e62:	2201      	movs	r2, #1
 8000e64:	619a      	str	r2, [r3, #24]
 8000e66:	4b12      	ldr	r3, [pc, #72]	@ (8000eb0 <MX_FDCAN1_Init+0x84>)
 8000e68:	2201      	movs	r2, #1
 8000e6a:	61da      	str	r2, [r3, #28]
 8000e6c:	4b10      	ldr	r3, [pc, #64]	@ (8000eb0 <MX_FDCAN1_Init+0x84>)
 8000e6e:	2201      	movs	r2, #1
 8000e70:	621a      	str	r2, [r3, #32]
 8000e72:	4b0f      	ldr	r3, [pc, #60]	@ (8000eb0 <MX_FDCAN1_Init+0x84>)
 8000e74:	2201      	movs	r2, #1
 8000e76:	625a      	str	r2, [r3, #36]	@ 0x24
 8000e78:	4b0d      	ldr	r3, [pc, #52]	@ (8000eb0 <MX_FDCAN1_Init+0x84>)
 8000e7a:	2201      	movs	r2, #1
 8000e7c:	629a      	str	r2, [r3, #40]	@ 0x28
 8000e7e:	4b0c      	ldr	r3, [pc, #48]	@ (8000eb0 <MX_FDCAN1_Init+0x84>)
 8000e80:	2201      	movs	r2, #1
 8000e82:	62da      	str	r2, [r3, #44]	@ 0x2c
 8000e84:	4b0a      	ldr	r3, [pc, #40]	@ (8000eb0 <MX_FDCAN1_Init+0x84>)
 8000e86:	2201      	movs	r2, #1
 8000e88:	631a      	str	r2, [r3, #48]	@ 0x30
 8000e8a:	4b09      	ldr	r3, [pc, #36]	@ (8000eb0 <MX_FDCAN1_Init+0x84>)
 8000e8c:	2200      	movs	r2, #0
 8000e8e:	635a      	str	r2, [r3, #52]	@ 0x34
 8000e90:	4b07      	ldr	r3, [pc, #28]	@ (8000eb0 <MX_FDCAN1_Init+0x84>)
 8000e92:	2200      	movs	r2, #0
 8000e94:	639a      	str	r2, [r3, #56]	@ 0x38
 8000e96:	4b06      	ldr	r3, [pc, #24]	@ (8000eb0 <MX_FDCAN1_Init+0x84>)
 8000e98:	2200      	movs	r2, #0
 8000e9a:	63da      	str	r2, [r3, #60]	@ 0x3c
 8000e9c:	4804      	ldr	r0, [pc, #16]	@ (8000eb0 <MX_FDCAN1_Init+0x84>)
 8000e9e:	f000 fe8b 	bl	8001bb8 <HAL_FDCAN_Init>
 8000ea2:	4603      	mov	r3, r0
 8000ea4:	2b00      	cmp	r3, #0
 8000ea6:	d001      	beq.n	8000eac <MX_FDCAN1_Init+0x80>
 8000ea8:	f000 f9e2 	bl	8001270 <Error_Handler>
 8000eac:	bf00      	nop
 8000eae:	bd80      	pop	{r7, pc}
 8000eb0:	200003e4 	.word	0x200003e4
 8000eb4:	40006400 	.word	0x40006400

08000eb8 <HAL_FDCAN_MspInit>:
 8000eb8:	b580      	push	{r7, lr}
 8000eba:	b09e      	sub	sp, #120	@ 0x78
 8000ebc:	af00      	add	r7, sp, #0
 8000ebe:	6078      	str	r0, [r7, #4]
 8000ec0:	f107 0364 	add.w	r3, r7, #100	@ 0x64
 8000ec4:	2200      	movs	r2, #0
 8000ec6:	601a      	str	r2, [r3, #0]
 8000ec8:	605a      	str	r2, [r3, #4]
 8000eca:	609a      	str	r2, [r3, #8]
 8000ecc:	60da      	str	r2, [r3, #12]
 8000ece:	611a      	str	r2, [r3, #16]
 8000ed0:	f107 0314 	add.w	r3, r7, #20
 8000ed4:	2250      	movs	r2, #80	@ 0x50
 8000ed6:	2100      	movs	r1, #0
 8000ed8:	4618      	mov	r0, r3
 8000eda:	f005 f83d 	bl	8005f58 <memset>
 8000ede:	687b      	ldr	r3, [r7, #4]
 8000ee0:	681b      	ldr	r3, [r3, #0]
 8000ee2:	4a20      	ldr	r2, [pc, #128]	@ (8000f64 <HAL_FDCAN_MspInit+0xac>)
 8000ee4:	4293      	cmp	r3, r2
 8000ee6:	d139      	bne.n	8000f5c <HAL_FDCAN_MspInit+0xa4>
 8000ee8:	f44f 5380 	mov.w	r3, #4096	@ 0x1000
 8000eec:	617b      	str	r3, [r7, #20]
 8000eee:	f04f 7300 	mov.w	r3, #33554432	@ 0x2000000
 8000ef2:	64bb      	str	r3, [r7, #72]	@ 0x48
 8000ef4:	f107 0314 	add.w	r3, r7, #20
 8000ef8:	4618      	mov	r0, r3
 8000efa:	f003 f99f 	bl	800423c <HAL_RCCEx_PeriphCLKConfig>
 8000efe:	4603      	mov	r3, r0
 8000f00:	2b00      	cmp	r3, #0
 8000f02:	d001      	beq.n	8000f08 <HAL_FDCAN_MspInit+0x50>
 8000f04:	f000 f9b4 	bl	8001270 <Error_Handler>
 8000f08:	4b17      	ldr	r3, [pc, #92]	@ (8000f68 <HAL_FDCAN_MspInit+0xb0>)
 8000f0a:	6d9b      	ldr	r3, [r3, #88]	@ 0x58
 8000f0c:	4a16      	ldr	r2, [pc, #88]	@ (8000f68 <HAL_FDCAN_MspInit+0xb0>)
 8000f0e:	f043 7300 	orr.w	r3, r3, #33554432	@ 0x2000000
 8000f12:	6593      	str	r3, [r2, #88]	@ 0x58
 8000f14:	4b14      	ldr	r3, [pc, #80]	@ (8000f68 <HAL_FDCAN_MspInit+0xb0>)
 8000f16:	6d9b      	ldr	r3, [r3, #88]	@ 0x58
 8000f18:	f003 7300 	and.w	r3, r3, #33554432	@ 0x2000000
 8000f1c:	613b      	str	r3, [r7, #16]
 8000f1e:	693b      	ldr	r3, [r7, #16]
 8000f20:	4b11      	ldr	r3, [pc, #68]	@ (8000f68 <HAL_FDCAN_MspInit+0xb0>)
 8000f22:	6cdb      	ldr	r3, [r3, #76]	@ 0x4c
 8000f24:	4a10      	ldr	r2, [pc, #64]	@ (8000f68 <HAL_FDCAN_MspInit+0xb0>)
 8000f26:	f043 0301 	orr.w	r3, r3, #1
 8000f2a:	64d3      	str	r3, [r2, #76]	@ 0x4c
 8000f2c:	4b0e      	ldr	r3, [pc, #56]	@ (8000f68 <HAL_FDCAN_MspInit+0xb0>)
 8000f2e:	6cdb      	ldr	r3, [r3, #76]	@ 0x4c
 8000f30:	f003 0301 	and.w	r3, r3, #1
 8000f34:	60fb      	str	r3, [r7, #12]
 8000f36:	68fb      	ldr	r3, [r7, #12]
 8000f38:	f44f 53c0 	mov.w	r3, #6144	@ 0x1800
 8000f3c:	667b      	str	r3, [r7, #100]	@ 0x64
 8000f3e:	2302      	movs	r3, #2
 8000f40:	66bb      	str	r3, [r7, #104]	@ 0x68
 8000f42:	2300      	movs	r3, #0
 8000f44:	66fb      	str	r3, [r7, #108]	@ 0x6c
 8000f46:	2300      	movs	r3, #0
 8000f48:	673b      	str	r3, [r7, #112]	@ 0x70
 8000f4a:	2309      	movs	r3, #9
 8000f4c:	677b      	str	r3, [r7, #116]	@ 0x74
 8000f4e:	f107 0364 	add.w	r3, r7, #100	@ 0x64
 8000f52:	4619      	mov	r1, r3
 8000f54:	f04f 4090 	mov.w	r0, #1207959552	@ 0x48000000
 8000f58:	f001 fab8 	bl	80024cc <HAL_GPIO_Init>
 8000f5c:	bf00      	nop
 8000f5e:	3778      	adds	r7, #120	@ 0x78
 8000f60:	46bd      	mov	sp, r7
 8000f62:	bd80      	pop	{r7, pc}
 8000f64:	40006400 	.word	0x40006400
 8000f68:	40021000 	.word	0x40021000

08000f6c <MX_GPIO_Init>:
        * Output
        * EVENT_OUT
        * EXTI
*/
void MX_GPIO_Init(void)
{
 8000f6c:	b580      	push	{r7, lr}
 8000f6e:	b088      	sub	sp, #32
 8000f70:	af00      	add	r7, sp, #0

  GPIO_InitTypeDef GPIO_InitStruct = {0};
 8000f72:	f107 030c 	add.w	r3, r7, #12
 8000f76:	2200      	movs	r2, #0
 8000f78:	601a      	str	r2, [r3, #0]
 8000f7a:	605a      	str	r2, [r3, #4]
 8000f7c:	609a      	str	r2, [r3, #8]
 8000f7e:	60da      	str	r2, [r3, #12]
 8000f80:	611a      	str	r2, [r3, #16]

  /* GPIO Ports Clock Enable */
  __HAL_RCC_GPIOA_CLK_ENABLE();
 8000f82:	4b19      	ldr	r3, [pc, #100]	@ (8000fe8 <MX_GPIO_Init+0x7c>)
 8000f84:	6cdb      	ldr	r3, [r3, #76]	@ 0x4c
 8000f86:	4a18      	ldr	r2, [pc, #96]	@ (8000fe8 <MX_GPIO_Init+0x7c>)
 8000f88:	f043 0301 	orr.w	r3, r3, #1
 8000f8c:	64d3      	str	r3, [r2, #76]	@ 0x4c
 8000f8e:	4b16      	ldr	r3, [pc, #88]	@ (8000fe8 <MX_GPIO_Init+0x7c>)
 8000f90:	6cdb      	ldr	r3, [r3, #76]	@ 0x4c
 8000f92:	f003 0301 	and.w	r3, r3, #1
 8000f96:	60bb      	str	r3, [r7, #8]
 8000f98:	68bb      	ldr	r3, [r7, #8]
  __HAL_RCC_GPIOB_CLK_ENABLE();
 8000f9a:	4b13      	ldr	r3, [pc, #76]	@ (8000fe8 <MX_GPIO_Init+0x7c>)
 8000f9c:	6cdb      	ldr	r3, [r3, #76]	@ 0x4c
 8000f9e:	4a12      	ldr	r2, [pc, #72]	@ (8000fe8 <MX_GPIO_Init+0x7c>)
 8000fa0:	f043 0302 	orr.w	r3, r3, #2
 8000fa4:	64d3      	str	r3, [r2, #76]	@ 0x4c
 8000fa6:	4b10      	ldr	r3, [pc, #64]	@ (8000fe8 <MX_GPIO_Init+0x7c>)
 8000fa8:	6cdb      	ldr	r3, [r3, #76]	@ 0x4c
 8000faa:	f003 0302 	and.w	r3, r3, #2
 8000fae:	607b      	str	r3, [r7, #4]
 8000fb0:	687b      	ldr	r3, [r7, #4]

  /*Configure GPIO pin : PA4 */
  GPIO_InitStruct.Pin = GPIO_PIN_4;
 8000fb2:	2310      	movs	r3, #16
 8000fb4:	60fb      	str	r3, [r7, #12]
  GPIO_InitStruct.Mode = GPIO_MODE_IT_FALLING;
 8000fb6:	f44f 1304 	mov.w	r3, #2162688	@ 0x210000
 8000fba:	613b      	str	r3, [r7, #16]
  GPIO_InitStruct.Pull = GPIO_NOPULL;
 8000fbc:	2300      	movs	r3, #0
 8000fbe:	617b      	str	r3, [r7, #20]
  HAL_GPIO_Init(GPIOA, &GPIO_InitStruct);
 8000fc0:	f107 030c 	add.w	r3, r7, #12
 8000fc4:	4619      	mov	r1, r3
 8000fc6:	f04f 4090 	mov.w	r0, #1207959552	@ 0x48000000
 8000fca:	f001 fa7f 	bl	80024cc <HAL_GPIO_Init>

  /* EXTI interrupt init*/
  HAL_NVIC_SetPriority(EXTI4_IRQn, 0, 0);
 8000fce:	2200      	movs	r2, #0
 8000fd0:	2100      	movs	r1, #0
 8000fd2:	200a      	movs	r0, #10
 8000fd4:	f000 fdbb 	bl	8001b4e <HAL_NVIC_SetPriority>
  HAL_NVIC_EnableIRQ(EXTI4_IRQn);
 8000fd8:	200a      	movs	r0, #10
 8000fda:	f000 fdd2 	bl	8001b82 <HAL_NVIC_EnableIRQ>

}
 8000fde:	bf00      	nop
 8000fe0:	3720      	adds	r7, #32
 8000fe2:	46bd      	mov	sp, r7
 8000fe4:	bd80      	pop	{r7, pc}
 8000fe6:	bf00      	nop
 8000fe8:	40021000 	.word	0x40021000

08000fec <HAL_GPIO_EXTI_Callback>:

/* USER CODE BEGIN 2 */
extern bool data_ready;
void HAL_GPIO_EXTI_Callback(uint16_t GPIO_Pin){
 8000fec:	b480      	push	{r7}
 8000fee:	b083      	sub	sp, #12
 8000ff0:	af00      	add	r7, sp, #0
 8000ff2:	4603      	mov	r3, r0
 8000ff4:	80fb      	strh	r3, [r7, #6]
	if (GPIO_Pin == GPIO_PIN_4){
 8000ff6:	88fb      	ldrh	r3, [r7, #6]
 8000ff8:	2b10      	cmp	r3, #16
 8000ffa:	d102      	bne.n	8001002 <HAL_GPIO_EXTI_Callback+0x16>
		data_ready = 1;
 8000ffc:	4b04      	ldr	r3, [pc, #16]	@ (8001010 <HAL_GPIO_EXTI_Callback+0x24>)
 8000ffe:	2201      	movs	r2, #1
 8001000:	701a      	strb	r2, [r3, #0]
	}

}
 8001002:	bf00      	nop
 8001004:	370c      	adds	r7, #12
 8001006:	46bd      	mov	sp, r7
 8001008:	f85d 7b04 	ldr.w	r7, [sp], #4
 800100c:	4770      	bx	lr
 800100e:	bf00      	nop
 8001010:	2000049c 	.word	0x2000049c

08001014 <MX_I2C2_Init>:
 8001014:	b580      	push	{r7, lr}
 8001016:	af00      	add	r7, sp, #0
 8001018:	4b1b      	ldr	r3, [pc, #108]	@ (8001088 <MX_I2C2_Init+0x74>)
 800101a:	4a1c      	ldr	r2, [pc, #112]	@ (800108c <MX_I2C2_Init+0x78>)
 800101c:	601a      	str	r2, [r3, #0]
 800101e:	4b1a      	ldr	r3, [pc, #104]	@ (8001088 <MX_I2C2_Init+0x74>)
 8001020:	4a1b      	ldr	r2, [pc, #108]	@ (8001090 <MX_I2C2_Init+0x7c>)
 8001022:	605a      	str	r2, [r3, #4]
 8001024:	4b18      	ldr	r3, [pc, #96]	@ (8001088 <MX_I2C2_Init+0x74>)
 8001026:	2200      	movs	r2, #0
 8001028:	609a      	str	r2, [r3, #8]
 800102a:	4b17      	ldr	r3, [pc, #92]	@ (8001088 <MX_I2C2_Init+0x74>)
 800102c:	2201      	movs	r2, #1
 800102e:	60da      	str	r2, [r3, #12]
 8001030:	4b15      	ldr	r3, [pc, #84]	@ (8001088 <MX_I2C2_Init+0x74>)
 8001032:	2200      	movs	r2, #0
 8001034:	611a      	str	r2, [r3, #16]
 8001036:	4b14      	ldr	r3, [pc, #80]	@ (8001088 <MX_I2C2_Init+0x74>)
 8001038:	2200      	movs	r2, #0
 800103a:	615a      	str	r2, [r3, #20]
 800103c:	4b12      	ldr	r3, [pc, #72]	@ (8001088 <MX_I2C2_Init+0x74>)
 800103e:	2200      	movs	r2, #0
 8001040:	619a      	str	r2, [r3, #24]
 8001042:	4b11      	ldr	r3, [pc, #68]	@ (8001088 <MX_I2C2_Init+0x74>)
 8001044:	2200      	movs	r2, #0
 8001046:	61da      	str	r2, [r3, #28]
 8001048:	4b0f      	ldr	r3, [pc, #60]	@ (8001088 <MX_I2C2_Init+0x74>)
 800104a:	2200      	movs	r2, #0
 800104c:	621a      	str	r2, [r3, #32]
 800104e:	480e      	ldr	r0, [pc, #56]	@ (8001088 <MX_I2C2_Init+0x74>)
 8001050:	f001 fbe0 	bl	8002814 <HAL_I2C_Init>
 8001054:	4603      	mov	r3, r0
 8001056:	2b00      	cmp	r3, #0
 8001058:	d001      	beq.n	800105e <MX_I2C2_Init+0x4a>
 800105a:	f000 f909 	bl	8001270 <Error_Handler>
 800105e:	2100      	movs	r1, #0
 8001060:	4809      	ldr	r0, [pc, #36]	@ (8001088 <MX_I2C2_Init+0x74>)
 8001062:	f002 fa71 	bl	8003548 <HAL_I2CEx_ConfigAnalogFilter>
 8001066:	4603      	mov	r3, r0
 8001068:	2b00      	cmp	r3, #0
 800106a:	d001      	beq.n	8001070 <MX_I2C2_Init+0x5c>
 800106c:	f000 f900 	bl	8001270 <Error_Handler>
 8001070:	2100      	movs	r1, #0
 8001072:	4805      	ldr	r0, [pc, #20]	@ (8001088 <MX_I2C2_Init+0x74>)
 8001074:	f002 fab3 	bl	80035de <HAL_I2CEx_ConfigDigitalFilter>
 8001078:	4603      	mov	r3, r0
 800107a:	2b00      	cmp	r3, #0
 800107c:	d001      	beq.n	8001082 <MX_I2C2_Init+0x6e>
 800107e:	f000 f8f7 	bl	8001270 <Error_Handler>
 8001082:	bf00      	nop
 8001084:	bd80      	pop	{r7, pc}
 8001086:	bf00      	nop
 8001088:	20000448 	.word	0x20000448
 800108c:	40005800 	.word	0x40005800
 8001090:	00503d58 	.word	0x00503d58

08001094 <HAL_I2C_MspInit>:
 8001094:	b580      	push	{r7, lr}
 8001096:	b09e      	sub	sp, #120	@ 0x78
 8001098:	af00      	add	r7, sp, #0
 800109a:	6078      	str	r0, [r7, #4]
 800109c:	f107 0364 	add.w	r3, r7, #100	@ 0x64
 80010a0:	2200      	movs	r2, #0
 80010a2:	601a      	str	r2, [r3, #0]
 80010a4:	605a      	str	r2, [r3, #4]
 80010a6:	609a      	str	r2, [r3, #8]
 80010a8:	60da      	str	r2, [r3, #12]
 80010aa:	611a      	str	r2, [r3, #16]
 80010ac:	f107 0314 	add.w	r3, r7, #20
 80010b0:	2250      	movs	r2, #80	@ 0x50
 80010b2:	2100      	movs	r1, #0
 80010b4:	4618      	mov	r0, r3
 80010b6:	f004 ff4f 	bl	8005f58 <memset>
 80010ba:	687b      	ldr	r3, [r7, #4]
 80010bc:	681b      	ldr	r3, [r3, #0]
 80010be:	4a23      	ldr	r2, [pc, #140]	@ (800114c <HAL_I2C_MspInit+0xb8>)
 80010c0:	4293      	cmp	r3, r2
 80010c2:	d13f      	bne.n	8001144 <HAL_I2C_MspInit+0xb0>
 80010c4:	2380      	movs	r3, #128	@ 0x80
 80010c6:	617b      	str	r3, [r7, #20]
 80010c8:	2300      	movs	r3, #0
 80010ca:	637b      	str	r3, [r7, #52]	@ 0x34
 80010cc:	f107 0314 	add.w	r3, r7, #20
 80010d0:	4618      	mov	r0, r3
 80010d2:	f003 f8b3 	bl	800423c <HAL_RCCEx_PeriphCLKConfig>
 80010d6:	4603      	mov	r3, r0
 80010d8:	2b00      	cmp	r3, #0
 80010da:	d001      	beq.n	80010e0 <HAL_I2C_MspInit+0x4c>
 80010dc:	f000 f8c8 	bl	8001270 <Error_Handler>
 80010e0:	4b1b      	ldr	r3, [pc, #108]	@ (8001150 <HAL_I2C_MspInit+0xbc>)
 80010e2:	6cdb      	ldr	r3, [r3, #76]	@ 0x4c
 80010e4:	4a1a      	ldr	r2, [pc, #104]	@ (8001150 <HAL_I2C_MspInit+0xbc>)
 80010e6:	f043 0301 	orr.w	r3, r3, #1
 80010ea:	64d3      	str	r3, [r2, #76]	@ 0x4c
 80010ec:	4b18      	ldr	r3, [pc, #96]	@ (8001150 <HAL_I2C_MspInit+0xbc>)
 80010ee:	6cdb      	ldr	r3, [r3, #76]	@ 0x4c
 80010f0:	f003 0301 	and.w	r3, r3, #1
 80010f4:	613b      	str	r3, [r7, #16]
 80010f6:	693b      	ldr	r3, [r7, #16]
 80010f8:	f44f 7340 	mov.w	r3, #768	@ 0x300
 80010fc:	667b      	str	r3, [r7, #100]	@ 0x64
 80010fe:	2312      	movs	r3, #18
 8001100:	66bb      	str	r3, [r7, #104]	@ 0x68
 8001102:	2300      	movs	r3, #0
 8001104:	66fb      	str	r3, [r7, #108]	@ 0x6c
 8001106:	2300      	movs	r3, #0
 8001108:	673b      	str	r3, [r7, #112]	@ 0x70
 800110a:	2304      	movs	r3, #4
 800110c:	677b      	str	r3, [r7, #116]	@ 0x74
 800110e:	f107 0364 	add.w	r3, r7, #100	@ 0x64
 8001112:	4619      	mov	r1, r3
 8001114:	f04f 4090 	mov.w	r0, #1207959552	@ 0x48000000
 8001118:	f001 f9d8 	bl	80024cc <HAL_GPIO_Init>
 800111c:	4b0c      	ldr	r3, [pc, #48]	@ (8001150 <HAL_I2C_MspInit+0xbc>)
 800111e:	6d9b      	ldr	r3, [r3, #88]	@ 0x58
 8001120:	4a0b      	ldr	r2, [pc, #44]	@ (8001150 <HAL_I2C_MspInit+0xbc>)
 8001122:	f443 0380 	orr.w	r3, r3, #4194304	@ 0x400000
 8001126:	6593      	str	r3, [r2, #88]	@ 0x58
 8001128:	4b09      	ldr	r3, [pc, #36]	@ (8001150 <HAL_I2C_MspInit+0xbc>)
 800112a:	6d9b      	ldr	r3, [r3, #88]	@ 0x58
 800112c:	f403 0380 	and.w	r3, r3, #4194304	@ 0x400000
 8001130:	60fb      	str	r3, [r7, #12]
 8001132:	68fb      	ldr	r3, [r7, #12]
 8001134:	2200      	movs	r2, #0
 8001136:	2100      	movs	r1, #0
 8001138:	2021      	movs	r0, #33	@ 0x21
 800113a:	f000 fd08 	bl	8001b4e <HAL_NVIC_SetPriority>
 800113e:	2021      	movs	r0, #33	@ 0x21
 8001140:	f000 fd1f 	bl	8001b82 <HAL_NVIC_EnableIRQ>
 8001144:	bf00      	nop
 8001146:	3778      	adds	r7, #120	@ 0x78
 8001148:	46bd      	mov	sp, r7
 800114a:	bd80      	pop	{r7, pc}
 800114c:	40005800 	.word	0x40005800
 8001150:	40021000 	.word	0x40021000

08001154 <main>:
/**
  * @brief  The application entry point.
  * @retval int
  */
int main(void)
{
 8001154:	b580      	push	{r7, lr}
 8001156:	af00      	add	r7, sp, #0
  /* USER CODE END 1 */

  /* MCU Configuration--------------------------------------------------------*/

  /* Reset of all peripherals, Initializes the Flash interface and the Systick. */
  HAL_Init();
 8001158:	f000 fb8c 	bl	8001874 <HAL_Init>
  /* USER CODE BEGIN Init */

  /* USER CODE END Init */

  /* Configure the system clock */
  SystemClock_Config();
 800115c:	f000 f848 	bl	80011f0 <SystemClock_Config>
  /* USER CODE BEGIN SysInit */

  /* USER CODE END SysInit */

  /* Initialize all configured peripherals */
  MX_GPIO_Init();
 8001160:	f7ff ff04 	bl	8000f6c <MX_GPIO_Init>
  MX_FDCAN1_Init();
 8001164:	f7ff fe62 	bl	8000e2c <MX_FDCAN1_Init>
  MX_I2C2_Init();
 8001168:	f7ff ff54 	bl	8001014 <MX_I2C2_Init>
  MX_USART1_UART_Init();
 800116c:	f000 f998 	bl	80014a0 <MX_USART1_UART_Init>
  /* USER CODE BEGIN 2 */
  while (!initializeCAN()){ ; //init fdcan peripheral, keep trying until it works
 8001170:	e005      	b.n	800117e <main+0x2a>
  	  printf("Fdcan init failed\r\n");
 8001172:	481a      	ldr	r0, [pc, #104]	@ (80011dc <main+0x88>)
 8001174:	f004 fe10 	bl	8005d98 <puts>
  	  HAL_Delay(20);
 8001178:	2014      	movs	r0, #20
 800117a:	f000 fbeb 	bl	8001954 <HAL_Delay>
  while (!initializeCAN()){ ; //init fdcan peripheral, keep trying until it works
 800117e:	f7ff fa35 	bl	80005ec <initializeCAN>
 8001182:	4603      	mov	r3, r0
 8001184:	f083 0301 	eor.w	r3, r3, #1
 8001188:	b2db      	uxtb	r3, r3
 800118a:	2b00      	cmp	r3, #0
 800118c:	d1f1      	bne.n	8001172 <main+0x1e>
  }

  if (HAL_I2C_IsDeviceReady(&hi2c2, DEVICE_INSTANCE, 3, 100) != HAL_OK)
 800118e:	2364      	movs	r3, #100	@ 0x64
 8001190:	2203      	movs	r2, #3
 8001192:	2152      	movs	r1, #82	@ 0x52
 8001194:	4812      	ldr	r0, [pc, #72]	@ (80011e0 <main+0x8c>)
 8001196:	f001 fe07 	bl	8002da8 <HAL_I2C_IsDeviceReady>
 800119a:	4603      	mov	r3, r0
 800119c:	2b00      	cmp	r3, #0
 800119e:	d007      	beq.n	80011b0 <main+0x5c>
  {
      while (1)
      {
          __WFI();
 80011a0:	bf30      	wfi
 80011a2:	e7fd      	b.n	80011a0 <main+0x4c>
      }
  }
  while (!sensor_start()){
	  printf("Sensor not started"); //start the sensor
 80011a4:	480f      	ldr	r0, [pc, #60]	@ (80011e4 <main+0x90>)
 80011a6:	f004 fd8f 	bl	8005cc8 <iprintf>
	  HAL_Delay(20);
 80011aa:	2014      	movs	r0, #20
 80011ac:	f000 fbd2 	bl	8001954 <HAL_Delay>
  while (!sensor_start()){
 80011b0:	f7ff fa76 	bl	80006a0 <sensor_start>
 80011b4:	4603      	mov	r3, r0
 80011b6:	f083 0301 	eor.w	r3, r3, #1
 80011ba:	b2db      	uxtb	r3, r3
 80011bc:	2b00      	cmp	r3, #0
 80011be:	d1f1      	bne.n	80011a4 <main+0x50>
  }
  printf("Sensor started\r\n");
 80011c0:	4809      	ldr	r0, [pc, #36]	@ (80011e8 <main+0x94>)
 80011c2:	f004 fde9 	bl	8005d98 <puts>

  /* Infinite loop */
  /* USER CODE BEGIN WHILE */
  while (1)
  {
	  if (data_ready){
 80011c6:	4b09      	ldr	r3, [pc, #36]	@ (80011ec <main+0x98>)
 80011c8:	781b      	ldrb	r3, [r3, #0]
 80011ca:	2b00      	cmp	r3, #0
 80011cc:	d0fb      	beq.n	80011c6 <main+0x72>
		  data_ready = 0;
 80011ce:	4b07      	ldr	r3, [pc, #28]	@ (80011ec <main+0x98>)
 80011d0:	2200      	movs	r2, #0
 80011d2:	701a      	strb	r2, [r3, #0]
		  get_data_it();
 80011d4:	f7ff fa7a 	bl	80006cc <get_data_it>
	  if (data_ready){
 80011d8:	e7f5      	b.n	80011c6 <main+0x72>
 80011da:	bf00      	nop
 80011dc:	08006cf4 	.word	0x08006cf4
 80011e0:	20000448 	.word	0x20000448
 80011e4:	08006d08 	.word	0x08006d08
 80011e8:	08006d1c 	.word	0x08006d1c
 80011ec:	2000049c 	.word	0x2000049c

080011f0 <SystemClock_Config>:
/**
  * @brief System Clock Configuration
  * @retval None
  */
void SystemClock_Config(void)
{
 80011f0:	b580      	push	{r7, lr}
 80011f2:	b094      	sub	sp, #80	@ 0x50
 80011f4:	af00      	add	r7, sp, #0
  RCC_OscInitTypeDef RCC_OscInitStruct = {0};
 80011f6:	f107 0318 	add.w	r3, r7, #24
 80011fa:	2238      	movs	r2, #56	@ 0x38
 80011fc:	2100      	movs	r1, #0
 80011fe:	4618      	mov	r0, r3
 8001200:	f004 feaa 	bl	8005f58 <memset>
  RCC_ClkInitTypeDef RCC_ClkInitStruct = {0};
 8001204:	1d3b      	adds	r3, r7, #4
 8001206:	2200      	movs	r2, #0
 8001208:	601a      	str	r2, [r3, #0]
 800120a:	605a      	str	r2, [r3, #4]
 800120c:	609a      	str	r2, [r3, #8]
 800120e:	60da      	str	r2, [r3, #12]
 8001210:	611a      	str	r2, [r3, #16]

  /** Configure the main internal regulator output voltage
  */
  HAL_PWREx_ControlVoltageScaling(PWR_REGULATOR_VOLTAGE_SCALE1);
 8001212:	f44f 7000 	mov.w	r0, #512	@ 0x200
 8001216:	f002 fa2f 	bl	8003678 <HAL_PWREx_ControlVoltageScaling>

  /** Initializes the RCC Oscillators according to the specified parameters
  * in the RCC_OscInitTypeDef structure.
  */
  RCC_OscInitStruct.OscillatorType = RCC_OSCILLATORTYPE_HSI;
 800121a:	2302      	movs	r3, #2
 800121c:	61bb      	str	r3, [r7, #24]
  RCC_OscInitStruct.HSIState = RCC_HSI_ON;
 800121e:	f44f 7380 	mov.w	r3, #256	@ 0x100
 8001222:	627b      	str	r3, [r7, #36]	@ 0x24
  RCC_OscInitStruct.HSICalibrationValue = RCC_HSICALIBRATION_DEFAULT;
 8001224:	2340      	movs	r3, #64	@ 0x40
 8001226:	62bb      	str	r3, [r7, #40]	@ 0x28
  RCC_OscInitStruct.PLL.PLLState = RCC_PLL_NONE;
 8001228:	2300      	movs	r3, #0
 800122a:	637b      	str	r3, [r7, #52]	@ 0x34
  if (HAL_RCC_OscConfig(&RCC_OscInitStruct) != HAL_OK)
 800122c:	f107 0318 	add.w	r3, r7, #24
 8001230:	4618      	mov	r0, r3
 8001232:	f002 fad5 	bl	80037e0 <HAL_RCC_OscConfig>
 8001236:	4603      	mov	r3, r0
 8001238:	2b00      	cmp	r3, #0
 800123a:	d001      	beq.n	8001240 <SystemClock_Config+0x50>
  {
    Error_Handler();
 800123c:	f000 f818 	bl	8001270 <Error_Handler>
  }

  /** Initializes the CPU, AHB and APB buses clocks
  */
  RCC_ClkInitStruct.ClockType = RCC_CLOCKTYPE_HCLK|RCC_CLOCKTYPE_SYSCLK
 8001240:	230f      	movs	r3, #15
 8001242:	607b      	str	r3, [r7, #4]
                              |RCC_CLOCKTYPE_PCLK1|RCC_CLOCKTYPE_PCLK2;
  RCC_ClkInitStruct.SYSCLKSource = RCC_SYSCLKSOURCE_HSI;
 8001244:	2301      	movs	r3, #1
 8001246:	60bb      	str	r3, [r7, #8]
  RCC_ClkInitStruct.AHBCLKDivider = RCC_SYSCLK_DIV1;
 8001248:	2300      	movs	r3, #0
 800124a:	60fb      	str	r3, [r7, #12]
  RCC_ClkInitStruct.APB1CLKDivider = RCC_HCLK_DIV1;
 800124c:	2300      	movs	r3, #0
 800124e:	613b      	str	r3, [r7, #16]
  RCC_ClkInitStruct.APB2CLKDivider = RCC_HCLK_DIV1;
 8001250:	2300      	movs	r3, #0
 8001252:	617b      	str	r3, [r7, #20]

  if (HAL_RCC_ClockConfig(&RCC_ClkInitStruct, FLASH_LATENCY_0) != HAL_OK)
 8001254:	1d3b      	adds	r3, r7, #4
 8001256:	2100      	movs	r1, #0
 8001258:	4618      	mov	r0, r3
 800125a:	f002 fdd3 	bl	8003e04 <HAL_RCC_ClockConfig>
 800125e:	4603      	mov	r3, r0
 8001260:	2b00      	cmp	r3, #0
 8001262:	d001      	beq.n	8001268 <SystemClock_Config+0x78>
  {
    Error_Handler();
 8001264:	f000 f804 	bl	8001270 <Error_Handler>
  }
}
 8001268:	bf00      	nop
 800126a:	3750      	adds	r7, #80	@ 0x50
 800126c:	46bd      	mov	sp, r7
 800126e:	bd80      	pop	{r7, pc}

08001270 <Error_Handler>:
/**
  * @brief  This function is executed in case of error occurrence.
  * @retval None
  */
void Error_Handler(void)
{
 8001270:	b480      	push	{r7}
 8001272:	af00      	add	r7, sp, #0
  \details Disables IRQ interrupts by setting the I-bit in the CPSR.
           Can only be executed in Privileged modes.
 */
__STATIC_FORCEINLINE void __disable_irq(void)
{
  __ASM volatile ("cpsid i" : : : "memory");
 8001274:	b672      	cpsid	i
}
 8001276:	bf00      	nop
  /* USER CODE BEGIN Error_Handler_Debug */
  /* User can add his own implementation to report the HAL error return state */
  __disable_irq();
  while (1)
 8001278:	bf00      	nop
 800127a:	e7fd      	b.n	8001278 <Error_Handler+0x8>

0800127c <HAL_MspInit>:
 800127c:	b580      	push	{r7, lr}
 800127e:	b082      	sub	sp, #8
 8001280:	af00      	add	r7, sp, #0
 8001282:	4b0f      	ldr	r3, [pc, #60]	@ (80012c0 <HAL_MspInit+0x44>)
 8001284:	6e1b      	ldr	r3, [r3, #96]	@ 0x60
 8001286:	4a0e      	ldr	r2, [pc, #56]	@ (80012c0 <HAL_MspInit+0x44>)
 8001288:	f043 0301 	orr.w	r3, r3, #1
 800128c:	6613      	str	r3, [r2, #96]	@ 0x60
 800128e:	4b0c      	ldr	r3, [pc, #48]	@ (80012c0 <HAL_MspInit+0x44>)
 8001290:	6e1b      	ldr	r3, [r3, #96]	@ 0x60
 8001292:	f003 0301 	and.w	r3, r3, #1
 8001296:	607b      	str	r3, [r7, #4]
 8001298:	687b      	ldr	r3, [r7, #4]
 800129a:	4b09      	ldr	r3, [pc, #36]	@ (80012c0 <HAL_MspInit+0x44>)
 800129c:	6d9b      	ldr	r3, [r3, #88]	@ 0x58
 800129e:	4a08      	ldr	r2, [pc, #32]	@ (80012c0 <HAL_MspInit+0x44>)
 80012a0:	f043 5380 	orr.w	r3, r3, #268435456	@ 0x10000000
 80012a4:	6593      	str	r3, [r2, #88]	@ 0x58
 80012a6:	4b06      	ldr	r3, [pc, #24]	@ (80012c0 <HAL_MspInit+0x44>)
 80012a8:	6d9b      	ldr	r3, [r3, #88]	@ 0x58
 80012aa:	f003 5380 	and.w	r3, r3, #268435456	@ 0x10000000
 80012ae:	603b      	str	r3, [r7, #0]
 80012b0:	683b      	ldr	r3, [r7, #0]
 80012b2:	f002 fa85 	bl	80037c0 <HAL_PWREx_DisableUCPDDeadBattery>
 80012b6:	bf00      	nop
 80012b8:	3708      	adds	r7, #8
 80012ba:	46bd      	mov	sp, r7
 80012bc:	bd80      	pop	{r7, pc}
 80012be:	bf00      	nop
 80012c0:	40021000 	.word	0x40021000

080012c4 <NMI_Handler>:
 80012c4:	b480      	push	{r7}
 80012c6:	af00      	add	r7, sp, #0
 80012c8:	bf00      	nop
 80012ca:	e7fd      	b.n	80012c8 <NMI_Handler+0x4>

080012cc <HardFault_Handler>:
 80012cc:	b480      	push	{r7}
 80012ce:	af00      	add	r7, sp, #0
 80012d0:	bf00      	nop
 80012d2:	e7fd      	b.n	80012d0 <HardFault_Handler+0x4>

080012d4 <MemManage_Handler>:
 80012d4:	b480      	push	{r7}
 80012d6:	af00      	add	r7, sp, #0
 80012d8:	bf00      	nop
 80012da:	e7fd      	b.n	80012d8 <MemManage_Handler+0x4>

080012dc <BusFault_Handler>:
 80012dc:	b480      	push	{r7}
 80012de:	af00      	add	r7, sp, #0
 80012e0:	bf00      	nop
 80012e2:	e7fd      	b.n	80012e0 <BusFault_Handler+0x4>

080012e4 <UsageFault_Handler>:
 80012e4:	b480      	push	{r7}
 80012e6:	af00      	add	r7, sp, #0
 80012e8:	bf00      	nop
 80012ea:	e7fd      	b.n	80012e8 <UsageFault_Handler+0x4>

080012ec <SVC_Handler>:
 80012ec:	b480      	push	{r7}
 80012ee:	af00      	add	r7, sp, #0
 80012f0:	bf00      	nop
 80012f2:	46bd      	mov	sp, r7
 80012f4:	f85d 7b04 	ldr.w	r7, [sp], #4
 80012f8:	4770      	bx	lr

080012fa <DebugMon_Handler>:
 80012fa:	b480      	push	{r7}
 80012fc:	af00      	add	r7, sp, #0
 80012fe:	bf00      	nop
 8001300:	46bd      	mov	sp, r7
 8001302:	f85d 7b04 	ldr.w	r7, [sp], #4
 8001306:	4770      	bx	lr

08001308 <PendSV_Handler>:
 8001308:	b480      	push	{r7}
 800130a:	af00      	add	r7, sp, #0
 800130c:	bf00      	nop
 800130e:	46bd      	mov	sp, r7
 8001310:	f85d 7b04 	ldr.w	r7, [sp], #4
 8001314:	4770      	bx	lr

08001316 <SysTick_Handler>:
 8001316:	b580      	push	{r7, lr}
 8001318:	af00      	add	r7, sp, #0
 800131a:	f000 fafd 	bl	8001918 <HAL_IncTick>
 800131e:	bf00      	nop
 8001320:	bd80      	pop	{r7, pc}

08001322 <EXTI4_IRQHandler>:
 8001322:	b580      	push	{r7, lr}
 8001324:	af00      	add	r7, sp, #0
 8001326:	2010      	movs	r0, #16
 8001328:	f001 fa5c 	bl	80027e4 <HAL_GPIO_EXTI_IRQHandler>
 800132c:	bf00      	nop
 800132e:	bd80      	pop	{r7, pc}

08001330 <I2C2_EV_IRQHandler>:
 8001330:	b580      	push	{r7, lr}
 8001332:	af00      	add	r7, sp, #0
 8001334:	4802      	ldr	r0, [pc, #8]	@ (8001340 <I2C2_EV_IRQHandler+0x10>)
 8001336:	f001 fe2b 	bl	8002f90 <HAL_I2C_EV_IRQHandler>
 800133a:	bf00      	nop
 800133c:	bd80      	pop	{r7, pc}
 800133e:	bf00      	nop
 8001340:	20000448 	.word	0x20000448

08001344 <_read>:
 8001344:	b580      	push	{r7, lr}
 8001346:	b086      	sub	sp, #24
 8001348:	af00      	add	r7, sp, #0
 800134a:	60f8      	str	r0, [r7, #12]
 800134c:	60b9      	str	r1, [r7, #8]
 800134e:	607a      	str	r2, [r7, #4]
 8001350:	2300      	movs	r3, #0
 8001352:	617b      	str	r3, [r7, #20]
 8001354:	e00a      	b.n	800136c <_read+0x28>
 8001356:	f3af 8000 	nop.w
 800135a:	4601      	mov	r1, r0
 800135c:	68bb      	ldr	r3, [r7, #8]
 800135e:	1c5a      	adds	r2, r3, #1
 8001360:	60ba      	str	r2, [r7, #8]
 8001362:	b2ca      	uxtb	r2, r1
 8001364:	701a      	strb	r2, [r3, #0]
 8001366:	697b      	ldr	r3, [r7, #20]
 8001368:	3301      	adds	r3, #1
 800136a:	617b      	str	r3, [r7, #20]
 800136c:	697a      	ldr	r2, [r7, #20]
 800136e:	687b      	ldr	r3, [r7, #4]
 8001370:	429a      	cmp	r2, r3
 8001372:	dbf0      	blt.n	8001356 <_read+0x12>
 8001374:	687b      	ldr	r3, [r7, #4]
 8001376:	4618      	mov	r0, r3
 8001378:	3718      	adds	r7, #24
 800137a:	46bd      	mov	sp, r7
 800137c:	bd80      	pop	{r7, pc}

0800137e <_close>:
 800137e:	b480      	push	{r7}
 8001380:	b083      	sub	sp, #12
 8001382:	af00      	add	r7, sp, #0
 8001384:	6078      	str	r0, [r7, #4]
 8001386:	f04f 33ff 	mov.w	r3, #4294967295
 800138a:	4618      	mov	r0, r3
 800138c:	370c      	adds	r7, #12
 800138e:	46bd      	mov	sp, r7
 8001390:	f85d 7b04 	ldr.w	r7, [sp], #4
 8001394:	4770      	bx	lr

08001396 <_fstat>:
 8001396:	b480      	push	{r7}
 8001398:	b083      	sub	sp, #12
 800139a:	af00      	add	r7, sp, #0
 800139c:	6078      	str	r0, [r7, #4]
 800139e:	6039      	str	r1, [r7, #0]
 80013a0:	683b      	ldr	r3, [r7, #0]
 80013a2:	f44f 5200 	mov.w	r2, #8192	@ 0x2000
 80013a6:	605a      	str	r2, [r3, #4]
 80013a8:	2300      	movs	r3, #0
 80013aa:	4618      	mov	r0, r3
 80013ac:	370c      	adds	r7, #12
 80013ae:	46bd      	mov	sp, r7
 80013b0:	f85d 7b04 	ldr.w	r7, [sp], #4
 80013b4:	4770      	bx	lr

080013b6 <_isatty>:
 80013b6:	b480      	push	{r7}
 80013b8:	b083      	sub	sp, #12
 80013ba:	af00      	add	r7, sp, #0
 80013bc:	6078      	str	r0, [r7, #4]
 80013be:	2301      	movs	r3, #1
 80013c0:	4618      	mov	r0, r3
 80013c2:	370c      	adds	r7, #12
 80013c4:	46bd      	mov	sp, r7
 80013c6:	f85d 7b04 	ldr.w	r7, [sp], #4
 80013ca:	4770      	bx	lr

080013cc <_lseek>:
 80013cc:	b480      	push	{r7}
 80013ce:	b085      	sub	sp, #20
 80013d0:	af00      	add	r7, sp, #0
 80013d2:	60f8      	str	r0, [r7, #12]
 80013d4:	60b9      	str	r1, [r7, #8]
 80013d6:	607a      	str	r2, [r7, #4]
 80013d8:	2300      	movs	r3, #0
 80013da:	4618      	mov	r0, r3
 80013dc:	3714      	adds	r7, #20
 80013de:	46bd      	mov	sp, r7
 80013e0:	f85d 7b04 	ldr.w	r7, [sp], #4
 80013e4:	4770      	bx	lr
	...

080013e8 <_write>:
 80013e8:	b580      	push	{r7, lr}
 80013ea:	b084      	sub	sp, #16
 80013ec:	af00      	add	r7, sp, #0
 80013ee:	60f8      	str	r0, [r7, #12]
 80013f0:	60b9      	str	r1, [r7, #8]
 80013f2:	607a      	str	r2, [r7, #4]
 80013f4:	687b      	ldr	r3, [r7, #4]
 80013f6:	b29a      	uxth	r2, r3
 80013f8:	2364      	movs	r3, #100	@ 0x64
 80013fa:	68b9      	ldr	r1, [r7, #8]
 80013fc:	4803      	ldr	r0, [pc, #12]	@ (800140c <_write+0x24>)
 80013fe:	f003 f9a9 	bl	8004754 <HAL_UART_Transmit>
 8001402:	687b      	ldr	r3, [r7, #4]
 8001404:	4618      	mov	r0, r3
 8001406:	3710      	adds	r7, #16
 8001408:	46bd      	mov	sp, r7
 800140a:	bd80      	pop	{r7, pc}
 800140c:	200004c0 	.word	0x200004c0

08001410 <_sbrk>:
 8001410:	b580      	push	{r7, lr}
 8001412:	b086      	sub	sp, #24
 8001414:	af00      	add	r7, sp, #0
 8001416:	6078      	str	r0, [r7, #4]
 8001418:	4a14      	ldr	r2, [pc, #80]	@ (800146c <_sbrk+0x5c>)
 800141a:	4b15      	ldr	r3, [pc, #84]	@ (8001470 <_sbrk+0x60>)
 800141c:	1ad3      	subs	r3, r2, r3
 800141e:	617b      	str	r3, [r7, #20]
 8001420:	697b      	ldr	r3, [r7, #20]
 8001422:	613b      	str	r3, [r7, #16]
 8001424:	4b13      	ldr	r3, [pc, #76]	@ (8001474 <_sbrk+0x64>)
 8001426:	681b      	ldr	r3, [r3, #0]
 8001428:	2b00      	cmp	r3, #0
 800142a:	d102      	bne.n	8001432 <_sbrk+0x22>
 800142c:	4b11      	ldr	r3, [pc, #68]	@ (8001474 <_sbrk+0x64>)
 800142e:	4a12      	ldr	r2, [pc, #72]	@ (8001478 <_sbrk+0x68>)
 8001430:	601a      	str	r2, [r3, #0]
 8001432:	4b10      	ldr	r3, [pc, #64]	@ (8001474 <_sbrk+0x64>)
 8001434:	681a      	ldr	r2, [r3, #0]
 8001436:	687b      	ldr	r3, [r7, #4]
 8001438:	4413      	add	r3, r2
 800143a:	693a      	ldr	r2, [r7, #16]
 800143c:	429a      	cmp	r2, r3
 800143e:	d207      	bcs.n	8001450 <_sbrk+0x40>
 8001440:	f004 fdd8 	bl	8005ff4 <__errno>
 8001444:	4603      	mov	r3, r0
 8001446:	220c      	movs	r2, #12
 8001448:	601a      	str	r2, [r3, #0]
 800144a:	f04f 33ff 	mov.w	r3, #4294967295
 800144e:	e009      	b.n	8001464 <_sbrk+0x54>
 8001450:	4b08      	ldr	r3, [pc, #32]	@ (8001474 <_sbrk+0x64>)
 8001452:	681b      	ldr	r3, [r3, #0]
 8001454:	60fb      	str	r3, [r7, #12]
 8001456:	4b07      	ldr	r3, [pc, #28]	@ (8001474 <_sbrk+0x64>)
 8001458:	681a      	ldr	r2, [r3, #0]
 800145a:	687b      	ldr	r3, [r7, #4]
 800145c:	4413      	add	r3, r2
 800145e:	4a05      	ldr	r2, [pc, #20]	@ (8001474 <_sbrk+0x64>)
 8001460:	6013      	str	r3, [r2, #0]
 8001462:	68fb      	ldr	r3, [r7, #12]
 8001464:	4618      	mov	r0, r3
 8001466:	3718      	adds	r7, #24
 8001468:	46bd      	mov	sp, r7
 800146a:	bd80      	pop	{r7, pc}
 800146c:	2001c000 	.word	0x2001c000
 8001470:	00000400 	.word	0x00000400
 8001474:	200004bc 	.word	0x200004bc
 8001478:	200006a8 	.word	0x200006a8

0800147c <SystemInit>:
 800147c:	b480      	push	{r7}
 800147e:	af00      	add	r7, sp, #0
 8001480:	4b06      	ldr	r3, [pc, #24]	@ (800149c <SystemInit+0x20>)
 8001482:	f8d3 3088 	ldr.w	r3, [r3, #136]	@ 0x88
 8001486:	4a05      	ldr	r2, [pc, #20]	@ (800149c <SystemInit+0x20>)
 8001488:	f443 0370 	orr.w	r3, r3, #15728640	@ 0xf00000
 800148c:	f8c2 3088 	str.w	r3, [r2, #136]	@ 0x88
 8001490:	bf00      	nop
 8001492:	46bd      	mov	sp, r7
 8001494:	f85d 7b04 	ldr.w	r7, [sp], #4
 8001498:	4770      	bx	lr
 800149a:	bf00      	nop
 800149c:	e000ed00 	.word	0xe000ed00

080014a0 <MX_USART1_UART_Init>:
 80014a0:	b580      	push	{r7, lr}
 80014a2:	af00      	add	r7, sp, #0
 80014a4:	4b22      	ldr	r3, [pc, #136]	@ (8001530 <MX_USART1_UART_Init+0x90>)
 80014a6:	4a23      	ldr	r2, [pc, #140]	@ (8001534 <MX_USART1_UART_Init+0x94>)
 80014a8:	601a      	str	r2, [r3, #0]
 80014aa:	4b21      	ldr	r3, [pc, #132]	@ (8001530 <MX_USART1_UART_Init+0x90>)
 80014ac:	f44f 32e1 	mov.w	r2, #115200	@ 0x1c200
 80014b0:	605a      	str	r2, [r3, #4]
 80014b2:	4b1f      	ldr	r3, [pc, #124]	@ (8001530 <MX_USART1_UART_Init+0x90>)
 80014b4:	2200      	movs	r2, #0
 80014b6:	609a      	str	r2, [r3, #8]
 80014b8:	4b1d      	ldr	r3, [pc, #116]	@ (8001530 <MX_USART1_UART_Init+0x90>)
 80014ba:	2200      	movs	r2, #0
 80014bc:	60da      	str	r2, [r3, #12]
 80014be:	4b1c      	ldr	r3, [pc, #112]	@ (8001530 <MX_USART1_UART_Init+0x90>)
 80014c0:	2200      	movs	r2, #0
 80014c2:	611a      	str	r2, [r3, #16]
 80014c4:	4b1a      	ldr	r3, [pc, #104]	@ (8001530 <MX_USART1_UART_Init+0x90>)
 80014c6:	220c      	movs	r2, #12
 80014c8:	615a      	str	r2, [r3, #20]
 80014ca:	4b19      	ldr	r3, [pc, #100]	@ (8001530 <MX_USART1_UART_Init+0x90>)
 80014cc:	2200      	movs	r2, #0
 80014ce:	619a      	str	r2, [r3, #24]
 80014d0:	4b17      	ldr	r3, [pc, #92]	@ (8001530 <MX_USART1_UART_Init+0x90>)
 80014d2:	2200      	movs	r2, #0
 80014d4:	61da      	str	r2, [r3, #28]
 80014d6:	4b16      	ldr	r3, [pc, #88]	@ (8001530 <MX_USART1_UART_Init+0x90>)
 80014d8:	2200      	movs	r2, #0
 80014da:	621a      	str	r2, [r3, #32]
 80014dc:	4b14      	ldr	r3, [pc, #80]	@ (8001530 <MX_USART1_UART_Init+0x90>)
 80014de:	2200      	movs	r2, #0
 80014e0:	625a      	str	r2, [r3, #36]	@ 0x24
 80014e2:	4b13      	ldr	r3, [pc, #76]	@ (8001530 <MX_USART1_UART_Init+0x90>)
 80014e4:	2200      	movs	r2, #0
 80014e6:	629a      	str	r2, [r3, #40]	@ 0x28
 80014e8:	4811      	ldr	r0, [pc, #68]	@ (8001530 <MX_USART1_UART_Init+0x90>)
 80014ea:	f003 f8e3 	bl	80046b4 <HAL_UART_Init>
 80014ee:	4603      	mov	r3, r0
 80014f0:	2b00      	cmp	r3, #0
 80014f2:	d001      	beq.n	80014f8 <MX_USART1_UART_Init+0x58>
 80014f4:	f7ff febc 	bl	8001270 <Error_Handler>
 80014f8:	2100      	movs	r1, #0
 80014fa:	480d      	ldr	r0, [pc, #52]	@ (8001530 <MX_USART1_UART_Init+0x90>)
 80014fc:	f003 ff18 	bl	8005330 <HAL_UARTEx_SetTxFifoThreshold>
 8001500:	4603      	mov	r3, r0
 8001502:	2b00      	cmp	r3, #0
 8001504:	d001      	beq.n	800150a <MX_USART1_UART_Init+0x6a>
 8001506:	f7ff feb3 	bl	8001270 <Error_Handler>
 800150a:	2100      	movs	r1, #0
 800150c:	4808      	ldr	r0, [pc, #32]	@ (8001530 <MX_USART1_UART_Init+0x90>)
 800150e:	f003 ff4d 	bl	80053ac <HAL_UARTEx_SetRxFifoThreshold>
 8001512:	4603      	mov	r3, r0
 8001514:	2b00      	cmp	r3, #0
 8001516:	d001      	beq.n	800151c <MX_USART1_UART_Init+0x7c>
 8001518:	f7ff feaa 	bl	8001270 <Error_Handler>
 800151c:	4804      	ldr	r0, [pc, #16]	@ (8001530 <MX_USART1_UART_Init+0x90>)
 800151e:	f003 fece 	bl	80052be <HAL_UARTEx_DisableFifoMode>
 8001522:	4603      	mov	r3, r0
 8001524:	2b00      	cmp	r3, #0
 8001526:	d001      	beq.n	800152c <MX_USART1_UART_Init+0x8c>
 8001528:	f7ff fea2 	bl	8001270 <Error_Handler>
 800152c:	bf00      	nop
 800152e:	bd80      	pop	{r7, pc}
 8001530:	200004c0 	.word	0x200004c0
 8001534:	40013800 	.word	0x40013800

08001538 <HAL_UART_MspInit>:
 8001538:	b580      	push	{r7, lr}
 800153a:	b09e      	sub	sp, #120	@ 0x78
 800153c:	af00      	add	r7, sp, #0
 800153e:	6078      	str	r0, [r7, #4]
 8001540:	f107 0364 	add.w	r3, r7, #100	@ 0x64
 8001544:	2200      	movs	r2, #0
 8001546:	601a      	str	r2, [r3, #0]
 8001548:	605a      	str	r2, [r3, #4]
 800154a:	609a      	str	r2, [r3, #8]
 800154c:	60da      	str	r2, [r3, #12]
 800154e:	611a      	str	r2, [r3, #16]
 8001550:	f107 0314 	add.w	r3, r7, #20
 8001554:	2250      	movs	r2, #80	@ 0x50
 8001556:	2100      	movs	r1, #0
 8001558:	4618      	mov	r0, r3
 800155a:	f004 fcfd 	bl	8005f58 <memset>
 800155e:	687b      	ldr	r3, [r7, #4]
 8001560:	681b      	ldr	r3, [r3, #0]
 8001562:	4a1e      	ldr	r2, [pc, #120]	@ (80015dc <HAL_UART_MspInit+0xa4>)
 8001564:	4293      	cmp	r3, r2
 8001566:	d135      	bne.n	80015d4 <HAL_UART_MspInit+0x9c>
 8001568:	2301      	movs	r3, #1
 800156a:	617b      	str	r3, [r7, #20]
 800156c:	2300      	movs	r3, #0
 800156e:	61bb      	str	r3, [r7, #24]
 8001570:	f107 0314 	add.w	r3, r7, #20
 8001574:	4618      	mov	r0, r3
 8001576:	f002 fe61 	bl	800423c <HAL_RCCEx_PeriphCLKConfig>
 800157a:	4603      	mov	r3, r0
 800157c:	2b00      	cmp	r3, #0
 800157e:	d001      	beq.n	8001584 <HAL_UART_MspInit+0x4c>
 8001580:	f7ff fe76 	bl	8001270 <Error_Handler>
 8001584:	4b16      	ldr	r3, [pc, #88]	@ (80015e0 <HAL_UART_MspInit+0xa8>)
 8001586:	6e1b      	ldr	r3, [r3, #96]	@ 0x60
 8001588:	4a15      	ldr	r2, [pc, #84]	@ (80015e0 <HAL_UART_MspInit+0xa8>)
 800158a:	f443 4380 	orr.w	r3, r3, #16384	@ 0x4000
 800158e:	6613      	str	r3, [r2, #96]	@ 0x60
 8001590:	4b13      	ldr	r3, [pc, #76]	@ (80015e0 <HAL_UART_MspInit+0xa8>)
 8001592:	6e1b      	ldr	r3, [r3, #96]	@ 0x60
 8001594:	f403 4380 	and.w	r3, r3, #16384	@ 0x4000
 8001598:	613b      	str	r3, [r7, #16]
 800159a:	693b      	ldr	r3, [r7, #16]
 800159c:	4b10      	ldr	r3, [pc, #64]	@ (80015e0 <HAL_UART_MspInit+0xa8>)
 800159e:	6cdb      	ldr	r3, [r3, #76]	@ 0x4c
 80015a0:	4a0f      	ldr	r2, [pc, #60]	@ (80015e0 <HAL_UART_MspInit+0xa8>)
 80015a2:	f043 0302 	orr.w	r3, r3, #2
 80015a6:	64d3      	str	r3, [r2, #76]	@ 0x4c
 80015a8:	4b0d      	ldr	r3, [pc, #52]	@ (80015e0 <HAL_UART_MspInit+0xa8>)
 80015aa:	6cdb      	ldr	r3, [r3, #76]	@ 0x4c
 80015ac:	f003 0302 	and.w	r3, r3, #2
 80015b0:	60fb      	str	r3, [r7, #12]
 80015b2:	68fb      	ldr	r3, [r7, #12]
 80015b4:	23c0      	movs	r3, #192	@ 0xc0
 80015b6:	667b      	str	r3, [r7, #100]	@ 0x64
 80015b8:	2302      	movs	r3, #2
 80015ba:	66bb      	str	r3, [r7, #104]	@ 0x68
 80015bc:	2300      	movs	r3, #0
 80015be:	66fb      	str	r3, [r7, #108]	@ 0x6c
 80015c0:	2300      	movs	r3, #0
 80015c2:	673b      	str	r3, [r7, #112]	@ 0x70
 80015c4:	2307      	movs	r3, #7
 80015c6:	677b      	str	r3, [r7, #116]	@ 0x74
 80015c8:	f107 0364 	add.w	r3, r7, #100	@ 0x64
 80015cc:	4619      	mov	r1, r3
 80015ce:	4805      	ldr	r0, [pc, #20]	@ (80015e4 <HAL_UART_MspInit+0xac>)
 80015d0:	f000 ff7c 	bl	80024cc <HAL_GPIO_Init>
 80015d4:	bf00      	nop
 80015d6:	3778      	adds	r7, #120	@ 0x78
 80015d8:	46bd      	mov	sp, r7
 80015da:	bd80      	pop	{r7, pc}
 80015dc:	40013800 	.word	0x40013800
 80015e0:	40021000 	.word	0x40021000
 80015e4:	48000400 	.word	0x48000400

080015e8 <Reset_Handler>:
 80015e8:	480d      	ldr	r0, [pc, #52]	@ (8001620 <LoopForever+0x2>)
 80015ea:	4685      	mov	sp, r0
 80015ec:	f7ff ff46 	bl	800147c <SystemInit>
 80015f0:	480c      	ldr	r0, [pc, #48]	@ (8001624 <LoopForever+0x6>)
 80015f2:	490d      	ldr	r1, [pc, #52]	@ (8001628 <LoopForever+0xa>)
 80015f4:	4a0d      	ldr	r2, [pc, #52]	@ (800162c <LoopForever+0xe>)
 80015f6:	2300      	movs	r3, #0
 80015f8:	e002      	b.n	8001600 <LoopCopyDataInit>

080015fa <CopyDataInit>:
 80015fa:	58d4      	ldr	r4, [r2, r3]
 80015fc:	50c4      	str	r4, [r0, r3]
 80015fe:	3304      	adds	r3, #4

08001600 <LoopCopyDataInit>:
 8001600:	18c4      	adds	r4, r0, r3
 8001602:	428c      	cmp	r4, r1
 8001604:	d3f9      	bcc.n	80015fa <CopyDataInit>
 8001606:	4a0a      	ldr	r2, [pc, #40]	@ (8001630 <LoopForever+0x12>)
 8001608:	4c0a      	ldr	r4, [pc, #40]	@ (8001634 <LoopForever+0x16>)
 800160a:	2300      	movs	r3, #0
 800160c:	e001      	b.n	8001612 <LoopFillZerobss>

0800160e <FillZerobss>:
 800160e:	6013      	str	r3, [r2, #0]
 8001610:	3204      	adds	r2, #4

08001612 <LoopFillZerobss>:
 8001612:	42a2      	cmp	r2, r4
 8001614:	d3fb      	bcc.n	800160e <FillZerobss>
 8001616:	f004 fcf3 	bl	8006000 <__libc_init_array>
 800161a:	f7ff fd9b 	bl	8001154 <main>

0800161e <LoopForever>:
 800161e:	e7fe      	b.n	800161e <LoopForever>
 8001620:	2001c000 	.word	0x2001c000
 8001624:	20000000 	.word	0x20000000
 8001628:	20000068 	.word	0x20000068
 800162c:	08006e34 	.word	0x08006e34
 8001630:	20000068 	.word	0x20000068
 8001634:	200006a4 	.word	0x200006a4

08001638 <ADC1_2_IRQHandler>:
 8001638:	e7fe      	b.n	8001638 <ADC1_2_IRQHandler>
	...

0800163c <VL53L4CD_RdDWord>:

#include "platform.h"


uint8_t VL53L4CD_RdDWord(Dev_t dev, uint16_t RegisterAdress, uint32_t *value)
{
 800163c:	b580      	push	{r7, lr}
 800163e:	b088      	sub	sp, #32
 8001640:	af04      	add	r7, sp, #16
 8001642:	4603      	mov	r3, r0
 8001644:	603a      	str	r2, [r7, #0]
 8001646:	80fb      	strh	r3, [r7, #6]
 8001648:	460b      	mov	r3, r1
 800164a:	80bb      	strh	r3, [r7, #4]
	uint8_t status = 255;
 800164c:	23ff      	movs	r3, #255	@ 0xff
 800164e:	73fb      	strb	r3, [r7, #15]

	/* To be filled by customer. Return 0 if OK */
	/* Warning : For big endian platforms, fields 'RegisterAdress' and 'value' need to be swapped. */
	//#error "This code is empty, please populate the function with valid code for your processor."

	ok = HAL_I2C_Mem_Read(&hi2c2, dev, RegisterAdress, I2C_MEMADD_SIZE_16BIT, buffer, 4, 100); //read 32-bit registr and store in value
 8001650:	88ba      	ldrh	r2, [r7, #4]
 8001652:	88f9      	ldrh	r1, [r7, #6]
 8001654:	2364      	movs	r3, #100	@ 0x64
 8001656:	9302      	str	r3, [sp, #8]
 8001658:	2304      	movs	r3, #4
 800165a:	9301      	str	r3, [sp, #4]
 800165c:	f107 0308 	add.w	r3, r7, #8
 8001660:	9300      	str	r3, [sp, #0]
 8001662:	2302      	movs	r3, #2
 8001664:	480d      	ldr	r0, [pc, #52]	@ (800169c <VL53L4CD_RdDWord+0x60>)
 8001666:	f001 fa85 	bl	8002b74 <HAL_I2C_Mem_Read>
 800166a:	4603      	mov	r3, r0
 800166c:	73bb      	strb	r3, [r7, #14]
	*value = ((uint32_t)buffer[0] << 24) | (uint32_t)buffer[1] << 16 | (uint32_t)buffer[2] << 8 | (uint32_t)buffer[3];
 800166e:	7a3b      	ldrb	r3, [r7, #8]
 8001670:	061a      	lsls	r2, r3, #24
 8001672:	7a7b      	ldrb	r3, [r7, #9]
 8001674:	041b      	lsls	r3, r3, #16
 8001676:	431a      	orrs	r2, r3
 8001678:	7abb      	ldrb	r3, [r7, #10]
 800167a:	021b      	lsls	r3, r3, #8
 800167c:	4313      	orrs	r3, r2
 800167e:	7afa      	ldrb	r2, [r7, #11]
 8001680:	431a      	orrs	r2, r3
 8001682:	683b      	ldr	r3, [r7, #0]
 8001684:	601a      	str	r2, [r3, #0]
	return (ok == HAL_OK) ? 0 : status; //if ok ==hal_ok, return 0; else return 255
 8001686:	7bbb      	ldrb	r3, [r7, #14]
 8001688:	2b00      	cmp	r3, #0
 800168a:	d001      	beq.n	8001690 <VL53L4CD_RdDWord+0x54>
 800168c:	7bfb      	ldrb	r3, [r7, #15]
 800168e:	e000      	b.n	8001692 <VL53L4CD_RdDWord+0x56>
 8001690:	2300      	movs	r3, #0
}
 8001692:	4618      	mov	r0, r3
 8001694:	3710      	adds	r7, #16
 8001696:	46bd      	mov	sp, r7
 8001698:	bd80      	pop	{r7, pc}
 800169a:	bf00      	nop
 800169c:	20000448 	.word	0x20000448

080016a0 <VL53L4CD_RdWord>:

uint8_t VL53L4CD_RdWord(Dev_t dev, uint16_t RegisterAdress, uint16_t *value)
{
 80016a0:	b580      	push	{r7, lr}
 80016a2:	b088      	sub	sp, #32
 80016a4:	af04      	add	r7, sp, #16
 80016a6:	4603      	mov	r3, r0
 80016a8:	603a      	str	r2, [r7, #0]
 80016aa:	80fb      	strh	r3, [r7, #6]
 80016ac:	460b      	mov	r3, r1
 80016ae:	80bb      	strh	r3, [r7, #4]
	uint8_t status = 255;
 80016b0:	23ff      	movs	r3, #255	@ 0xff
 80016b2:	73fb      	strb	r3, [r7, #15]

	/* To be filled by customer. Return 0 if OK */
	/* Warning : For big endian platforms, fields 'RegisterAdress' and 'value' need to be swapped. */
	//#error "This code is empty, please populate the function with valid code for your processor."

	ok = HAL_I2C_Mem_Read(&hi2c2, dev, RegisterAdress, I2C_MEMADD_SIZE_16BIT, buffer, 2, 100); //read 16-bit registr and store in value
 80016b4:	88ba      	ldrh	r2, [r7, #4]
 80016b6:	88f9      	ldrh	r1, [r7, #6]
 80016b8:	2364      	movs	r3, #100	@ 0x64
 80016ba:	9302      	str	r3, [sp, #8]
 80016bc:	2302      	movs	r3, #2
 80016be:	9301      	str	r3, [sp, #4]
 80016c0:	f107 030c 	add.w	r3, r7, #12
 80016c4:	9300      	str	r3, [sp, #0]
 80016c6:	2302      	movs	r3, #2
 80016c8:	480c      	ldr	r0, [pc, #48]	@ (80016fc <VL53L4CD_RdWord+0x5c>)
 80016ca:	f001 fa53 	bl	8002b74 <HAL_I2C_Mem_Read>
 80016ce:	4603      	mov	r3, r0
 80016d0:	73bb      	strb	r3, [r7, #14]
	*value = ((uint16_t)buffer[0] << 8) | (uint16_t)buffer[1];
 80016d2:	7b3b      	ldrb	r3, [r7, #12]
 80016d4:	b21b      	sxth	r3, r3
 80016d6:	021b      	lsls	r3, r3, #8
 80016d8:	b21a      	sxth	r2, r3
 80016da:	7b7b      	ldrb	r3, [r7, #13]
 80016dc:	b21b      	sxth	r3, r3
 80016de:	4313      	orrs	r3, r2
 80016e0:	b21b      	sxth	r3, r3
 80016e2:	b29a      	uxth	r2, r3
 80016e4:	683b      	ldr	r3, [r7, #0]
 80016e6:	801a      	strh	r2, [r3, #0]
	return (ok == HAL_OK) ? 0 : status;
 80016e8:	7bbb      	ldrb	r3, [r7, #14]
 80016ea:	2b00      	cmp	r3, #0
 80016ec:	d001      	beq.n	80016f2 <VL53L4CD_RdWord+0x52>
 80016ee:	7bfb      	ldrb	r3, [r7, #15]
 80016f0:	e000      	b.n	80016f4 <VL53L4CD_RdWord+0x54>
 80016f2:	2300      	movs	r3, #0
}
 80016f4:	4618      	mov	r0, r3
 80016f6:	3710      	adds	r7, #16
 80016f8:	46bd      	mov	sp, r7
 80016fa:	bd80      	pop	{r7, pc}
 80016fc:	20000448 	.word	0x20000448

08001700 <VL53L4CD_RdByte>:

uint8_t VL53L4CD_RdByte(Dev_t dev, uint16_t RegisterAdress, uint8_t *value)
{
 8001700:	b580      	push	{r7, lr}
 8001702:	b088      	sub	sp, #32
 8001704:	af04      	add	r7, sp, #16
 8001706:	4603      	mov	r3, r0
 8001708:	603a      	str	r2, [r7, #0]
 800170a:	80fb      	strh	r3, [r7, #6]
 800170c:	460b      	mov	r3, r1
 800170e:	80bb      	strh	r3, [r7, #4]
	uint8_t status = 255;
 8001710:	23ff      	movs	r3, #255	@ 0xff
 8001712:	73fb      	strb	r3, [r7, #15]
	
	/* To be filled by customer. Return 0 if OK */
	/* Warning : For big endian platforms, fields 'RegisterAdress' and 'value' need to be swapped. */


	ok = HAL_I2C_Mem_Read(&hi2c2, dev, RegisterAdress, I2C_MEMADD_SIZE_16BIT, value, 1, 100);
 8001714:	88ba      	ldrh	r2, [r7, #4]
 8001716:	88f9      	ldrh	r1, [r7, #6]
 8001718:	2364      	movs	r3, #100	@ 0x64
 800171a:	9302      	str	r3, [sp, #8]
 800171c:	2301      	movs	r3, #1
 800171e:	9301      	str	r3, [sp, #4]
 8001720:	683b      	ldr	r3, [r7, #0]
 8001722:	9300      	str	r3, [sp, #0]
 8001724:	2302      	movs	r3, #2
 8001726:	4807      	ldr	r0, [pc, #28]	@ (8001744 <VL53L4CD_RdByte+0x44>)
 8001728:	f001 fa24 	bl	8002b74 <HAL_I2C_Mem_Read>
 800172c:	4603      	mov	r3, r0
 800172e:	73bb      	strb	r3, [r7, #14]


	return (ok == HAL_OK) ? 0 : status;
 8001730:	7bbb      	ldrb	r3, [r7, #14]
 8001732:	2b00      	cmp	r3, #0
 8001734:	d001      	beq.n	800173a <VL53L4CD_RdByte+0x3a>
 8001736:	7bfb      	ldrb	r3, [r7, #15]
 8001738:	e000      	b.n	800173c <VL53L4CD_RdByte+0x3c>
 800173a:	2300      	movs	r3, #0
}
 800173c:	4618      	mov	r0, r3
 800173e:	3710      	adds	r7, #16
 8001740:	46bd      	mov	sp, r7
 8001742:	bd80      	pop	{r7, pc}
 8001744:	20000448 	.word	0x20000448

08001748 <VL53L4CD_WrByte>:

uint8_t VL53L4CD_WrByte(Dev_t dev, uint16_t RegisterAdress, uint8_t value)
{
 8001748:	b580      	push	{r7, lr}
 800174a:	b088      	sub	sp, #32
 800174c:	af04      	add	r7, sp, #16
 800174e:	4603      	mov	r3, r0
 8001750:	80fb      	strh	r3, [r7, #6]
 8001752:	460b      	mov	r3, r1
 8001754:	80bb      	strh	r3, [r7, #4]
 8001756:	4613      	mov	r3, r2
 8001758:	70fb      	strb	r3, [r7, #3]
	uint8_t status = 255;
 800175a:	23ff      	movs	r3, #255	@ 0xff
 800175c:	73fb      	strb	r3, [r7, #15]
	HAL_StatusTypeDef ok;

	/* To be filled by customer. Return 0 if OK */
	/* Warning : For big endian platforms, fields 'RegisterAdress' and 'value' need to be swapped. */

	ok = HAL_I2C_Mem_Write(&hi2c2, dev, RegisterAdress, I2C_MEMADD_SIZE_16BIT, &value, 1, 100);
 800175e:	88ba      	ldrh	r2, [r7, #4]
 8001760:	88f9      	ldrh	r1, [r7, #6]
 8001762:	2364      	movs	r3, #100	@ 0x64
 8001764:	9302      	str	r3, [sp, #8]
 8001766:	2301      	movs	r3, #1
 8001768:	9301      	str	r3, [sp, #4]
 800176a:	1cfb      	adds	r3, r7, #3
 800176c:	9300      	str	r3, [sp, #0]
 800176e:	2302      	movs	r3, #2
 8001770:	4807      	ldr	r0, [pc, #28]	@ (8001790 <VL53L4CD_WrByte+0x48>)
 8001772:	f001 f8eb 	bl	800294c <HAL_I2C_Mem_Write>
 8001776:	4603      	mov	r3, r0
 8001778:	73bb      	strb	r3, [r7, #14]


	return (ok == HAL_OK) ? 0 : status;
 800177a:	7bbb      	ldrb	r3, [r7, #14]
 800177c:	2b00      	cmp	r3, #0
 800177e:	d001      	beq.n	8001784 <VL53L4CD_WrByte+0x3c>
 8001780:	7bfb      	ldrb	r3, [r7, #15]
 8001782:	e000      	b.n	8001786 <VL53L4CD_WrByte+0x3e>
 8001784:	2300      	movs	r3, #0
}
 8001786:	4618      	mov	r0, r3
 8001788:	3710      	adds	r7, #16
 800178a:	46bd      	mov	sp, r7
 800178c:	bd80      	pop	{r7, pc}
 800178e:	bf00      	nop
 8001790:	20000448 	.word	0x20000448

08001794 <VL53L4CD_WrWord>:

uint8_t VL53L4CD_WrWord(Dev_t dev, uint16_t RegisterAdress, uint16_t value)
{
 8001794:	b580      	push	{r7, lr}
 8001796:	b088      	sub	sp, #32
 8001798:	af04      	add	r7, sp, #16
 800179a:	4603      	mov	r3, r0
 800179c:	80fb      	strh	r3, [r7, #6]
 800179e:	460b      	mov	r3, r1
 80017a0:	80bb      	strh	r3, [r7, #4]
 80017a2:	4613      	mov	r3, r2
 80017a4:	807b      	strh	r3, [r7, #2]
	uint8_t status = 255;
 80017a6:	23ff      	movs	r3, #255	@ 0xff
 80017a8:	73fb      	strb	r3, [r7, #15]
	
	/* To be filled by customer. Return 0 if OK */
	/* Warning : For big endian platforms, fields 'RegisterAdress' and 'value' need to be swapped. */
	//#error "This code is empty, please populate the function with valid code for your processor."

	uint8_t big_endian_value[2] = {(uint8_t)(value >> 8), (uint8_t)(value)};
 80017aa:	887b      	ldrh	r3, [r7, #2]
 80017ac:	0a1b      	lsrs	r3, r3, #8
 80017ae:	b29b      	uxth	r3, r3
 80017b0:	b2db      	uxtb	r3, r3
 80017b2:	733b      	strb	r3, [r7, #12]
 80017b4:	887b      	ldrh	r3, [r7, #2]
 80017b6:	b2db      	uxtb	r3, r3
 80017b8:	737b      	strb	r3, [r7, #13]

	ok = HAL_I2C_Mem_Write(&hi2c2, dev, RegisterAdress, I2C_MEMADD_SIZE_16BIT, big_endian_value, 2, 100);
 80017ba:	88ba      	ldrh	r2, [r7, #4]
 80017bc:	88f9      	ldrh	r1, [r7, #6]
 80017be:	2364      	movs	r3, #100	@ 0x64
 80017c0:	9302      	str	r3, [sp, #8]
 80017c2:	2302      	movs	r3, #2
 80017c4:	9301      	str	r3, [sp, #4]
 80017c6:	f107 030c 	add.w	r3, r7, #12
 80017ca:	9300      	str	r3, [sp, #0]
 80017cc:	2302      	movs	r3, #2
 80017ce:	4807      	ldr	r0, [pc, #28]	@ (80017ec <VL53L4CD_WrWord+0x58>)
 80017d0:	f001 f8bc 	bl	800294c <HAL_I2C_Mem_Write>
 80017d4:	4603      	mov	r3, r0
 80017d6:	73bb      	strb	r3, [r7, #14]


	return (ok == HAL_OK) ? 0 : status;
 80017d8:	7bbb      	ldrb	r3, [r7, #14]
 80017da:	2b00      	cmp	r3, #0
 80017dc:	d001      	beq.n	80017e2 <VL53L4CD_WrWord+0x4e>
 80017de:	7bfb      	ldrb	r3, [r7, #15]
 80017e0:	e000      	b.n	80017e4 <VL53L4CD_WrWord+0x50>
 80017e2:	2300      	movs	r3, #0
}
 80017e4:	4618      	mov	r0, r3
 80017e6:	3710      	adds	r7, #16
 80017e8:	46bd      	mov	sp, r7
 80017ea:	bd80      	pop	{r7, pc}
 80017ec:	20000448 	.word	0x20000448

080017f0 <VL53L4CD_WrDWord>:

uint8_t VL53L4CD_WrDWord(Dev_t dev, uint16_t RegisterAdress, uint32_t value)
{
 80017f0:	b580      	push	{r7, lr}
 80017f2:	b088      	sub	sp, #32
 80017f4:	af04      	add	r7, sp, #16
 80017f6:	4603      	mov	r3, r0
 80017f8:	603a      	str	r2, [r7, #0]
 80017fa:	80fb      	strh	r3, [r7, #6]
 80017fc:	460b      	mov	r3, r1
 80017fe:	80bb      	strh	r3, [r7, #4]
	uint8_t status = 255;
 8001800:	23ff      	movs	r3, #255	@ 0xff
 8001802:	73fb      	strb	r3, [r7, #15]
	HAL_StatusTypeDef ok;
	/* To be filled by customer. Return 0 if OK */
	/* Warning : For big endian platforms, fields 'RegisterAdress' and 'value' need to be swapped. */
	//#error "This code is empty, please populate the function with valid code for your processor."

	uint8_t big_endian_value[4] = {(uint8_t)(value >> 24), (uint8_t)(value >> 16), (uint8_t)(value >> 8), (uint8_t)(value)};
 8001804:	683b      	ldr	r3, [r7, #0]
 8001806:	0e1b      	lsrs	r3, r3, #24
 8001808:	b2db      	uxtb	r3, r3
 800180a:	723b      	strb	r3, [r7, #8]
 800180c:	683b      	ldr	r3, [r7, #0]
 800180e:	0c1b      	lsrs	r3, r3, #16
 8001810:	b2db      	uxtb	r3, r3
 8001812:	727b      	strb	r3, [r7, #9]
 8001814:	683b      	ldr	r3, [r7, #0]
 8001816:	0a1b      	lsrs	r3, r3, #8
 8001818:	b2db      	uxtb	r3, r3
 800181a:	72bb      	strb	r3, [r7, #10]
 800181c:	683b      	ldr	r3, [r7, #0]
 800181e:	b2db      	uxtb	r3, r3
 8001820:	72fb      	strb	r3, [r7, #11]

	ok = HAL_I2C_Mem_Write(&hi2c2, dev, RegisterAdress, I2C_MEMADD_SIZE_16BIT, big_endian_value, 4, 100);
 8001822:	88ba      	ldrh	r2, [r7, #4]
 8001824:	88f9      	ldrh	r1, [r7, #6]
 8001826:	2364      	movs	r3, #100	@ 0x64
 8001828:	9302      	str	r3, [sp, #8]
 800182a:	2304      	movs	r3, #4
 800182c:	9301      	str	r3, [sp, #4]
 800182e:	f107 0308 	add.w	r3, r7, #8
 8001832:	9300      	str	r3, [sp, #0]
 8001834:	2302      	movs	r3, #2
 8001836:	4807      	ldr	r0, [pc, #28]	@ (8001854 <VL53L4CD_WrDWord+0x64>)
 8001838:	f001 f888 	bl	800294c <HAL_I2C_Mem_Write>
 800183c:	4603      	mov	r3, r0
 800183e:	73bb      	strb	r3, [r7, #14]

	return (ok == HAL_OK) ? 0 : status;
 8001840:	7bbb      	ldrb	r3, [r7, #14]
 8001842:	2b00      	cmp	r3, #0
 8001844:	d001      	beq.n	800184a <VL53L4CD_WrDWord+0x5a>
 8001846:	7bfb      	ldrb	r3, [r7, #15]
 8001848:	e000      	b.n	800184c <VL53L4CD_WrDWord+0x5c>
 800184a:	2300      	movs	r3, #0
}
 800184c:	4618      	mov	r0, r3
 800184e:	3710      	adds	r7, #16
 8001850:	46bd      	mov	sp, r7
 8001852:	bd80      	pop	{r7, pc}
 8001854:	20000448 	.word	0x20000448

08001858 <VL53L4CD_WaitMs>:

uint8_t VL53L4CD_WaitMs(Dev_t dev, uint32_t TimeMs)
{
 8001858:	b580      	push	{r7, lr}
 800185a:	b082      	sub	sp, #8
 800185c:	af00      	add	r7, sp, #0
 800185e:	4603      	mov	r3, r0
 8001860:	6039      	str	r1, [r7, #0]
 8001862:	80fb      	strh	r3, [r7, #6]
	/* To be filled by customer */
	//#error "This code is empty, please populate the function with valid code for your processor."

	HAL_Delay(TimeMs);
 8001864:	6838      	ldr	r0, [r7, #0]
 8001866:	f000 f875 	bl	8001954 <HAL_Delay>

	return 0;
 800186a:	2300      	movs	r3, #0
}
 800186c:	4618      	mov	r0, r3
 800186e:	3708      	adds	r7, #8
 8001870:	46bd      	mov	sp, r7
 8001872:	bd80      	pop	{r7, pc}

08001874 <HAL_Init>:
 8001874:	b580      	push	{r7, lr}
 8001876:	b082      	sub	sp, #8
 8001878:	af00      	add	r7, sp, #0
 800187a:	2300      	movs	r3, #0
 800187c:	71fb      	strb	r3, [r7, #7]
 800187e:	2003      	movs	r0, #3
 8001880:	f000 f95a 	bl	8001b38 <HAL_NVIC_SetPriorityGrouping>
 8001884:	200f      	movs	r0, #15
 8001886:	f000 f80d 	bl	80018a4 <HAL_InitTick>
 800188a:	4603      	mov	r3, r0
 800188c:	2b00      	cmp	r3, #0
 800188e:	d002      	beq.n	8001896 <HAL_Init+0x22>
 8001890:	2301      	movs	r3, #1
 8001892:	71fb      	strb	r3, [r7, #7]
 8001894:	e001      	b.n	800189a <HAL_Init+0x26>
 8001896:	f7ff fcf1 	bl	800127c <HAL_MspInit>
 800189a:	79fb      	ldrb	r3, [r7, #7]
 800189c:	4618      	mov	r0, r3
 800189e:	3708      	adds	r7, #8
 80018a0:	46bd      	mov	sp, r7
 80018a2:	bd80      	pop	{r7, pc}

080018a4 <HAL_InitTick>:
 80018a4:	b580      	push	{r7, lr}
 80018a6:	b084      	sub	sp, #16
 80018a8:	af00      	add	r7, sp, #0
 80018aa:	6078      	str	r0, [r7, #4]
 80018ac:	2300      	movs	r3, #0
 80018ae:	73fb      	strb	r3, [r7, #15]
 80018b0:	4b16      	ldr	r3, [pc, #88]	@ (800190c <HAL_InitTick+0x68>)
 80018b2:	681b      	ldr	r3, [r3, #0]
 80018b4:	2b00      	cmp	r3, #0
 80018b6:	d022      	beq.n	80018fe <HAL_InitTick+0x5a>
 80018b8:	4b15      	ldr	r3, [pc, #84]	@ (8001910 <HAL_InitTick+0x6c>)
 80018ba:	681a      	ldr	r2, [r3, #0]
 80018bc:	4b13      	ldr	r3, [pc, #76]	@ (800190c <HAL_InitTick+0x68>)
 80018be:	681b      	ldr	r3, [r3, #0]
 80018c0:	f44f 717a 	mov.w	r1, #1000	@ 0x3e8
 80018c4:	fbb1 f3f3 	udiv	r3, r1, r3
 80018c8:	fbb2 f3f3 	udiv	r3, r2, r3
 80018cc:	4618      	mov	r0, r3
 80018ce:	f000 f966 	bl	8001b9e <HAL_SYSTICK_Config>
 80018d2:	4603      	mov	r3, r0
 80018d4:	2b00      	cmp	r3, #0
 80018d6:	d10f      	bne.n	80018f8 <HAL_InitTick+0x54>
 80018d8:	687b      	ldr	r3, [r7, #4]
 80018da:	2b0f      	cmp	r3, #15
 80018dc:	d809      	bhi.n	80018f2 <HAL_InitTick+0x4e>
 80018de:	2200      	movs	r2, #0
 80018e0:	6879      	ldr	r1, [r7, #4]
 80018e2:	f04f 30ff 	mov.w	r0, #4294967295
 80018e6:	f000 f932 	bl	8001b4e <HAL_NVIC_SetPriority>
 80018ea:	4a0a      	ldr	r2, [pc, #40]	@ (8001914 <HAL_InitTick+0x70>)
 80018ec:	687b      	ldr	r3, [r7, #4]
 80018ee:	6013      	str	r3, [r2, #0]
 80018f0:	e007      	b.n	8001902 <HAL_InitTick+0x5e>
 80018f2:	2301      	movs	r3, #1
 80018f4:	73fb      	strb	r3, [r7, #15]
 80018f6:	e004      	b.n	8001902 <HAL_InitTick+0x5e>
 80018f8:	2301      	movs	r3, #1
 80018fa:	73fb      	strb	r3, [r7, #15]
 80018fc:	e001      	b.n	8001902 <HAL_InitTick+0x5e>
 80018fe:	2301      	movs	r3, #1
 8001900:	73fb      	strb	r3, [r7, #15]
 8001902:	7bfb      	ldrb	r3, [r7, #15]
 8001904:	4618      	mov	r0, r3
 8001906:	3710      	adds	r7, #16
 8001908:	46bd      	mov	sp, r7
 800190a:	bd80      	pop	{r7, pc}
 800190c:	20000008 	.word	0x20000008
 8001910:	20000000 	.word	0x20000000
 8001914:	20000004 	.word	0x20000004

08001918 <HAL_IncTick>:
 8001918:	b480      	push	{r7}
 800191a:	af00      	add	r7, sp, #0
 800191c:	4b05      	ldr	r3, [pc, #20]	@ (8001934 <HAL_IncTick+0x1c>)
 800191e:	681a      	ldr	r2, [r3, #0]
 8001920:	4b05      	ldr	r3, [pc, #20]	@ (8001938 <HAL_IncTick+0x20>)
 8001922:	681b      	ldr	r3, [r3, #0]
 8001924:	4413      	add	r3, r2
 8001926:	4a03      	ldr	r2, [pc, #12]	@ (8001934 <HAL_IncTick+0x1c>)
 8001928:	6013      	str	r3, [r2, #0]
 800192a:	bf00      	nop
 800192c:	46bd      	mov	sp, r7
 800192e:	f85d 7b04 	ldr.w	r7, [sp], #4
 8001932:	4770      	bx	lr
 8001934:	20000554 	.word	0x20000554
 8001938:	20000008 	.word	0x20000008

0800193c <HAL_GetTick>:
 800193c:	b480      	push	{r7}
 800193e:	af00      	add	r7, sp, #0
 8001940:	4b03      	ldr	r3, [pc, #12]	@ (8001950 <HAL_GetTick+0x14>)
 8001942:	681b      	ldr	r3, [r3, #0]
 8001944:	4618      	mov	r0, r3
 8001946:	46bd      	mov	sp, r7
 8001948:	f85d 7b04 	ldr.w	r7, [sp], #4
 800194c:	4770      	bx	lr
 800194e:	bf00      	nop
 8001950:	20000554 	.word	0x20000554

08001954 <HAL_Delay>:
 8001954:	b580      	push	{r7, lr}
 8001956:	b084      	sub	sp, #16
 8001958:	af00      	add	r7, sp, #0
 800195a:	6078      	str	r0, [r7, #4]
 800195c:	f7ff ffee 	bl	800193c <HAL_GetTick>
 8001960:	60b8      	str	r0, [r7, #8]
 8001962:	687b      	ldr	r3, [r7, #4]
 8001964:	60fb      	str	r3, [r7, #12]
 8001966:	68fb      	ldr	r3, [r7, #12]
 8001968:	f1b3 3fff 	cmp.w	r3, #4294967295
 800196c:	d004      	beq.n	8001978 <HAL_Delay+0x24>
 800196e:	4b09      	ldr	r3, [pc, #36]	@ (8001994 <HAL_Delay+0x40>)
 8001970:	681b      	ldr	r3, [r3, #0]
 8001972:	68fa      	ldr	r2, [r7, #12]
 8001974:	4413      	add	r3, r2
 8001976:	60fb      	str	r3, [r7, #12]
 8001978:	bf00      	nop
 800197a:	f7ff ffdf 	bl	800193c <HAL_GetTick>
 800197e:	4602      	mov	r2, r0
 8001980:	68bb      	ldr	r3, [r7, #8]
 8001982:	1ad3      	subs	r3, r2, r3
 8001984:	68fa      	ldr	r2, [r7, #12]
 8001986:	429a      	cmp	r2, r3
 8001988:	d8f7      	bhi.n	800197a <HAL_Delay+0x26>
 800198a:	bf00      	nop
 800198c:	bf00      	nop
 800198e:	3710      	adds	r7, #16
 8001990:	46bd      	mov	sp, r7
 8001992:	bd80      	pop	{r7, pc}
 8001994:	20000008 	.word	0x20000008

08001998 <__NVIC_SetPriorityGrouping>:
 8001998:	b480      	push	{r7}
 800199a:	b085      	sub	sp, #20
 800199c:	af00      	add	r7, sp, #0
 800199e:	6078      	str	r0, [r7, #4]
 80019a0:	687b      	ldr	r3, [r7, #4]
 80019a2:	f003 0307 	and.w	r3, r3, #7
 80019a6:	60fb      	str	r3, [r7, #12]
 80019a8:	4b0c      	ldr	r3, [pc, #48]	@ (80019dc <__NVIC_SetPriorityGrouping+0x44>)
 80019aa:	68db      	ldr	r3, [r3, #12]
 80019ac:	60bb      	str	r3, [r7, #8]
 80019ae:	68ba      	ldr	r2, [r7, #8]
 80019b0:	f64f 03ff 	movw	r3, #63743	@ 0xf8ff
 80019b4:	4013      	ands	r3, r2
 80019b6:	60bb      	str	r3, [r7, #8]
 80019b8:	68fb      	ldr	r3, [r7, #12]
 80019ba:	021a      	lsls	r2, r3, #8
 80019bc:	68bb      	ldr	r3, [r7, #8]
 80019be:	4313      	orrs	r3, r2
 80019c0:	f043 63bf 	orr.w	r3, r3, #100139008	@ 0x5f80000
 80019c4:	f443 3300 	orr.w	r3, r3, #131072	@ 0x20000
 80019c8:	60bb      	str	r3, [r7, #8]
 80019ca:	4a04      	ldr	r2, [pc, #16]	@ (80019dc <__NVIC_SetPriorityGrouping+0x44>)
 80019cc:	68bb      	ldr	r3, [r7, #8]
 80019ce:	60d3      	str	r3, [r2, #12]
 80019d0:	bf00      	nop
 80019d2:	3714      	adds	r7, #20
 80019d4:	46bd      	mov	sp, r7
 80019d6:	f85d 7b04 	ldr.w	r7, [sp], #4
 80019da:	4770      	bx	lr
 80019dc:	e000ed00 	.word	0xe000ed00

080019e0 <__NVIC_GetPriorityGrouping>:
 80019e0:	b480      	push	{r7}
 80019e2:	af00      	add	r7, sp, #0
 80019e4:	4b04      	ldr	r3, [pc, #16]	@ (80019f8 <__NVIC_GetPriorityGrouping+0x18>)
 80019e6:	68db      	ldr	r3, [r3, #12]
 80019e8:	0a1b      	lsrs	r3, r3, #8
 80019ea:	f003 0307 	and.w	r3, r3, #7
 80019ee:	4618      	mov	r0, r3
 80019f0:	46bd      	mov	sp, r7
 80019f2:	f85d 7b04 	ldr.w	r7, [sp], #4
 80019f6:	4770      	bx	lr
 80019f8:	e000ed00 	.word	0xe000ed00

080019fc <__NVIC_EnableIRQ>:
 80019fc:	b480      	push	{r7}
 80019fe:	b083      	sub	sp, #12
 8001a00:	af00      	add	r7, sp, #0
 8001a02:	4603      	mov	r3, r0
 8001a04:	71fb      	strb	r3, [r7, #7]
 8001a06:	f997 3007 	ldrsb.w	r3, [r7, #7]
 8001a0a:	2b00      	cmp	r3, #0
 8001a0c:	db0b      	blt.n	8001a26 <__NVIC_EnableIRQ+0x2a>
 8001a0e:	79fb      	ldrb	r3, [r7, #7]
 8001a10:	f003 021f 	and.w	r2, r3, #31
 8001a14:	4907      	ldr	r1, [pc, #28]	@ (8001a34 <__NVIC_EnableIRQ+0x38>)
 8001a16:	f997 3007 	ldrsb.w	r3, [r7, #7]
 8001a1a:	095b      	lsrs	r3, r3, #5
 8001a1c:	2001      	movs	r0, #1
 8001a1e:	fa00 f202 	lsl.w	r2, r0, r2
 8001a22:	f841 2023 	str.w	r2, [r1, r3, lsl #2]
 8001a26:	bf00      	nop
 8001a28:	370c      	adds	r7, #12
 8001a2a:	46bd      	mov	sp, r7
 8001a2c:	f85d 7b04 	ldr.w	r7, [sp], #4
 8001a30:	4770      	bx	lr
 8001a32:	bf00      	nop
 8001a34:	e000e100 	.word	0xe000e100

08001a38 <__NVIC_SetPriority>:
 8001a38:	b480      	push	{r7}
 8001a3a:	b083      	sub	sp, #12
 8001a3c:	af00      	add	r7, sp, #0
 8001a3e:	4603      	mov	r3, r0
 8001a40:	6039      	str	r1, [r7, #0]
 8001a42:	71fb      	strb	r3, [r7, #7]
 8001a44:	f997 3007 	ldrsb.w	r3, [r7, #7]
 8001a48:	2b00      	cmp	r3, #0
 8001a4a:	db0a      	blt.n	8001a62 <__NVIC_SetPriority+0x2a>
 8001a4c:	683b      	ldr	r3, [r7, #0]
 8001a4e:	b2da      	uxtb	r2, r3
 8001a50:	490c      	ldr	r1, [pc, #48]	@ (8001a84 <__NVIC_SetPriority+0x4c>)
 8001a52:	f997 3007 	ldrsb.w	r3, [r7, #7]
 8001a56:	0112      	lsls	r2, r2, #4
 8001a58:	b2d2      	uxtb	r2, r2
 8001a5a:	440b      	add	r3, r1
 8001a5c:	f883 2300 	strb.w	r2, [r3, #768]	@ 0x300
 8001a60:	e00a      	b.n	8001a78 <__NVIC_SetPriority+0x40>
 8001a62:	683b      	ldr	r3, [r7, #0]
 8001a64:	b2da      	uxtb	r2, r3
 8001a66:	4908      	ldr	r1, [pc, #32]	@ (8001a88 <__NVIC_SetPriority+0x50>)
 8001a68:	79fb      	ldrb	r3, [r7, #7]
 8001a6a:	f003 030f 	and.w	r3, r3, #15
 8001a6e:	3b04      	subs	r3, #4
 8001a70:	0112      	lsls	r2, r2, #4
 8001a72:	b2d2      	uxtb	r2, r2
 8001a74:	440b      	add	r3, r1
 8001a76:	761a      	strb	r2, [r3, #24]
 8001a78:	bf00      	nop
 8001a7a:	370c      	adds	r7, #12
 8001a7c:	46bd      	mov	sp, r7
 8001a7e:	f85d 7b04 	ldr.w	r7, [sp], #4
 8001a82:	4770      	bx	lr
 8001a84:	e000e100 	.word	0xe000e100
 8001a88:	e000ed00 	.word	0xe000ed00

08001a8c <NVIC_EncodePriority>:
 8001a8c:	b480      	push	{r7}
 8001a8e:	b089      	sub	sp, #36	@ 0x24
 8001a90:	af00      	add	r7, sp, #0
 8001a92:	60f8      	str	r0, [r7, #12]
 8001a94:	60b9      	str	r1, [r7, #8]
 8001a96:	607a      	str	r2, [r7, #4]
 8001a98:	68fb      	ldr	r3, [r7, #12]
 8001a9a:	f003 0307 	and.w	r3, r3, #7
 8001a9e:	61fb      	str	r3, [r7, #28]
 8001aa0:	69fb      	ldr	r3, [r7, #28]
 8001aa2:	f1c3 0307 	rsb	r3, r3, #7
 8001aa6:	2b04      	cmp	r3, #4
 8001aa8:	bf28      	it	cs
 8001aaa:	2304      	movcs	r3, #4
 8001aac:	61bb      	str	r3, [r7, #24]
 8001aae:	69fb      	ldr	r3, [r7, #28]
 8001ab0:	3304      	adds	r3, #4
 8001ab2:	2b06      	cmp	r3, #6
 8001ab4:	d902      	bls.n	8001abc <NVIC_EncodePriority+0x30>
 8001ab6:	69fb      	ldr	r3, [r7, #28]
 8001ab8:	3b03      	subs	r3, #3
 8001aba:	e000      	b.n	8001abe <NVIC_EncodePriority+0x32>
 8001abc:	2300      	movs	r3, #0
 8001abe:	617b      	str	r3, [r7, #20]
 8001ac0:	f04f 32ff 	mov.w	r2, #4294967295
 8001ac4:	69bb      	ldr	r3, [r7, #24]
 8001ac6:	fa02 f303 	lsl.w	r3, r2, r3
 8001aca:	43da      	mvns	r2, r3
 8001acc:	68bb      	ldr	r3, [r7, #8]
 8001ace:	401a      	ands	r2, r3
 8001ad0:	697b      	ldr	r3, [r7, #20]
 8001ad2:	409a      	lsls	r2, r3
 8001ad4:	f04f 31ff 	mov.w	r1, #4294967295
 8001ad8:	697b      	ldr	r3, [r7, #20]
 8001ada:	fa01 f303 	lsl.w	r3, r1, r3
 8001ade:	43d9      	mvns	r1, r3
 8001ae0:	687b      	ldr	r3, [r7, #4]
 8001ae2:	400b      	ands	r3, r1
 8001ae4:	4313      	orrs	r3, r2
 8001ae6:	4618      	mov	r0, r3
 8001ae8:	3724      	adds	r7, #36	@ 0x24
 8001aea:	46bd      	mov	sp, r7
 8001aec:	f85d 7b04 	ldr.w	r7, [sp], #4
 8001af0:	4770      	bx	lr
	...

08001af4 <SysTick_Config>:
 8001af4:	b580      	push	{r7, lr}
 8001af6:	b082      	sub	sp, #8
 8001af8:	af00      	add	r7, sp, #0
 8001afa:	6078      	str	r0, [r7, #4]
 8001afc:	687b      	ldr	r3, [r7, #4]
 8001afe:	3b01      	subs	r3, #1
 8001b00:	f1b3 7f80 	cmp.w	r3, #16777216	@ 0x1000000
 8001b04:	d301      	bcc.n	8001b0a <SysTick_Config+0x16>
 8001b06:	2301      	movs	r3, #1
 8001b08:	e00f      	b.n	8001b2a <SysTick_Config+0x36>
 8001b0a:	4a0a      	ldr	r2, [pc, #40]	@ (8001b34 <SysTick_Config+0x40>)
 8001b0c:	687b      	ldr	r3, [r7, #4]
 8001b0e:	3b01      	subs	r3, #1
 8001b10:	6053      	str	r3, [r2, #4]
 8001b12:	210f      	movs	r1, #15
 8001b14:	f04f 30ff 	mov.w	r0, #4294967295
 8001b18:	f7ff ff8e 	bl	8001a38 <__NVIC_SetPriority>
 8001b1c:	4b05      	ldr	r3, [pc, #20]	@ (8001b34 <SysTick_Config+0x40>)
 8001b1e:	2200      	movs	r2, #0
 8001b20:	609a      	str	r2, [r3, #8]
 8001b22:	4b04      	ldr	r3, [pc, #16]	@ (8001b34 <SysTick_Config+0x40>)
 8001b24:	2207      	movs	r2, #7
 8001b26:	601a      	str	r2, [r3, #0]
 8001b28:	2300      	movs	r3, #0
 8001b2a:	4618      	mov	r0, r3
 8001b2c:	3708      	adds	r7, #8
 8001b2e:	46bd      	mov	sp, r7
 8001b30:	bd80      	pop	{r7, pc}
 8001b32:	bf00      	nop
 8001b34:	e000e010 	.word	0xe000e010

08001b38 <HAL_NVIC_SetPriorityGrouping>:
 8001b38:	b580      	push	{r7, lr}
 8001b3a:	b082      	sub	sp, #8
 8001b3c:	af00      	add	r7, sp, #0
 8001b3e:	6078      	str	r0, [r7, #4]
 8001b40:	6878      	ldr	r0, [r7, #4]
 8001b42:	f7ff ff29 	bl	8001998 <__NVIC_SetPriorityGrouping>
 8001b46:	bf00      	nop
 8001b48:	3708      	adds	r7, #8
 8001b4a:	46bd      	mov	sp, r7
 8001b4c:	bd80      	pop	{r7, pc}

08001b4e <HAL_NVIC_SetPriority>:
 8001b4e:	b580      	push	{r7, lr}
 8001b50:	b086      	sub	sp, #24
 8001b52:	af00      	add	r7, sp, #0
 8001b54:	4603      	mov	r3, r0
 8001b56:	60b9      	str	r1, [r7, #8]
 8001b58:	607a      	str	r2, [r7, #4]
 8001b5a:	73fb      	strb	r3, [r7, #15]
 8001b5c:	f7ff ff40 	bl	80019e0 <__NVIC_GetPriorityGrouping>
 8001b60:	6178      	str	r0, [r7, #20]
 8001b62:	687a      	ldr	r2, [r7, #4]
 8001b64:	68b9      	ldr	r1, [r7, #8]
 8001b66:	6978      	ldr	r0, [r7, #20]
 8001b68:	f7ff ff90 	bl	8001a8c <NVIC_EncodePriority>
 8001b6c:	4602      	mov	r2, r0
 8001b6e:	f997 300f 	ldrsb.w	r3, [r7, #15]
 8001b72:	4611      	mov	r1, r2
 8001b74:	4618      	mov	r0, r3
 8001b76:	f7ff ff5f 	bl	8001a38 <__NVIC_SetPriority>
 8001b7a:	bf00      	nop
 8001b7c:	3718      	adds	r7, #24
 8001b7e:	46bd      	mov	sp, r7
 8001b80:	bd80      	pop	{r7, pc}

08001b82 <HAL_NVIC_EnableIRQ>:
 8001b82:	b580      	push	{r7, lr}
 8001b84:	b082      	sub	sp, #8
 8001b86:	af00      	add	r7, sp, #0
 8001b88:	4603      	mov	r3, r0
 8001b8a:	71fb      	strb	r3, [r7, #7]
 8001b8c:	f997 3007 	ldrsb.w	r3, [r7, #7]
 8001b90:	4618      	mov	r0, r3
 8001b92:	f7ff ff33 	bl	80019fc <__NVIC_EnableIRQ>
 8001b96:	bf00      	nop
 8001b98:	3708      	adds	r7, #8
 8001b9a:	46bd      	mov	sp, r7
 8001b9c:	bd80      	pop	{r7, pc}

08001b9e <HAL_SYSTICK_Config>:
 8001b9e:	b580      	push	{r7, lr}
 8001ba0:	b082      	sub	sp, #8
 8001ba2:	af00      	add	r7, sp, #0
 8001ba4:	6078      	str	r0, [r7, #4]
 8001ba6:	6878      	ldr	r0, [r7, #4]
 8001ba8:	f7ff ffa4 	bl	8001af4 <SysTick_Config>
 8001bac:	4603      	mov	r3, r0
 8001bae:	4618      	mov	r0, r3
 8001bb0:	3708      	adds	r7, #8
 8001bb2:	46bd      	mov	sp, r7
 8001bb4:	bd80      	pop	{r7, pc}
	...

08001bb8 <HAL_FDCAN_Init>:
 8001bb8:	b580      	push	{r7, lr}
 8001bba:	b084      	sub	sp, #16
 8001bbc:	af00      	add	r7, sp, #0
 8001bbe:	6078      	str	r0, [r7, #4]
 8001bc0:	687b      	ldr	r3, [r7, #4]
 8001bc2:	2b00      	cmp	r3, #0
 8001bc4:	d101      	bne.n	8001bca <HAL_FDCAN_Init+0x12>
 8001bc6:	2301      	movs	r3, #1
 8001bc8:	e147      	b.n	8001e5a <HAL_FDCAN_Init+0x2a2>
 8001bca:	687b      	ldr	r3, [r7, #4]
 8001bcc:	f893 305c 	ldrb.w	r3, [r3, #92]	@ 0x5c
 8001bd0:	b2db      	uxtb	r3, r3
 8001bd2:	2b00      	cmp	r3, #0
 8001bd4:	d106      	bne.n	8001be4 <HAL_FDCAN_Init+0x2c>
 8001bd6:	687b      	ldr	r3, [r7, #4]
 8001bd8:	2200      	movs	r2, #0
 8001bda:	f883 205d 	strb.w	r2, [r3, #93]	@ 0x5d
 8001bde:	6878      	ldr	r0, [r7, #4]
 8001be0:	f7ff f96a 	bl	8000eb8 <HAL_FDCAN_MspInit>
 8001be4:	687b      	ldr	r3, [r7, #4]
 8001be6:	681b      	ldr	r3, [r3, #0]
 8001be8:	699a      	ldr	r2, [r3, #24]
 8001bea:	687b      	ldr	r3, [r7, #4]
 8001bec:	681b      	ldr	r3, [r3, #0]
 8001bee:	f022 0210 	bic.w	r2, r2, #16
 8001bf2:	619a      	str	r2, [r3, #24]
 8001bf4:	f7ff fea2 	bl	800193c <HAL_GetTick>
 8001bf8:	60f8      	str	r0, [r7, #12]
 8001bfa:	e012      	b.n	8001c22 <HAL_FDCAN_Init+0x6a>
 8001bfc:	f7ff fe9e 	bl	800193c <HAL_GetTick>
 8001c00:	4602      	mov	r2, r0
 8001c02:	68fb      	ldr	r3, [r7, #12]
 8001c04:	1ad3      	subs	r3, r2, r3
 8001c06:	2b0a      	cmp	r3, #10
 8001c08:	d90b      	bls.n	8001c22 <HAL_FDCAN_Init+0x6a>
 8001c0a:	687b      	ldr	r3, [r7, #4]
 8001c0c:	6e1b      	ldr	r3, [r3, #96]	@ 0x60
 8001c0e:	f043 0201 	orr.w	r2, r3, #1
 8001c12:	687b      	ldr	r3, [r7, #4]
 8001c14:	661a      	str	r2, [r3, #96]	@ 0x60
 8001c16:	687b      	ldr	r3, [r7, #4]
 8001c18:	2203      	movs	r2, #3
 8001c1a:	f883 205c 	strb.w	r2, [r3, #92]	@ 0x5c
 8001c1e:	2301      	movs	r3, #1
 8001c20:	e11b      	b.n	8001e5a <HAL_FDCAN_Init+0x2a2>
 8001c22:	687b      	ldr	r3, [r7, #4]
 8001c24:	681b      	ldr	r3, [r3, #0]
 8001c26:	699b      	ldr	r3, [r3, #24]
 8001c28:	f003 0308 	and.w	r3, r3, #8
 8001c2c:	2b08      	cmp	r3, #8
 8001c2e:	d0e5      	beq.n	8001bfc <HAL_FDCAN_Init+0x44>
 8001c30:	687b      	ldr	r3, [r7, #4]
 8001c32:	681b      	ldr	r3, [r3, #0]
 8001c34:	699a      	ldr	r2, [r3, #24]
 8001c36:	687b      	ldr	r3, [r7, #4]
 8001c38:	681b      	ldr	r3, [r3, #0]
 8001c3a:	f042 0201 	orr.w	r2, r2, #1
 8001c3e:	619a      	str	r2, [r3, #24]
 8001c40:	f7ff fe7c 	bl	800193c <HAL_GetTick>
 8001c44:	60f8      	str	r0, [r7, #12]
 8001c46:	e012      	b.n	8001c6e <HAL_FDCAN_Init+0xb6>
 8001c48:	f7ff fe78 	bl	800193c <HAL_GetTick>
 8001c4c:	4602      	mov	r2, r0
 8001c4e:	68fb      	ldr	r3, [r7, #12]
 8001c50:	1ad3      	subs	r3, r2, r3
 8001c52:	2b0a      	cmp	r3, #10
 8001c54:	d90b      	bls.n	8001c6e <HAL_FDCAN_Init+0xb6>
 8001c56:	687b      	ldr	r3, [r7, #4]
 8001c58:	6e1b      	ldr	r3, [r3, #96]	@ 0x60
 8001c5a:	f043 0201 	orr.w	r2, r3, #1
 8001c5e:	687b      	ldr	r3, [r7, #4]
 8001c60:	661a      	str	r2, [r3, #96]	@ 0x60
 8001c62:	687b      	ldr	r3, [r7, #4]
 8001c64:	2203      	movs	r2, #3
 8001c66:	f883 205c 	strb.w	r2, [r3, #92]	@ 0x5c
 8001c6a:	2301      	movs	r3, #1
 8001c6c:	e0f5      	b.n	8001e5a <HAL_FDCAN_Init+0x2a2>
 8001c6e:	687b      	ldr	r3, [r7, #4]
 8001c70:	681b      	ldr	r3, [r3, #0]
 8001c72:	699b      	ldr	r3, [r3, #24]
 8001c74:	f003 0301 	and.w	r3, r3, #1
 8001c78:	2b00      	cmp	r3, #0
 8001c7a:	d0e5      	beq.n	8001c48 <HAL_FDCAN_Init+0x90>
 8001c7c:	687b      	ldr	r3, [r7, #4]
 8001c7e:	681b      	ldr	r3, [r3, #0]
 8001c80:	699a      	ldr	r2, [r3, #24]
 8001c82:	687b      	ldr	r3, [r7, #4]
 8001c84:	681b      	ldr	r3, [r3, #0]
 8001c86:	f042 0202 	orr.w	r2, r2, #2
 8001c8a:	619a      	str	r2, [r3, #24]
 8001c8c:	687b      	ldr	r3, [r7, #4]
 8001c8e:	681b      	ldr	r3, [r3, #0]
 8001c90:	4a74      	ldr	r2, [pc, #464]	@ (8001e64 <HAL_FDCAN_Init+0x2ac>)
 8001c92:	4293      	cmp	r3, r2
 8001c94:	d103      	bne.n	8001c9e <HAL_FDCAN_Init+0xe6>
 8001c96:	4a74      	ldr	r2, [pc, #464]	@ (8001e68 <HAL_FDCAN_Init+0x2b0>)
 8001c98:	687b      	ldr	r3, [r7, #4]
 8001c9a:	685b      	ldr	r3, [r3, #4]
 8001c9c:	6013      	str	r3, [r2, #0]
 8001c9e:	687b      	ldr	r3, [r7, #4]
 8001ca0:	7c1b      	ldrb	r3, [r3, #16]
 8001ca2:	2b01      	cmp	r3, #1
 8001ca4:	d108      	bne.n	8001cb8 <HAL_FDCAN_Init+0x100>
 8001ca6:	687b      	ldr	r3, [r7, #4]
 8001ca8:	681b      	ldr	r3, [r3, #0]
 8001caa:	699a      	ldr	r2, [r3, #24]
 8001cac:	687b      	ldr	r3, [r7, #4]
 8001cae:	681b      	ldr	r3, [r3, #0]
 8001cb0:	f022 0240 	bic.w	r2, r2, #64	@ 0x40
 8001cb4:	619a      	str	r2, [r3, #24]
 8001cb6:	e007      	b.n	8001cc8 <HAL_FDCAN_Init+0x110>
 8001cb8:	687b      	ldr	r3, [r7, #4]
 8001cba:	681b      	ldr	r3, [r3, #0]
 8001cbc:	699a      	ldr	r2, [r3, #24]
 8001cbe:	687b      	ldr	r3, [r7, #4]
 8001cc0:	681b      	ldr	r3, [r3, #0]
 8001cc2:	f042 0240 	orr.w	r2, r2, #64	@ 0x40
 8001cc6:	619a      	str	r2, [r3, #24]
 8001cc8:	687b      	ldr	r3, [r7, #4]
 8001cca:	7c5b      	ldrb	r3, [r3, #17]
 8001ccc:	2b01      	cmp	r3, #1
 8001cce:	d108      	bne.n	8001ce2 <HAL_FDCAN_Init+0x12a>
 8001cd0:	687b      	ldr	r3, [r7, #4]
 8001cd2:	681b      	ldr	r3, [r3, #0]
 8001cd4:	699a      	ldr	r2, [r3, #24]
 8001cd6:	687b      	ldr	r3, [r7, #4]
 8001cd8:	681b      	ldr	r3, [r3, #0]
 8001cda:	f442 4280 	orr.w	r2, r2, #16384	@ 0x4000
 8001cde:	619a      	str	r2, [r3, #24]
 8001ce0:	e007      	b.n	8001cf2 <HAL_FDCAN_Init+0x13a>
 8001ce2:	687b      	ldr	r3, [r7, #4]
 8001ce4:	681b      	ldr	r3, [r3, #0]
 8001ce6:	699a      	ldr	r2, [r3, #24]
 8001ce8:	687b      	ldr	r3, [r7, #4]
 8001cea:	681b      	ldr	r3, [r3, #0]
 8001cec:	f422 4280 	bic.w	r2, r2, #16384	@ 0x4000
 8001cf0:	619a      	str	r2, [r3, #24]
 8001cf2:	687b      	ldr	r3, [r7, #4]
 8001cf4:	7c9b      	ldrb	r3, [r3, #18]
 8001cf6:	2b01      	cmp	r3, #1
 8001cf8:	d108      	bne.n	8001d0c <HAL_FDCAN_Init+0x154>
 8001cfa:	687b      	ldr	r3, [r7, #4]
 8001cfc:	681b      	ldr	r3, [r3, #0]
 8001cfe:	699a      	ldr	r2, [r3, #24]
 8001d00:	687b      	ldr	r3, [r7, #4]
 8001d02:	681b      	ldr	r3, [r3, #0]
 8001d04:	f422 5280 	bic.w	r2, r2, #4096	@ 0x1000
 8001d08:	619a      	str	r2, [r3, #24]
 8001d0a:	e007      	b.n	8001d1c <HAL_FDCAN_Init+0x164>
 8001d0c:	687b      	ldr	r3, [r7, #4]
 8001d0e:	681b      	ldr	r3, [r3, #0]
 8001d10:	699a      	ldr	r2, [r3, #24]
 8001d12:	687b      	ldr	r3, [r7, #4]
 8001d14:	681b      	ldr	r3, [r3, #0]
 8001d16:	f442 5280 	orr.w	r2, r2, #4096	@ 0x1000
 8001d1a:	619a      	str	r2, [r3, #24]
 8001d1c:	687b      	ldr	r3, [r7, #4]
 8001d1e:	681b      	ldr	r3, [r3, #0]
 8001d20:	699b      	ldr	r3, [r3, #24]
 8001d22:	f423 7140 	bic.w	r1, r3, #768	@ 0x300
 8001d26:	687b      	ldr	r3, [r7, #4]
 8001d28:	689a      	ldr	r2, [r3, #8]
 8001d2a:	687b      	ldr	r3, [r7, #4]
 8001d2c:	681b      	ldr	r3, [r3, #0]
 8001d2e:	430a      	orrs	r2, r1
 8001d30:	619a      	str	r2, [r3, #24]
 8001d32:	687b      	ldr	r3, [r7, #4]
 8001d34:	681b      	ldr	r3, [r3, #0]
 8001d36:	699a      	ldr	r2, [r3, #24]
 8001d38:	687b      	ldr	r3, [r7, #4]
 8001d3a:	681b      	ldr	r3, [r3, #0]
 8001d3c:	f022 02a4 	bic.w	r2, r2, #164	@ 0xa4
 8001d40:	619a      	str	r2, [r3, #24]
 8001d42:	687b      	ldr	r3, [r7, #4]
 8001d44:	681b      	ldr	r3, [r3, #0]
 8001d46:	691a      	ldr	r2, [r3, #16]
 8001d48:	687b      	ldr	r3, [r7, #4]
 8001d4a:	681b      	ldr	r3, [r3, #0]
 8001d4c:	f022 0210 	bic.w	r2, r2, #16
 8001d50:	611a      	str	r2, [r3, #16]
 8001d52:	687b      	ldr	r3, [r7, #4]
 8001d54:	68db      	ldr	r3, [r3, #12]
 8001d56:	2b01      	cmp	r3, #1
 8001d58:	d108      	bne.n	8001d6c <HAL_FDCAN_Init+0x1b4>
 8001d5a:	687b      	ldr	r3, [r7, #4]
 8001d5c:	681b      	ldr	r3, [r3, #0]
 8001d5e:	699a      	ldr	r2, [r3, #24]
 8001d60:	687b      	ldr	r3, [r7, #4]
 8001d62:	681b      	ldr	r3, [r3, #0]
 8001d64:	f042 0204 	orr.w	r2, r2, #4
 8001d68:	619a      	str	r2, [r3, #24]
 8001d6a:	e02c      	b.n	8001dc6 <HAL_FDCAN_Init+0x20e>
 8001d6c:	687b      	ldr	r3, [r7, #4]
 8001d6e:	68db      	ldr	r3, [r3, #12]
 8001d70:	2b00      	cmp	r3, #0
 8001d72:	d028      	beq.n	8001dc6 <HAL_FDCAN_Init+0x20e>
 8001d74:	687b      	ldr	r3, [r7, #4]
 8001d76:	68db      	ldr	r3, [r3, #12]
 8001d78:	2b02      	cmp	r3, #2
 8001d7a:	d01c      	beq.n	8001db6 <HAL_FDCAN_Init+0x1fe>
 8001d7c:	687b      	ldr	r3, [r7, #4]
 8001d7e:	681b      	ldr	r3, [r3, #0]
 8001d80:	699a      	ldr	r2, [r3, #24]
 8001d82:	687b      	ldr	r3, [r7, #4]
 8001d84:	681b      	ldr	r3, [r3, #0]
 8001d86:	f042 0280 	orr.w	r2, r2, #128	@ 0x80
 8001d8a:	619a      	str	r2, [r3, #24]
 8001d8c:	687b      	ldr	r3, [r7, #4]
 8001d8e:	681b      	ldr	r3, [r3, #0]
 8001d90:	691a      	ldr	r2, [r3, #16]
 8001d92:	687b      	ldr	r3, [r7, #4]
 8001d94:	681b      	ldr	r3, [r3, #0]
 8001d96:	f042 0210 	orr.w	r2, r2, #16
 8001d9a:	611a      	str	r2, [r3, #16]
 8001d9c:	687b      	ldr	r3, [r7, #4]
 8001d9e:	68db      	ldr	r3, [r3, #12]
 8001da0:	2b03      	cmp	r3, #3
 8001da2:	d110      	bne.n	8001dc6 <HAL_FDCAN_Init+0x20e>
 8001da4:	687b      	ldr	r3, [r7, #4]
 8001da6:	681b      	ldr	r3, [r3, #0]
 8001da8:	699a      	ldr	r2, [r3, #24]
 8001daa:	687b      	ldr	r3, [r7, #4]
 8001dac:	681b      	ldr	r3, [r3, #0]
 8001dae:	f042 0220 	orr.w	r2, r2, #32
 8001db2:	619a      	str	r2, [r3, #24]
 8001db4:	e007      	b.n	8001dc6 <HAL_FDCAN_Init+0x20e>
 8001db6:	687b      	ldr	r3, [r7, #4]
 8001db8:	681b      	ldr	r3, [r3, #0]
 8001dba:	699a      	ldr	r2, [r3, #24]
 8001dbc:	687b      	ldr	r3, [r7, #4]
 8001dbe:	681b      	ldr	r3, [r3, #0]
 8001dc0:	f042 0220 	orr.w	r2, r2, #32
 8001dc4:	619a      	str	r2, [r3, #24]
 8001dc6:	687b      	ldr	r3, [r7, #4]
 8001dc8:	699b      	ldr	r3, [r3, #24]
 8001dca:	3b01      	subs	r3, #1
 8001dcc:	065a      	lsls	r2, r3, #25
 8001dce:	687b      	ldr	r3, [r7, #4]
 8001dd0:	69db      	ldr	r3, [r3, #28]
 8001dd2:	3b01      	subs	r3, #1
 8001dd4:	021b      	lsls	r3, r3, #8
 8001dd6:	431a      	orrs	r2, r3
 8001dd8:	687b      	ldr	r3, [r7, #4]
 8001dda:	6a1b      	ldr	r3, [r3, #32]
 8001ddc:	3b01      	subs	r3, #1
 8001dde:	ea42 0103 	orr.w	r1, r2, r3
 8001de2:	687b      	ldr	r3, [r7, #4]
 8001de4:	695b      	ldr	r3, [r3, #20]
 8001de6:	3b01      	subs	r3, #1
 8001de8:	041a      	lsls	r2, r3, #16
 8001dea:	687b      	ldr	r3, [r7, #4]
 8001dec:	681b      	ldr	r3, [r3, #0]
 8001dee:	430a      	orrs	r2, r1
 8001df0:	61da      	str	r2, [r3, #28]
 8001df2:	687b      	ldr	r3, [r7, #4]
 8001df4:	689b      	ldr	r3, [r3, #8]
 8001df6:	f5b3 7f40 	cmp.w	r3, #768	@ 0x300
 8001dfa:	d115      	bne.n	8001e28 <HAL_FDCAN_Init+0x270>
 8001dfc:	687b      	ldr	r3, [r7, #4]
 8001dfe:	6a9b      	ldr	r3, [r3, #40]	@ 0x28
 8001e00:	1e5a      	subs	r2, r3, #1
 8001e02:	687b      	ldr	r3, [r7, #4]
 8001e04:	6adb      	ldr	r3, [r3, #44]	@ 0x2c
 8001e06:	3b01      	subs	r3, #1
 8001e08:	021b      	lsls	r3, r3, #8
 8001e0a:	431a      	orrs	r2, r3
 8001e0c:	687b      	ldr	r3, [r7, #4]
 8001e0e:	6b1b      	ldr	r3, [r3, #48]	@ 0x30
 8001e10:	3b01      	subs	r3, #1
 8001e12:	011b      	lsls	r3, r3, #4
 8001e14:	ea42 0103 	orr.w	r1, r2, r3
 8001e18:	687b      	ldr	r3, [r7, #4]
 8001e1a:	6a5b      	ldr	r3, [r3, #36]	@ 0x24
 8001e1c:	3b01      	subs	r3, #1
 8001e1e:	041a      	lsls	r2, r3, #16
 8001e20:	687b      	ldr	r3, [r7, #4]
 8001e22:	681b      	ldr	r3, [r3, #0]
 8001e24:	430a      	orrs	r2, r1
 8001e26:	60da      	str	r2, [r3, #12]
 8001e28:	687b      	ldr	r3, [r7, #4]
 8001e2a:	681b      	ldr	r3, [r3, #0]
 8001e2c:	f8d3 10c0 	ldr.w	r1, [r3, #192]	@ 0xc0
 8001e30:	687b      	ldr	r3, [r7, #4]
 8001e32:	6bda      	ldr	r2, [r3, #60]	@ 0x3c
 8001e34:	687b      	ldr	r3, [r7, #4]
 8001e36:	681b      	ldr	r3, [r3, #0]
 8001e38:	430a      	orrs	r2, r1
 8001e3a:	f8c3 20c0 	str.w	r2, [r3, #192]	@ 0xc0
 8001e3e:	6878      	ldr	r0, [r7, #4]
 8001e40:	f000 fa66 	bl	8002310 <FDCAN_CalcultateRamBlockAddresses>
 8001e44:	687b      	ldr	r3, [r7, #4]
 8001e46:	2200      	movs	r2, #0
 8001e48:	659a      	str	r2, [r3, #88]	@ 0x58
 8001e4a:	687b      	ldr	r3, [r7, #4]
 8001e4c:	2200      	movs	r2, #0
 8001e4e:	661a      	str	r2, [r3, #96]	@ 0x60
 8001e50:	687b      	ldr	r3, [r7, #4]
 8001e52:	2201      	movs	r2, #1
 8001e54:	f883 205c 	strb.w	r2, [r3, #92]	@ 0x5c
 8001e58:	2300      	movs	r3, #0
 8001e5a:	4618      	mov	r0, r3
 8001e5c:	3710      	adds	r7, #16
 8001e5e:	46bd      	mov	sp, r7
 8001e60:	bd80      	pop	{r7, pc}
 8001e62:	bf00      	nop
 8001e64:	40006400 	.word	0x40006400
 8001e68:	40006500 	.word	0x40006500

08001e6c <HAL_FDCAN_ConfigFilter>:
 8001e6c:	b480      	push	{r7}
 8001e6e:	b087      	sub	sp, #28
 8001e70:	af00      	add	r7, sp, #0
 8001e72:	6078      	str	r0, [r7, #4]
 8001e74:	6039      	str	r1, [r7, #0]
 8001e76:	687b      	ldr	r3, [r7, #4]
 8001e78:	f893 305c 	ldrb.w	r3, [r3, #92]	@ 0x5c
 8001e7c:	75fb      	strb	r3, [r7, #23]
 8001e7e:	7dfb      	ldrb	r3, [r7, #23]
 8001e80:	2b01      	cmp	r3, #1
 8001e82:	d002      	beq.n	8001e8a <HAL_FDCAN_ConfigFilter+0x1e>
 8001e84:	7dfb      	ldrb	r3, [r7, #23]
 8001e86:	2b02      	cmp	r3, #2
 8001e88:	d13d      	bne.n	8001f06 <HAL_FDCAN_ConfigFilter+0x9a>
 8001e8a:	683b      	ldr	r3, [r7, #0]
 8001e8c:	681b      	ldr	r3, [r3, #0]
 8001e8e:	2b00      	cmp	r3, #0
 8001e90:	d119      	bne.n	8001ec6 <HAL_FDCAN_ConfigFilter+0x5a>
 8001e92:	683b      	ldr	r3, [r7, #0]
 8001e94:	689b      	ldr	r3, [r3, #8]
 8001e96:	079a      	lsls	r2, r3, #30
 8001e98:	683b      	ldr	r3, [r7, #0]
 8001e9a:	68db      	ldr	r3, [r3, #12]
 8001e9c:	06db      	lsls	r3, r3, #27
 8001e9e:	431a      	orrs	r2, r3
 8001ea0:	683b      	ldr	r3, [r7, #0]
 8001ea2:	691b      	ldr	r3, [r3, #16]
 8001ea4:	041b      	lsls	r3, r3, #16
 8001ea6:	431a      	orrs	r2, r3
 8001ea8:	683b      	ldr	r3, [r7, #0]
 8001eaa:	695b      	ldr	r3, [r3, #20]
 8001eac:	4313      	orrs	r3, r2
 8001eae:	613b      	str	r3, [r7, #16]
 8001eb0:	687b      	ldr	r3, [r7, #4]
 8001eb2:	6c1a      	ldr	r2, [r3, #64]	@ 0x40
 8001eb4:	683b      	ldr	r3, [r7, #0]
 8001eb6:	685b      	ldr	r3, [r3, #4]
 8001eb8:	009b      	lsls	r3, r3, #2
 8001eba:	4413      	add	r3, r2
 8001ebc:	60bb      	str	r3, [r7, #8]
 8001ebe:	68bb      	ldr	r3, [r7, #8]
 8001ec0:	693a      	ldr	r2, [r7, #16]
 8001ec2:	601a      	str	r2, [r3, #0]
 8001ec4:	e01d      	b.n	8001f02 <HAL_FDCAN_ConfigFilter+0x96>
 8001ec6:	683b      	ldr	r3, [r7, #0]
 8001ec8:	68db      	ldr	r3, [r3, #12]
 8001eca:	075a      	lsls	r2, r3, #29
 8001ecc:	683b      	ldr	r3, [r7, #0]
 8001ece:	691b      	ldr	r3, [r3, #16]
 8001ed0:	4313      	orrs	r3, r2
 8001ed2:	613b      	str	r3, [r7, #16]
 8001ed4:	683b      	ldr	r3, [r7, #0]
 8001ed6:	689b      	ldr	r3, [r3, #8]
 8001ed8:	079a      	lsls	r2, r3, #30
 8001eda:	683b      	ldr	r3, [r7, #0]
 8001edc:	695b      	ldr	r3, [r3, #20]
 8001ede:	4313      	orrs	r3, r2
 8001ee0:	60fb      	str	r3, [r7, #12]
 8001ee2:	687b      	ldr	r3, [r7, #4]
 8001ee4:	6c5a      	ldr	r2, [r3, #68]	@ 0x44
 8001ee6:	683b      	ldr	r3, [r7, #0]
 8001ee8:	685b      	ldr	r3, [r3, #4]
 8001eea:	00db      	lsls	r3, r3, #3
 8001eec:	4413      	add	r3, r2
 8001eee:	60bb      	str	r3, [r7, #8]
 8001ef0:	68bb      	ldr	r3, [r7, #8]
 8001ef2:	693a      	ldr	r2, [r7, #16]
 8001ef4:	601a      	str	r2, [r3, #0]
 8001ef6:	68bb      	ldr	r3, [r7, #8]
 8001ef8:	3304      	adds	r3, #4
 8001efa:	60bb      	str	r3, [r7, #8]
 8001efc:	68bb      	ldr	r3, [r7, #8]
 8001efe:	68fa      	ldr	r2, [r7, #12]
 8001f00:	601a      	str	r2, [r3, #0]
 8001f02:	2300      	movs	r3, #0
 8001f04:	e006      	b.n	8001f14 <HAL_FDCAN_ConfigFilter+0xa8>
 8001f06:	687b      	ldr	r3, [r7, #4]
 8001f08:	6e1b      	ldr	r3, [r3, #96]	@ 0x60
 8001f0a:	f043 0202 	orr.w	r2, r3, #2
 8001f0e:	687b      	ldr	r3, [r7, #4]
 8001f10:	661a      	str	r2, [r3, #96]	@ 0x60
 8001f12:	2301      	movs	r3, #1
 8001f14:	4618      	mov	r0, r3
 8001f16:	371c      	adds	r7, #28
 8001f18:	46bd      	mov	sp, r7
 8001f1a:	f85d 7b04 	ldr.w	r7, [sp], #4
 8001f1e:	4770      	bx	lr

08001f20 <HAL_FDCAN_ConfigGlobalFilter>:
 8001f20:	b480      	push	{r7}
 8001f22:	b085      	sub	sp, #20
 8001f24:	af00      	add	r7, sp, #0
 8001f26:	60f8      	str	r0, [r7, #12]
 8001f28:	60b9      	str	r1, [r7, #8]
 8001f2a:	607a      	str	r2, [r7, #4]
 8001f2c:	603b      	str	r3, [r7, #0]
 8001f2e:	68fb      	ldr	r3, [r7, #12]
 8001f30:	f893 305c 	ldrb.w	r3, [r3, #92]	@ 0x5c
 8001f34:	b2db      	uxtb	r3, r3
 8001f36:	2b01      	cmp	r3, #1
 8001f38:	d116      	bne.n	8001f68 <HAL_FDCAN_ConfigGlobalFilter+0x48>
 8001f3a:	68fb      	ldr	r3, [r7, #12]
 8001f3c:	681b      	ldr	r3, [r3, #0]
 8001f3e:	f8d3 3080 	ldr.w	r3, [r3, #128]	@ 0x80
 8001f42:	f023 013f 	bic.w	r1, r3, #63	@ 0x3f
 8001f46:	68bb      	ldr	r3, [r7, #8]
 8001f48:	011a      	lsls	r2, r3, #4
 8001f4a:	687b      	ldr	r3, [r7, #4]
 8001f4c:	009b      	lsls	r3, r3, #2
 8001f4e:	431a      	orrs	r2, r3
 8001f50:	683b      	ldr	r3, [r7, #0]
 8001f52:	005b      	lsls	r3, r3, #1
 8001f54:	431a      	orrs	r2, r3
 8001f56:	69bb      	ldr	r3, [r7, #24]
 8001f58:	431a      	orrs	r2, r3
 8001f5a:	68fb      	ldr	r3, [r7, #12]
 8001f5c:	681b      	ldr	r3, [r3, #0]
 8001f5e:	430a      	orrs	r2, r1
 8001f60:	f8c3 2080 	str.w	r2, [r3, #128]	@ 0x80
 8001f64:	2300      	movs	r3, #0
 8001f66:	e006      	b.n	8001f76 <HAL_FDCAN_ConfigGlobalFilter+0x56>
 8001f68:	68fb      	ldr	r3, [r7, #12]
 8001f6a:	6e1b      	ldr	r3, [r3, #96]	@ 0x60
 8001f6c:	f043 0204 	orr.w	r2, r3, #4
 8001f70:	68fb      	ldr	r3, [r7, #12]
 8001f72:	661a      	str	r2, [r3, #96]	@ 0x60
 8001f74:	2301      	movs	r3, #1
 8001f76:	4618      	mov	r0, r3
 8001f78:	3714      	adds	r7, #20
 8001f7a:	46bd      	mov	sp, r7
 8001f7c:	f85d 7b04 	ldr.w	r7, [sp], #4
 8001f80:	4770      	bx	lr

08001f82 <HAL_FDCAN_Start>:
 8001f82:	b480      	push	{r7}
 8001f84:	b083      	sub	sp, #12
 8001f86:	af00      	add	r7, sp, #0
 8001f88:	6078      	str	r0, [r7, #4]
 8001f8a:	687b      	ldr	r3, [r7, #4]
 8001f8c:	f893 305c 	ldrb.w	r3, [r3, #92]	@ 0x5c
 8001f90:	b2db      	uxtb	r3, r3
 8001f92:	2b01      	cmp	r3, #1
 8001f94:	d110      	bne.n	8001fb8 <HAL_FDCAN_Start+0x36>
 8001f96:	687b      	ldr	r3, [r7, #4]
 8001f98:	2202      	movs	r2, #2
 8001f9a:	f883 205c 	strb.w	r2, [r3, #92]	@ 0x5c
 8001f9e:	687b      	ldr	r3, [r7, #4]
 8001fa0:	681b      	ldr	r3, [r3, #0]
 8001fa2:	699a      	ldr	r2, [r3, #24]
 8001fa4:	687b      	ldr	r3, [r7, #4]
 8001fa6:	681b      	ldr	r3, [r3, #0]
 8001fa8:	f022 0201 	bic.w	r2, r2, #1
 8001fac:	619a      	str	r2, [r3, #24]
 8001fae:	687b      	ldr	r3, [r7, #4]
 8001fb0:	2200      	movs	r2, #0
 8001fb2:	661a      	str	r2, [r3, #96]	@ 0x60
 8001fb4:	2300      	movs	r3, #0
 8001fb6:	e006      	b.n	8001fc6 <HAL_FDCAN_Start+0x44>
 8001fb8:	687b      	ldr	r3, [r7, #4]
 8001fba:	6e1b      	ldr	r3, [r3, #96]	@ 0x60
 8001fbc:	f043 0204 	orr.w	r2, r3, #4
 8001fc0:	687b      	ldr	r3, [r7, #4]
 8001fc2:	661a      	str	r2, [r3, #96]	@ 0x60
 8001fc4:	2301      	movs	r3, #1
 8001fc6:	4618      	mov	r0, r3
 8001fc8:	370c      	adds	r7, #12
 8001fca:	46bd      	mov	sp, r7
 8001fcc:	f85d 7b04 	ldr.w	r7, [sp], #4
 8001fd0:	4770      	bx	lr

08001fd2 <HAL_FDCAN_AddMessageToTxFifoQ>:
 8001fd2:	b580      	push	{r7, lr}
 8001fd4:	b086      	sub	sp, #24
 8001fd6:	af00      	add	r7, sp, #0
 8001fd8:	60f8      	str	r0, [r7, #12]
 8001fda:	60b9      	str	r1, [r7, #8]
 8001fdc:	607a      	str	r2, [r7, #4]
 8001fde:	68fb      	ldr	r3, [r7, #12]
 8001fe0:	f893 305c 	ldrb.w	r3, [r3, #92]	@ 0x5c
 8001fe4:	b2db      	uxtb	r3, r3
 8001fe6:	2b02      	cmp	r3, #2
 8001fe8:	d12c      	bne.n	8002044 <HAL_FDCAN_AddMessageToTxFifoQ+0x72>
 8001fea:	68fb      	ldr	r3, [r7, #12]
 8001fec:	681b      	ldr	r3, [r3, #0]
 8001fee:	f8d3 30c4 	ldr.w	r3, [r3, #196]	@ 0xc4
 8001ff2:	f403 1300 	and.w	r3, r3, #2097152	@ 0x200000
 8001ff6:	2b00      	cmp	r3, #0
 8001ff8:	d007      	beq.n	800200a <HAL_FDCAN_AddMessageToTxFifoQ+0x38>
 8001ffa:	68fb      	ldr	r3, [r7, #12]
 8001ffc:	6e1b      	ldr	r3, [r3, #96]	@ 0x60
 8001ffe:	f443 7200 	orr.w	r2, r3, #512	@ 0x200
 8002002:	68fb      	ldr	r3, [r7, #12]
 8002004:	661a      	str	r2, [r3, #96]	@ 0x60
 8002006:	2301      	movs	r3, #1
 8002008:	e023      	b.n	8002052 <HAL_FDCAN_AddMessageToTxFifoQ+0x80>
 800200a:	68fb      	ldr	r3, [r7, #12]
 800200c:	681b      	ldr	r3, [r3, #0]
 800200e:	f8d3 30c4 	ldr.w	r3, [r3, #196]	@ 0xc4
 8002012:	0c1b      	lsrs	r3, r3, #16
 8002014:	f003 0303 	and.w	r3, r3, #3
 8002018:	617b      	str	r3, [r7, #20]
 800201a:	697b      	ldr	r3, [r7, #20]
 800201c:	687a      	ldr	r2, [r7, #4]
 800201e:	68b9      	ldr	r1, [r7, #8]
 8002020:	68f8      	ldr	r0, [r7, #12]
 8002022:	f000 f9d7 	bl	80023d4 <FDCAN_CopyMessageToRAM>
 8002026:	68fb      	ldr	r3, [r7, #12]
 8002028:	681b      	ldr	r3, [r3, #0]
 800202a:	2101      	movs	r1, #1
 800202c:	697a      	ldr	r2, [r7, #20]
 800202e:	fa01 f202 	lsl.w	r2, r1, r2
 8002032:	f8c3 20cc 	str.w	r2, [r3, #204]	@ 0xcc
 8002036:	2201      	movs	r2, #1
 8002038:	697b      	ldr	r3, [r7, #20]
 800203a:	409a      	lsls	r2, r3
 800203c:	68fb      	ldr	r3, [r7, #12]
 800203e:	659a      	str	r2, [r3, #88]	@ 0x58
 8002040:	2300      	movs	r3, #0
 8002042:	e006      	b.n	8002052 <HAL_FDCAN_AddMessageToTxFifoQ+0x80>
 8002044:	68fb      	ldr	r3, [r7, #12]
 8002046:	6e1b      	ldr	r3, [r3, #96]	@ 0x60
 8002048:	f043 0208 	orr.w	r2, r3, #8
 800204c:	68fb      	ldr	r3, [r7, #12]
 800204e:	661a      	str	r2, [r3, #96]	@ 0x60
 8002050:	2301      	movs	r3, #1
 8002052:	4618      	mov	r0, r3
 8002054:	3718      	adds	r7, #24
 8002056:	46bd      	mov	sp, r7
 8002058:	bd80      	pop	{r7, pc}

0800205a <HAL_FDCAN_GetProtocolStatus>:
 800205a:	b480      	push	{r7}
 800205c:	b085      	sub	sp, #20
 800205e:	af00      	add	r7, sp, #0
 8002060:	6078      	str	r0, [r7, #4]
 8002062:	6039      	str	r1, [r7, #0]
 8002064:	687b      	ldr	r3, [r7, #4]
 8002066:	681b      	ldr	r3, [r3, #0]
 8002068:	6c5b      	ldr	r3, [r3, #68]	@ 0x44
 800206a:	60fb      	str	r3, [r7, #12]
 800206c:	68fb      	ldr	r3, [r7, #12]
 800206e:	f003 0207 	and.w	r2, r3, #7
 8002072:	683b      	ldr	r3, [r7, #0]
 8002074:	601a      	str	r2, [r3, #0]
 8002076:	68fb      	ldr	r3, [r7, #12]
 8002078:	0a1b      	lsrs	r3, r3, #8
 800207a:	f003 0207 	and.w	r2, r3, #7
 800207e:	683b      	ldr	r3, [r7, #0]
 8002080:	605a      	str	r2, [r3, #4]
 8002082:	68fb      	ldr	r3, [r7, #12]
 8002084:	f003 0218 	and.w	r2, r3, #24
 8002088:	683b      	ldr	r3, [r7, #0]
 800208a:	609a      	str	r2, [r3, #8]
 800208c:	68fb      	ldr	r3, [r7, #12]
 800208e:	095b      	lsrs	r3, r3, #5
 8002090:	f003 0201 	and.w	r2, r3, #1
 8002094:	683b      	ldr	r3, [r7, #0]
 8002096:	60da      	str	r2, [r3, #12]
 8002098:	68fb      	ldr	r3, [r7, #12]
 800209a:	099b      	lsrs	r3, r3, #6
 800209c:	f003 0201 	and.w	r2, r3, #1
 80020a0:	683b      	ldr	r3, [r7, #0]
 80020a2:	611a      	str	r2, [r3, #16]
 80020a4:	68fb      	ldr	r3, [r7, #12]
 80020a6:	09db      	lsrs	r3, r3, #7
 80020a8:	f003 0201 	and.w	r2, r3, #1
 80020ac:	683b      	ldr	r3, [r7, #0]
 80020ae:	615a      	str	r2, [r3, #20]
 80020b0:	68fb      	ldr	r3, [r7, #12]
 80020b2:	0adb      	lsrs	r3, r3, #11
 80020b4:	f003 0201 	and.w	r2, r3, #1
 80020b8:	683b      	ldr	r3, [r7, #0]
 80020ba:	619a      	str	r2, [r3, #24]
 80020bc:	68fb      	ldr	r3, [r7, #12]
 80020be:	0b1b      	lsrs	r3, r3, #12
 80020c0:	f003 0201 	and.w	r2, r3, #1
 80020c4:	683b      	ldr	r3, [r7, #0]
 80020c6:	61da      	str	r2, [r3, #28]
 80020c8:	68fb      	ldr	r3, [r7, #12]
 80020ca:	0b5b      	lsrs	r3, r3, #13
 80020cc:	f003 0201 	and.w	r2, r3, #1
 80020d0:	683b      	ldr	r3, [r7, #0]
 80020d2:	621a      	str	r2, [r3, #32]
 80020d4:	68fb      	ldr	r3, [r7, #12]
 80020d6:	0b9b      	lsrs	r3, r3, #14
 80020d8:	f003 0201 	and.w	r2, r3, #1
 80020dc:	683b      	ldr	r3, [r7, #0]
 80020de:	625a      	str	r2, [r3, #36]	@ 0x24
 80020e0:	68fb      	ldr	r3, [r7, #12]
 80020e2:	0c1b      	lsrs	r3, r3, #16
 80020e4:	f003 027f 	and.w	r2, r3, #127	@ 0x7f
 80020e8:	683b      	ldr	r3, [r7, #0]
 80020ea:	629a      	str	r2, [r3, #40]	@ 0x28
 80020ec:	2300      	movs	r3, #0
 80020ee:	4618      	mov	r0, r3
 80020f0:	3714      	adds	r7, #20
 80020f2:	46bd      	mov	sp, r7
 80020f4:	f85d 7b04 	ldr.w	r7, [sp], #4
 80020f8:	4770      	bx	lr

080020fa <HAL_FDCAN_GetErrorCounters>:
 80020fa:	b480      	push	{r7}
 80020fc:	b085      	sub	sp, #20
 80020fe:	af00      	add	r7, sp, #0
 8002100:	6078      	str	r0, [r7, #4]
 8002102:	6039      	str	r1, [r7, #0]
 8002104:	687b      	ldr	r3, [r7, #4]
 8002106:	681b      	ldr	r3, [r3, #0]
 8002108:	6c1b      	ldr	r3, [r3, #64]	@ 0x40
 800210a:	60fb      	str	r3, [r7, #12]
 800210c:	68fb      	ldr	r3, [r7, #12]
 800210e:	b2da      	uxtb	r2, r3
 8002110:	683b      	ldr	r3, [r7, #0]
 8002112:	601a      	str	r2, [r3, #0]
 8002114:	68fb      	ldr	r3, [r7, #12]
 8002116:	0a1b      	lsrs	r3, r3, #8
 8002118:	f003 027f 	and.w	r2, r3, #127	@ 0x7f
 800211c:	683b      	ldr	r3, [r7, #0]
 800211e:	605a      	str	r2, [r3, #4]
 8002120:	68fb      	ldr	r3, [r7, #12]
 8002122:	0bdb      	lsrs	r3, r3, #15
 8002124:	f003 0201 	and.w	r2, r3, #1
 8002128:	683b      	ldr	r3, [r7, #0]
 800212a:	609a      	str	r2, [r3, #8]
 800212c:	68fb      	ldr	r3, [r7, #12]
 800212e:	0c1b      	lsrs	r3, r3, #16
 8002130:	b2da      	uxtb	r2, r3
 8002132:	683b      	ldr	r3, [r7, #0]
 8002134:	60da      	str	r2, [r3, #12]
 8002136:	2300      	movs	r3, #0
 8002138:	4618      	mov	r0, r3
 800213a:	3714      	adds	r7, #20
 800213c:	46bd      	mov	sp, r7
 800213e:	f85d 7b04 	ldr.w	r7, [sp], #4
 8002142:	4770      	bx	lr

08002144 <HAL_FDCAN_ActivateNotification>:
 8002144:	b480      	push	{r7}
 8002146:	b087      	sub	sp, #28
 8002148:	af00      	add	r7, sp, #0
 800214a:	60f8      	str	r0, [r7, #12]
 800214c:	60b9      	str	r1, [r7, #8]
 800214e:	607a      	str	r2, [r7, #4]
 8002150:	68fb      	ldr	r3, [r7, #12]
 8002152:	f893 305c 	ldrb.w	r3, [r3, #92]	@ 0x5c
 8002156:	75fb      	strb	r3, [r7, #23]
 8002158:	7dfb      	ldrb	r3, [r7, #23]
 800215a:	2b01      	cmp	r3, #1
 800215c:	d003      	beq.n	8002166 <HAL_FDCAN_ActivateNotification+0x22>
 800215e:	7dfb      	ldrb	r3, [r7, #23]
 8002160:	2b02      	cmp	r3, #2
 8002162:	f040 80c8 	bne.w	80022f6 <HAL_FDCAN_ActivateNotification+0x1b2>
 8002166:	68fb      	ldr	r3, [r7, #12]
 8002168:	681b      	ldr	r3, [r3, #0]
 800216a:	6d9b      	ldr	r3, [r3, #88]	@ 0x58
 800216c:	613b      	str	r3, [r7, #16]
 800216e:	68bb      	ldr	r3, [r7, #8]
 8002170:	f003 0307 	and.w	r3, r3, #7
 8002174:	2b00      	cmp	r3, #0
 8002176:	d004      	beq.n	8002182 <HAL_FDCAN_ActivateNotification+0x3e>
 8002178:	693b      	ldr	r3, [r7, #16]
 800217a:	f003 0301 	and.w	r3, r3, #1
 800217e:	2b00      	cmp	r3, #0
 8002180:	d03b      	beq.n	80021fa <HAL_FDCAN_ActivateNotification+0xb6>
 8002182:	68bb      	ldr	r3, [r7, #8]
 8002184:	f003 0338 	and.w	r3, r3, #56	@ 0x38
 8002188:	2b00      	cmp	r3, #0
 800218a:	d004      	beq.n	8002196 <HAL_FDCAN_ActivateNotification+0x52>
 800218c:	693b      	ldr	r3, [r7, #16]
 800218e:	f003 0302 	and.w	r3, r3, #2
 8002192:	2b00      	cmp	r3, #0
 8002194:	d031      	beq.n	80021fa <HAL_FDCAN_ActivateNotification+0xb6>
 8002196:	68bb      	ldr	r3, [r7, #8]
 8002198:	f403 73e0 	and.w	r3, r3, #448	@ 0x1c0
 800219c:	2b00      	cmp	r3, #0
 800219e:	d004      	beq.n	80021aa <HAL_FDCAN_ActivateNotification+0x66>
 80021a0:	693b      	ldr	r3, [r7, #16]
 80021a2:	f003 0304 	and.w	r3, r3, #4
 80021a6:	2b00      	cmp	r3, #0
 80021a8:	d027      	beq.n	80021fa <HAL_FDCAN_ActivateNotification+0xb6>
 80021aa:	68bb      	ldr	r3, [r7, #8]
 80021ac:	f403 53f0 	and.w	r3, r3, #7680	@ 0x1e00
 80021b0:	2b00      	cmp	r3, #0
 80021b2:	d004      	beq.n	80021be <HAL_FDCAN_ActivateNotification+0x7a>
 80021b4:	693b      	ldr	r3, [r7, #16]
 80021b6:	f003 0308 	and.w	r3, r3, #8
 80021ba:	2b00      	cmp	r3, #0
 80021bc:	d01d      	beq.n	80021fa <HAL_FDCAN_ActivateNotification+0xb6>
 80021be:	68bb      	ldr	r3, [r7, #8]
 80021c0:	f403 4360 	and.w	r3, r3, #57344	@ 0xe000
 80021c4:	2b00      	cmp	r3, #0
 80021c6:	d004      	beq.n	80021d2 <HAL_FDCAN_ActivateNotification+0x8e>
 80021c8:	693b      	ldr	r3, [r7, #16]
 80021ca:	f003 0310 	and.w	r3, r3, #16
 80021ce:	2b00      	cmp	r3, #0
 80021d0:	d013      	beq.n	80021fa <HAL_FDCAN_ActivateNotification+0xb6>
 80021d2:	68bb      	ldr	r3, [r7, #8]
 80021d4:	f403 3340 	and.w	r3, r3, #196608	@ 0x30000
 80021d8:	2b00      	cmp	r3, #0
 80021da:	d004      	beq.n	80021e6 <HAL_FDCAN_ActivateNotification+0xa2>
 80021dc:	693b      	ldr	r3, [r7, #16]
 80021de:	f003 0320 	and.w	r3, r3, #32
 80021e2:	2b00      	cmp	r3, #0
 80021e4:	d009      	beq.n	80021fa <HAL_FDCAN_ActivateNotification+0xb6>
 80021e6:	68bb      	ldr	r3, [r7, #8]
 80021e8:	f403 037c 	and.w	r3, r3, #16515072	@ 0xfc0000
 80021ec:	2b00      	cmp	r3, #0
 80021ee:	d00c      	beq.n	800220a <HAL_FDCAN_ActivateNotification+0xc6>
 80021f0:	693b      	ldr	r3, [r7, #16]
 80021f2:	f003 0340 	and.w	r3, r3, #64	@ 0x40
 80021f6:	2b00      	cmp	r3, #0
 80021f8:	d107      	bne.n	800220a <HAL_FDCAN_ActivateNotification+0xc6>
 80021fa:	68fb      	ldr	r3, [r7, #12]
 80021fc:	681b      	ldr	r3, [r3, #0]
 80021fe:	6dda      	ldr	r2, [r3, #92]	@ 0x5c
 8002200:	68fb      	ldr	r3, [r7, #12]
 8002202:	681b      	ldr	r3, [r3, #0]
 8002204:	f042 0201 	orr.w	r2, r2, #1
 8002208:	65da      	str	r2, [r3, #92]	@ 0x5c
 800220a:	68bb      	ldr	r3, [r7, #8]
 800220c:	f003 0307 	and.w	r3, r3, #7
 8002210:	2b00      	cmp	r3, #0
 8002212:	d004      	beq.n	800221e <HAL_FDCAN_ActivateNotification+0xda>
 8002214:	693b      	ldr	r3, [r7, #16]
 8002216:	f003 0301 	and.w	r3, r3, #1
 800221a:	2b00      	cmp	r3, #0
 800221c:	d13b      	bne.n	8002296 <HAL_FDCAN_ActivateNotification+0x152>
 800221e:	68bb      	ldr	r3, [r7, #8]
 8002220:	f003 0338 	and.w	r3, r3, #56	@ 0x38
 8002224:	2b00      	cmp	r3, #0
 8002226:	d004      	beq.n	8002232 <HAL_FDCAN_ActivateNotification+0xee>
 8002228:	693b      	ldr	r3, [r7, #16]
 800222a:	f003 0302 	and.w	r3, r3, #2
 800222e:	2b00      	cmp	r3, #0
 8002230:	d131      	bne.n	8002296 <HAL_FDCAN_ActivateNotification+0x152>
 8002232:	68bb      	ldr	r3, [r7, #8]
 8002234:	f403 73e0 	and.w	r3, r3, #448	@ 0x1c0
 8002238:	2b00      	cmp	r3, #0
 800223a:	d004      	beq.n	8002246 <HAL_FDCAN_ActivateNotification+0x102>
 800223c:	693b      	ldr	r3, [r7, #16]
 800223e:	f003 0304 	and.w	r3, r3, #4
 8002242:	2b00      	cmp	r3, #0
 8002244:	d127      	bne.n	8002296 <HAL_FDCAN_ActivateNotification+0x152>
 8002246:	68bb      	ldr	r3, [r7, #8]
 8002248:	f403 53f0 	and.w	r3, r3, #7680	@ 0x1e00
 800224c:	2b00      	cmp	r3, #0
 800224e:	d004      	beq.n	800225a <HAL_FDCAN_ActivateNotification+0x116>
 8002250:	693b      	ldr	r3, [r7, #16]
 8002252:	f003 0308 	and.w	r3, r3, #8
 8002256:	2b00      	cmp	r3, #0
 8002258:	d11d      	bne.n	8002296 <HAL_FDCAN_ActivateNotification+0x152>
 800225a:	68bb      	ldr	r3, [r7, #8]
 800225c:	f403 4360 	and.w	r3, r3, #57344	@ 0xe000
 8002260:	2b00      	cmp	r3, #0
 8002262:	d004      	beq.n	800226e <HAL_FDCAN_ActivateNotification+0x12a>
 8002264:	693b      	ldr	r3, [r7, #16]
 8002266:	f003 0310 	and.w	r3, r3, #16
 800226a:	2b00      	cmp	r3, #0
 800226c:	d113      	bne.n	8002296 <HAL_FDCAN_ActivateNotification+0x152>
 800226e:	68bb      	ldr	r3, [r7, #8]
 8002270:	f403 3340 	and.w	r3, r3, #196608	@ 0x30000
 8002274:	2b00      	cmp	r3, #0
 8002276:	d004      	beq.n	8002282 <HAL_FDCAN_ActivateNotification+0x13e>
 8002278:	693b      	ldr	r3, [r7, #16]
 800227a:	f003 0320 	and.w	r3, r3, #32
 800227e:	2b00      	cmp	r3, #0
 8002280:	d109      	bne.n	8002296 <HAL_FDCAN_ActivateNotification+0x152>
 8002282:	68bb      	ldr	r3, [r7, #8]
 8002284:	f403 037c 	and.w	r3, r3, #16515072	@ 0xfc0000
 8002288:	2b00      	cmp	r3, #0
 800228a:	d00c      	beq.n	80022a6 <HAL_FDCAN_ActivateNotification+0x162>
 800228c:	693b      	ldr	r3, [r7, #16]
 800228e:	f003 0340 	and.w	r3, r3, #64	@ 0x40
 8002292:	2b00      	cmp	r3, #0
 8002294:	d007      	beq.n	80022a6 <HAL_FDCAN_ActivateNotification+0x162>
 8002296:	68fb      	ldr	r3, [r7, #12]
 8002298:	681b      	ldr	r3, [r3, #0]
 800229a:	6dda      	ldr	r2, [r3, #92]	@ 0x5c
 800229c:	68fb      	ldr	r3, [r7, #12]
 800229e:	681b      	ldr	r3, [r3, #0]
 80022a0:	f042 0202 	orr.w	r2, r2, #2
 80022a4:	65da      	str	r2, [r3, #92]	@ 0x5c
 80022a6:	68bb      	ldr	r3, [r7, #8]
 80022a8:	f003 0380 	and.w	r3, r3, #128	@ 0x80
 80022ac:	2b00      	cmp	r3, #0
 80022ae:	d009      	beq.n	80022c4 <HAL_FDCAN_ActivateNotification+0x180>
 80022b0:	68fb      	ldr	r3, [r7, #12]
 80022b2:	681b      	ldr	r3, [r3, #0]
 80022b4:	f8d3 10dc 	ldr.w	r1, [r3, #220]	@ 0xdc
 80022b8:	68fb      	ldr	r3, [r7, #12]
 80022ba:	681b      	ldr	r3, [r3, #0]
 80022bc:	687a      	ldr	r2, [r7, #4]
 80022be:	430a      	orrs	r2, r1
 80022c0:	f8c3 20dc 	str.w	r2, [r3, #220]	@ 0xdc
 80022c4:	68bb      	ldr	r3, [r7, #8]
 80022c6:	f403 7380 	and.w	r3, r3, #256	@ 0x100
 80022ca:	2b00      	cmp	r3, #0
 80022cc:	d009      	beq.n	80022e2 <HAL_FDCAN_ActivateNotification+0x19e>
 80022ce:	68fb      	ldr	r3, [r7, #12]
 80022d0:	681b      	ldr	r3, [r3, #0]
 80022d2:	f8d3 10e0 	ldr.w	r1, [r3, #224]	@ 0xe0
 80022d6:	68fb      	ldr	r3, [r7, #12]
 80022d8:	681b      	ldr	r3, [r3, #0]
 80022da:	687a      	ldr	r2, [r7, #4]
 80022dc:	430a      	orrs	r2, r1
 80022de:	f8c3 20e0 	str.w	r2, [r3, #224]	@ 0xe0
 80022e2:	68fb      	ldr	r3, [r7, #12]
 80022e4:	681b      	ldr	r3, [r3, #0]
 80022e6:	6d59      	ldr	r1, [r3, #84]	@ 0x54
 80022e8:	68fb      	ldr	r3, [r7, #12]
 80022ea:	681b      	ldr	r3, [r3, #0]
 80022ec:	68ba      	ldr	r2, [r7, #8]
 80022ee:	430a      	orrs	r2, r1
 80022f0:	655a      	str	r2, [r3, #84]	@ 0x54
 80022f2:	2300      	movs	r3, #0
 80022f4:	e006      	b.n	8002304 <HAL_FDCAN_ActivateNotification+0x1c0>
 80022f6:	68fb      	ldr	r3, [r7, #12]
 80022f8:	6e1b      	ldr	r3, [r3, #96]	@ 0x60
 80022fa:	f043 0202 	orr.w	r2, r3, #2
 80022fe:	68fb      	ldr	r3, [r7, #12]
 8002300:	661a      	str	r2, [r3, #96]	@ 0x60
 8002302:	2301      	movs	r3, #1
 8002304:	4618      	mov	r0, r3
 8002306:	371c      	adds	r7, #28
 8002308:	46bd      	mov	sp, r7
 800230a:	f85d 7b04 	ldr.w	r7, [sp], #4
 800230e:	4770      	bx	lr

08002310 <FDCAN_CalcultateRamBlockAddresses>:
 8002310:	b480      	push	{r7}
 8002312:	b085      	sub	sp, #20
 8002314:	af00      	add	r7, sp, #0
 8002316:	6078      	str	r0, [r7, #4]
 8002318:	4b2c      	ldr	r3, [pc, #176]	@ (80023cc <FDCAN_CalcultateRamBlockAddresses+0xbc>)
 800231a:	60bb      	str	r3, [r7, #8]
 800231c:	687b      	ldr	r3, [r7, #4]
 800231e:	681b      	ldr	r3, [r3, #0]
 8002320:	4a2b      	ldr	r2, [pc, #172]	@ (80023d0 <FDCAN_CalcultateRamBlockAddresses+0xc0>)
 8002322:	4293      	cmp	r3, r2
 8002324:	d103      	bne.n	800232e <FDCAN_CalcultateRamBlockAddresses+0x1e>
 8002326:	68bb      	ldr	r3, [r7, #8]
 8002328:	f503 7354 	add.w	r3, r3, #848	@ 0x350
 800232c:	60bb      	str	r3, [r7, #8]
 800232e:	687b      	ldr	r3, [r7, #4]
 8002330:	68ba      	ldr	r2, [r7, #8]
 8002332:	641a      	str	r2, [r3, #64]	@ 0x40
 8002334:	687b      	ldr	r3, [r7, #4]
 8002336:	681b      	ldr	r3, [r3, #0]
 8002338:	f8d3 3080 	ldr.w	r3, [r3, #128]	@ 0x80
 800233c:	f423 11f8 	bic.w	r1, r3, #2031616	@ 0x1f0000
 8002340:	687b      	ldr	r3, [r7, #4]
 8002342:	6b5b      	ldr	r3, [r3, #52]	@ 0x34
 8002344:	041a      	lsls	r2, r3, #16
 8002346:	687b      	ldr	r3, [r7, #4]
 8002348:	681b      	ldr	r3, [r3, #0]
 800234a:	430a      	orrs	r2, r1
 800234c:	f8c3 2080 	str.w	r2, [r3, #128]	@ 0x80
 8002350:	68bb      	ldr	r3, [r7, #8]
 8002352:	f103 0270 	add.w	r2, r3, #112	@ 0x70
 8002356:	687b      	ldr	r3, [r7, #4]
 8002358:	645a      	str	r2, [r3, #68]	@ 0x44
 800235a:	687b      	ldr	r3, [r7, #4]
 800235c:	681b      	ldr	r3, [r3, #0]
 800235e:	f8d3 3080 	ldr.w	r3, [r3, #128]	@ 0x80
 8002362:	f023 6170 	bic.w	r1, r3, #251658240	@ 0xf000000
 8002366:	687b      	ldr	r3, [r7, #4]
 8002368:	6b9b      	ldr	r3, [r3, #56]	@ 0x38
 800236a:	061a      	lsls	r2, r3, #24
 800236c:	687b      	ldr	r3, [r7, #4]
 800236e:	681b      	ldr	r3, [r3, #0]
 8002370:	430a      	orrs	r2, r1
 8002372:	f8c3 2080 	str.w	r2, [r3, #128]	@ 0x80
 8002376:	68bb      	ldr	r3, [r7, #8]
 8002378:	f103 02b0 	add.w	r2, r3, #176	@ 0xb0
 800237c:	687b      	ldr	r3, [r7, #4]
 800237e:	649a      	str	r2, [r3, #72]	@ 0x48
 8002380:	68bb      	ldr	r3, [r7, #8]
 8002382:	f503 72c4 	add.w	r2, r3, #392	@ 0x188
 8002386:	687b      	ldr	r3, [r7, #4]
 8002388:	64da      	str	r2, [r3, #76]	@ 0x4c
 800238a:	68bb      	ldr	r3, [r7, #8]
 800238c:	f503 7218 	add.w	r2, r3, #608	@ 0x260
 8002390:	687b      	ldr	r3, [r7, #4]
 8002392:	651a      	str	r2, [r3, #80]	@ 0x50
 8002394:	68bb      	ldr	r3, [r7, #8]
 8002396:	f503 721e 	add.w	r2, r3, #632	@ 0x278
 800239a:	687b      	ldr	r3, [r7, #4]
 800239c:	655a      	str	r2, [r3, #84]	@ 0x54
 800239e:	68bb      	ldr	r3, [r7, #8]
 80023a0:	60fb      	str	r3, [r7, #12]
 80023a2:	e005      	b.n	80023b0 <FDCAN_CalcultateRamBlockAddresses+0xa0>
 80023a4:	68fb      	ldr	r3, [r7, #12]
 80023a6:	2200      	movs	r2, #0
 80023a8:	601a      	str	r2, [r3, #0]
 80023aa:	68fb      	ldr	r3, [r7, #12]
 80023ac:	3304      	adds	r3, #4
 80023ae:	60fb      	str	r3, [r7, #12]
 80023b0:	68bb      	ldr	r3, [r7, #8]
 80023b2:	f503 7354 	add.w	r3, r3, #848	@ 0x350
 80023b6:	68fa      	ldr	r2, [r7, #12]
 80023b8:	429a      	cmp	r2, r3
 80023ba:	d3f3      	bcc.n	80023a4 <FDCAN_CalcultateRamBlockAddresses+0x94>
 80023bc:	bf00      	nop
 80023be:	bf00      	nop
 80023c0:	3714      	adds	r7, #20
 80023c2:	46bd      	mov	sp, r7
 80023c4:	f85d 7b04 	ldr.w	r7, [sp], #4
 80023c8:	4770      	bx	lr
 80023ca:	bf00      	nop
 80023cc:	4000a400 	.word	0x4000a400
 80023d0:	40006800 	.word	0x40006800

080023d4 <FDCAN_CopyMessageToRAM>:
 80023d4:	b480      	push	{r7}
 80023d6:	b089      	sub	sp, #36	@ 0x24
 80023d8:	af00      	add	r7, sp, #0
 80023da:	60f8      	str	r0, [r7, #12]
 80023dc:	60b9      	str	r1, [r7, #8]
 80023de:	607a      	str	r2, [r7, #4]
 80023e0:	603b      	str	r3, [r7, #0]
 80023e2:	68bb      	ldr	r3, [r7, #8]
 80023e4:	685b      	ldr	r3, [r3, #4]
 80023e6:	2b00      	cmp	r3, #0
 80023e8:	d10a      	bne.n	8002400 <FDCAN_CopyMessageToRAM+0x2c>
 80023ea:	68bb      	ldr	r3, [r7, #8]
 80023ec:	691a      	ldr	r2, [r3, #16]
 80023ee:	68bb      	ldr	r3, [r7, #8]
 80023f0:	689b      	ldr	r3, [r3, #8]
 80023f2:	431a      	orrs	r2, r3
 80023f4:	68bb      	ldr	r3, [r7, #8]
 80023f6:	681b      	ldr	r3, [r3, #0]
 80023f8:	049b      	lsls	r3, r3, #18
 80023fa:	4313      	orrs	r3, r2
 80023fc:	61fb      	str	r3, [r7, #28]
 80023fe:	e00a      	b.n	8002416 <FDCAN_CopyMessageToRAM+0x42>
 8002400:	68bb      	ldr	r3, [r7, #8]
 8002402:	691a      	ldr	r2, [r3, #16]
 8002404:	68bb      	ldr	r3, [r7, #8]
 8002406:	689b      	ldr	r3, [r3, #8]
 8002408:	431a      	orrs	r2, r3
 800240a:	68bb      	ldr	r3, [r7, #8]
 800240c:	681b      	ldr	r3, [r3, #0]
 800240e:	4313      	orrs	r3, r2
 8002410:	f043 4380 	orr.w	r3, r3, #1073741824	@ 0x40000000
 8002414:	61fb      	str	r3, [r7, #28]
 8002416:	68bb      	ldr	r3, [r7, #8]
 8002418:	6a1b      	ldr	r3, [r3, #32]
 800241a:	061a      	lsls	r2, r3, #24
 800241c:	68bb      	ldr	r3, [r7, #8]
 800241e:	69db      	ldr	r3, [r3, #28]
 8002420:	431a      	orrs	r2, r3
 8002422:	68bb      	ldr	r3, [r7, #8]
 8002424:	699b      	ldr	r3, [r3, #24]
 8002426:	431a      	orrs	r2, r3
 8002428:	68bb      	ldr	r3, [r7, #8]
 800242a:	695b      	ldr	r3, [r3, #20]
 800242c:	431a      	orrs	r2, r3
 800242e:	68bb      	ldr	r3, [r7, #8]
 8002430:	68db      	ldr	r3, [r3, #12]
 8002432:	041b      	lsls	r3, r3, #16
 8002434:	4313      	orrs	r3, r2
 8002436:	613b      	str	r3, [r7, #16]
 8002438:	68fb      	ldr	r3, [r7, #12]
 800243a:	6d59      	ldr	r1, [r3, #84]	@ 0x54
 800243c:	683a      	ldr	r2, [r7, #0]
 800243e:	4613      	mov	r3, r2
 8002440:	00db      	lsls	r3, r3, #3
 8002442:	4413      	add	r3, r2
 8002444:	00db      	lsls	r3, r3, #3
 8002446:	440b      	add	r3, r1
 8002448:	61bb      	str	r3, [r7, #24]
 800244a:	69bb      	ldr	r3, [r7, #24]
 800244c:	69fa      	ldr	r2, [r7, #28]
 800244e:	601a      	str	r2, [r3, #0]
 8002450:	69bb      	ldr	r3, [r7, #24]
 8002452:	3304      	adds	r3, #4
 8002454:	61bb      	str	r3, [r7, #24]
 8002456:	69bb      	ldr	r3, [r7, #24]
 8002458:	693a      	ldr	r2, [r7, #16]
 800245a:	601a      	str	r2, [r3, #0]
 800245c:	69bb      	ldr	r3, [r7, #24]
 800245e:	3304      	adds	r3, #4
 8002460:	61bb      	str	r3, [r7, #24]
 8002462:	2300      	movs	r3, #0
 8002464:	617b      	str	r3, [r7, #20]
 8002466:	e020      	b.n	80024aa <FDCAN_CopyMessageToRAM+0xd6>
 8002468:	697b      	ldr	r3, [r7, #20]
 800246a:	3303      	adds	r3, #3
 800246c:	687a      	ldr	r2, [r7, #4]
 800246e:	4413      	add	r3, r2
 8002470:	781b      	ldrb	r3, [r3, #0]
 8002472:	061a      	lsls	r2, r3, #24
 8002474:	697b      	ldr	r3, [r7, #20]
 8002476:	3302      	adds	r3, #2
 8002478:	6879      	ldr	r1, [r7, #4]
 800247a:	440b      	add	r3, r1
 800247c:	781b      	ldrb	r3, [r3, #0]
 800247e:	041b      	lsls	r3, r3, #16
 8002480:	431a      	orrs	r2, r3
 8002482:	697b      	ldr	r3, [r7, #20]
 8002484:	3301      	adds	r3, #1
 8002486:	6879      	ldr	r1, [r7, #4]
 8002488:	440b      	add	r3, r1
 800248a:	781b      	ldrb	r3, [r3, #0]
 800248c:	021b      	lsls	r3, r3, #8
 800248e:	4313      	orrs	r3, r2
 8002490:	6879      	ldr	r1, [r7, #4]
 8002492:	697a      	ldr	r2, [r7, #20]
 8002494:	440a      	add	r2, r1
 8002496:	7812      	ldrb	r2, [r2, #0]
 8002498:	431a      	orrs	r2, r3
 800249a:	69bb      	ldr	r3, [r7, #24]
 800249c:	601a      	str	r2, [r3, #0]
 800249e:	69bb      	ldr	r3, [r7, #24]
 80024a0:	3304      	adds	r3, #4
 80024a2:	61bb      	str	r3, [r7, #24]
 80024a4:	697b      	ldr	r3, [r7, #20]
 80024a6:	3304      	adds	r3, #4
 80024a8:	617b      	str	r3, [r7, #20]
 80024aa:	68bb      	ldr	r3, [r7, #8]
 80024ac:	68db      	ldr	r3, [r3, #12]
 80024ae:	4a06      	ldr	r2, [pc, #24]	@ (80024c8 <FDCAN_CopyMessageToRAM+0xf4>)
 80024b0:	5cd3      	ldrb	r3, [r2, r3]
 80024b2:	461a      	mov	r2, r3
 80024b4:	697b      	ldr	r3, [r7, #20]
 80024b6:	4293      	cmp	r3, r2
 80024b8:	d3d6      	bcc.n	8002468 <FDCAN_CopyMessageToRAM+0x94>
 80024ba:	bf00      	nop
 80024bc:	bf00      	nop
 80024be:	3724      	adds	r7, #36	@ 0x24
 80024c0:	46bd      	mov	sp, r7
 80024c2:	f85d 7b04 	ldr.w	r7, [sp], #4
 80024c6:	4770      	bx	lr
 80024c8:	08006d5c 	.word	0x08006d5c

080024cc <HAL_GPIO_Init>:
 80024cc:	b480      	push	{r7}
 80024ce:	b087      	sub	sp, #28
 80024d0:	af00      	add	r7, sp, #0
 80024d2:	6078      	str	r0, [r7, #4]
 80024d4:	6039      	str	r1, [r7, #0]
 80024d6:	2300      	movs	r3, #0
 80024d8:	617b      	str	r3, [r7, #20]
 80024da:	e164      	b.n	80027a6 <HAL_GPIO_Init+0x2da>
 80024dc:	683b      	ldr	r3, [r7, #0]
 80024de:	681a      	ldr	r2, [r3, #0]
 80024e0:	2101      	movs	r1, #1
 80024e2:	697b      	ldr	r3, [r7, #20]
 80024e4:	fa01 f303 	lsl.w	r3, r1, r3
 80024e8:	4013      	ands	r3, r2
 80024ea:	60fb      	str	r3, [r7, #12]
 80024ec:	68fb      	ldr	r3, [r7, #12]
 80024ee:	2b00      	cmp	r3, #0
 80024f0:	f000 8156 	beq.w	80027a0 <HAL_GPIO_Init+0x2d4>
 80024f4:	683b      	ldr	r3, [r7, #0]
 80024f6:	685b      	ldr	r3, [r3, #4]
 80024f8:	f003 0303 	and.w	r3, r3, #3
 80024fc:	2b01      	cmp	r3, #1
 80024fe:	d005      	beq.n	800250c <HAL_GPIO_Init+0x40>
 8002500:	683b      	ldr	r3, [r7, #0]
 8002502:	685b      	ldr	r3, [r3, #4]
 8002504:	f003 0303 	and.w	r3, r3, #3
 8002508:	2b02      	cmp	r3, #2
 800250a:	d130      	bne.n	800256e <HAL_GPIO_Init+0xa2>
 800250c:	687b      	ldr	r3, [r7, #4]
 800250e:	689b      	ldr	r3, [r3, #8]
 8002510:	613b      	str	r3, [r7, #16]
 8002512:	697b      	ldr	r3, [r7, #20]
 8002514:	005b      	lsls	r3, r3, #1
 8002516:	2203      	movs	r2, #3
 8002518:	fa02 f303 	lsl.w	r3, r2, r3
 800251c:	43db      	mvns	r3, r3
 800251e:	693a      	ldr	r2, [r7, #16]
 8002520:	4013      	ands	r3, r2
 8002522:	613b      	str	r3, [r7, #16]
 8002524:	683b      	ldr	r3, [r7, #0]
 8002526:	68da      	ldr	r2, [r3, #12]
 8002528:	697b      	ldr	r3, [r7, #20]
 800252a:	005b      	lsls	r3, r3, #1
 800252c:	fa02 f303 	lsl.w	r3, r2, r3
 8002530:	693a      	ldr	r2, [r7, #16]
 8002532:	4313      	orrs	r3, r2
 8002534:	613b      	str	r3, [r7, #16]
 8002536:	687b      	ldr	r3, [r7, #4]
 8002538:	693a      	ldr	r2, [r7, #16]
 800253a:	609a      	str	r2, [r3, #8]
 800253c:	687b      	ldr	r3, [r7, #4]
 800253e:	685b      	ldr	r3, [r3, #4]
 8002540:	613b      	str	r3, [r7, #16]
 8002542:	2201      	movs	r2, #1
 8002544:	697b      	ldr	r3, [r7, #20]
 8002546:	fa02 f303 	lsl.w	r3, r2, r3
 800254a:	43db      	mvns	r3, r3
 800254c:	693a      	ldr	r2, [r7, #16]
 800254e:	4013      	ands	r3, r2
 8002550:	613b      	str	r3, [r7, #16]
 8002552:	683b      	ldr	r3, [r7, #0]
 8002554:	685b      	ldr	r3, [r3, #4]
 8002556:	091b      	lsrs	r3, r3, #4
 8002558:	f003 0201 	and.w	r2, r3, #1
 800255c:	697b      	ldr	r3, [r7, #20]
 800255e:	fa02 f303 	lsl.w	r3, r2, r3
 8002562:	693a      	ldr	r2, [r7, #16]
 8002564:	4313      	orrs	r3, r2
 8002566:	613b      	str	r3, [r7, #16]
 8002568:	687b      	ldr	r3, [r7, #4]
 800256a:	693a      	ldr	r2, [r7, #16]
 800256c:	605a      	str	r2, [r3, #4]
 800256e:	683b      	ldr	r3, [r7, #0]
 8002570:	685b      	ldr	r3, [r3, #4]
 8002572:	f003 0303 	and.w	r3, r3, #3
 8002576:	2b03      	cmp	r3, #3
 8002578:	d109      	bne.n	800258e <HAL_GPIO_Init+0xc2>
 800257a:	683b      	ldr	r3, [r7, #0]
 800257c:	685b      	ldr	r3, [r3, #4]
 800257e:	f003 0303 	and.w	r3, r3, #3
 8002582:	2b03      	cmp	r3, #3
 8002584:	d11b      	bne.n	80025be <HAL_GPIO_Init+0xf2>
 8002586:	683b      	ldr	r3, [r7, #0]
 8002588:	689b      	ldr	r3, [r3, #8]
 800258a:	2b01      	cmp	r3, #1
 800258c:	d017      	beq.n	80025be <HAL_GPIO_Init+0xf2>
 800258e:	687b      	ldr	r3, [r7, #4]
 8002590:	68db      	ldr	r3, [r3, #12]
 8002592:	613b      	str	r3, [r7, #16]
 8002594:	697b      	ldr	r3, [r7, #20]
 8002596:	005b      	lsls	r3, r3, #1
 8002598:	2203      	movs	r2, #3
 800259a:	fa02 f303 	lsl.w	r3, r2, r3
 800259e:	43db      	mvns	r3, r3
 80025a0:	693a      	ldr	r2, [r7, #16]
 80025a2:	4013      	ands	r3, r2
 80025a4:	613b      	str	r3, [r7, #16]
 80025a6:	683b      	ldr	r3, [r7, #0]
 80025a8:	689a      	ldr	r2, [r3, #8]
 80025aa:	697b      	ldr	r3, [r7, #20]
 80025ac:	005b      	lsls	r3, r3, #1
 80025ae:	fa02 f303 	lsl.w	r3, r2, r3
 80025b2:	693a      	ldr	r2, [r7, #16]
 80025b4:	4313      	orrs	r3, r2
 80025b6:	613b      	str	r3, [r7, #16]
 80025b8:	687b      	ldr	r3, [r7, #4]
 80025ba:	693a      	ldr	r2, [r7, #16]
 80025bc:	60da      	str	r2, [r3, #12]
 80025be:	683b      	ldr	r3, [r7, #0]
 80025c0:	685b      	ldr	r3, [r3, #4]
 80025c2:	f003 0303 	and.w	r3, r3, #3
 80025c6:	2b02      	cmp	r3, #2
 80025c8:	d123      	bne.n	8002612 <HAL_GPIO_Init+0x146>
 80025ca:	697b      	ldr	r3, [r7, #20]
 80025cc:	08da      	lsrs	r2, r3, #3
 80025ce:	687b      	ldr	r3, [r7, #4]
 80025d0:	3208      	adds	r2, #8
 80025d2:	f853 3022 	ldr.w	r3, [r3, r2, lsl #2]
 80025d6:	613b      	str	r3, [r7, #16]
 80025d8:	697b      	ldr	r3, [r7, #20]
 80025da:	f003 0307 	and.w	r3, r3, #7
 80025de:	009b      	lsls	r3, r3, #2
 80025e0:	220f      	movs	r2, #15
 80025e2:	fa02 f303 	lsl.w	r3, r2, r3
 80025e6:	43db      	mvns	r3, r3
 80025e8:	693a      	ldr	r2, [r7, #16]
 80025ea:	4013      	ands	r3, r2
 80025ec:	613b      	str	r3, [r7, #16]
 80025ee:	683b      	ldr	r3, [r7, #0]
 80025f0:	691a      	ldr	r2, [r3, #16]
 80025f2:	697b      	ldr	r3, [r7, #20]
 80025f4:	f003 0307 	and.w	r3, r3, #7
 80025f8:	009b      	lsls	r3, r3, #2
 80025fa:	fa02 f303 	lsl.w	r3, r2, r3
 80025fe:	693a      	ldr	r2, [r7, #16]
 8002600:	4313      	orrs	r3, r2
 8002602:	613b      	str	r3, [r7, #16]
 8002604:	697b      	ldr	r3, [r7, #20]
 8002606:	08da      	lsrs	r2, r3, #3
 8002608:	687b      	ldr	r3, [r7, #4]
 800260a:	3208      	adds	r2, #8
 800260c:	6939      	ldr	r1, [r7, #16]
 800260e:	f843 1022 	str.w	r1, [r3, r2, lsl #2]
 8002612:	687b      	ldr	r3, [r7, #4]
 8002614:	681b      	ldr	r3, [r3, #0]
 8002616:	613b      	str	r3, [r7, #16]
 8002618:	697b      	ldr	r3, [r7, #20]
 800261a:	005b      	lsls	r3, r3, #1
 800261c:	2203      	movs	r2, #3
 800261e:	fa02 f303 	lsl.w	r3, r2, r3
 8002622:	43db      	mvns	r3, r3
 8002624:	693a      	ldr	r2, [r7, #16]
 8002626:	4013      	ands	r3, r2
 8002628:	613b      	str	r3, [r7, #16]
 800262a:	683b      	ldr	r3, [r7, #0]
 800262c:	685b      	ldr	r3, [r3, #4]
 800262e:	f003 0203 	and.w	r2, r3, #3
 8002632:	697b      	ldr	r3, [r7, #20]
 8002634:	005b      	lsls	r3, r3, #1
 8002636:	fa02 f303 	lsl.w	r3, r2, r3
 800263a:	693a      	ldr	r2, [r7, #16]
 800263c:	4313      	orrs	r3, r2
 800263e:	613b      	str	r3, [r7, #16]
 8002640:	687b      	ldr	r3, [r7, #4]
 8002642:	693a      	ldr	r2, [r7, #16]
 8002644:	601a      	str	r2, [r3, #0]
 8002646:	683b      	ldr	r3, [r7, #0]
 8002648:	685b      	ldr	r3, [r3, #4]
 800264a:	f403 3340 	and.w	r3, r3, #196608	@ 0x30000
 800264e:	2b00      	cmp	r3, #0
 8002650:	f000 80a6 	beq.w	80027a0 <HAL_GPIO_Init+0x2d4>
 8002654:	4b5b      	ldr	r3, [pc, #364]	@ (80027c4 <HAL_GPIO_Init+0x2f8>)
 8002656:	6e1b      	ldr	r3, [r3, #96]	@ 0x60
 8002658:	4a5a      	ldr	r2, [pc, #360]	@ (80027c4 <HAL_GPIO_Init+0x2f8>)
 800265a:	f043 0301 	orr.w	r3, r3, #1
 800265e:	6613      	str	r3, [r2, #96]	@ 0x60
 8002660:	4b58      	ldr	r3, [pc, #352]	@ (80027c4 <HAL_GPIO_Init+0x2f8>)
 8002662:	6e1b      	ldr	r3, [r3, #96]	@ 0x60
 8002664:	f003 0301 	and.w	r3, r3, #1
 8002668:	60bb      	str	r3, [r7, #8]
 800266a:	68bb      	ldr	r3, [r7, #8]
 800266c:	4a56      	ldr	r2, [pc, #344]	@ (80027c8 <HAL_GPIO_Init+0x2fc>)
 800266e:	697b      	ldr	r3, [r7, #20]
 8002670:	089b      	lsrs	r3, r3, #2
 8002672:	3302      	adds	r3, #2
 8002674:	f852 3023 	ldr.w	r3, [r2, r3, lsl #2]
 8002678:	613b      	str	r3, [r7, #16]
 800267a:	697b      	ldr	r3, [r7, #20]
 800267c:	f003 0303 	and.w	r3, r3, #3
 8002680:	009b      	lsls	r3, r3, #2
 8002682:	220f      	movs	r2, #15
 8002684:	fa02 f303 	lsl.w	r3, r2, r3
 8002688:	43db      	mvns	r3, r3
 800268a:	693a      	ldr	r2, [r7, #16]
 800268c:	4013      	ands	r3, r2
 800268e:	613b      	str	r3, [r7, #16]
 8002690:	687b      	ldr	r3, [r7, #4]
 8002692:	f1b3 4f90 	cmp.w	r3, #1207959552	@ 0x48000000
 8002696:	d01f      	beq.n	80026d8 <HAL_GPIO_Init+0x20c>
 8002698:	687b      	ldr	r3, [r7, #4]
 800269a:	4a4c      	ldr	r2, [pc, #304]	@ (80027cc <HAL_GPIO_Init+0x300>)
 800269c:	4293      	cmp	r3, r2
 800269e:	d019      	beq.n	80026d4 <HAL_GPIO_Init+0x208>
 80026a0:	687b      	ldr	r3, [r7, #4]
 80026a2:	4a4b      	ldr	r2, [pc, #300]	@ (80027d0 <HAL_GPIO_Init+0x304>)
 80026a4:	4293      	cmp	r3, r2
 80026a6:	d013      	beq.n	80026d0 <HAL_GPIO_Init+0x204>
 80026a8:	687b      	ldr	r3, [r7, #4]
 80026aa:	4a4a      	ldr	r2, [pc, #296]	@ (80027d4 <HAL_GPIO_Init+0x308>)
 80026ac:	4293      	cmp	r3, r2
 80026ae:	d00d      	beq.n	80026cc <HAL_GPIO_Init+0x200>
 80026b0:	687b      	ldr	r3, [r7, #4]
 80026b2:	4a49      	ldr	r2, [pc, #292]	@ (80027d8 <HAL_GPIO_Init+0x30c>)
 80026b4:	4293      	cmp	r3, r2
 80026b6:	d007      	beq.n	80026c8 <HAL_GPIO_Init+0x1fc>
 80026b8:	687b      	ldr	r3, [r7, #4]
 80026ba:	4a48      	ldr	r2, [pc, #288]	@ (80027dc <HAL_GPIO_Init+0x310>)
 80026bc:	4293      	cmp	r3, r2
 80026be:	d101      	bne.n	80026c4 <HAL_GPIO_Init+0x1f8>
 80026c0:	2305      	movs	r3, #5
 80026c2:	e00a      	b.n	80026da <HAL_GPIO_Init+0x20e>
 80026c4:	2306      	movs	r3, #6
 80026c6:	e008      	b.n	80026da <HAL_GPIO_Init+0x20e>
 80026c8:	2304      	movs	r3, #4
 80026ca:	e006      	b.n	80026da <HAL_GPIO_Init+0x20e>
 80026cc:	2303      	movs	r3, #3
 80026ce:	e004      	b.n	80026da <HAL_GPIO_Init+0x20e>
 80026d0:	2302      	movs	r3, #2
 80026d2:	e002      	b.n	80026da <HAL_GPIO_Init+0x20e>
 80026d4:	2301      	movs	r3, #1
 80026d6:	e000      	b.n	80026da <HAL_GPIO_Init+0x20e>
 80026d8:	2300      	movs	r3, #0
 80026da:	697a      	ldr	r2, [r7, #20]
 80026dc:	f002 0203 	and.w	r2, r2, #3
 80026e0:	0092      	lsls	r2, r2, #2
 80026e2:	4093      	lsls	r3, r2
 80026e4:	693a      	ldr	r2, [r7, #16]
 80026e6:	4313      	orrs	r3, r2
 80026e8:	613b      	str	r3, [r7, #16]
 80026ea:	4937      	ldr	r1, [pc, #220]	@ (80027c8 <HAL_GPIO_Init+0x2fc>)
 80026ec:	697b      	ldr	r3, [r7, #20]
 80026ee:	089b      	lsrs	r3, r3, #2
 80026f0:	3302      	adds	r3, #2
 80026f2:	693a      	ldr	r2, [r7, #16]
 80026f4:	f841 2023 	str.w	r2, [r1, r3, lsl #2]
 80026f8:	4b39      	ldr	r3, [pc, #228]	@ (80027e0 <HAL_GPIO_Init+0x314>)
 80026fa:	689b      	ldr	r3, [r3, #8]
 80026fc:	613b      	str	r3, [r7, #16]
 80026fe:	68fb      	ldr	r3, [r7, #12]
 8002700:	43db      	mvns	r3, r3
 8002702:	693a      	ldr	r2, [r7, #16]
 8002704:	4013      	ands	r3, r2
 8002706:	613b      	str	r3, [r7, #16]
 8002708:	683b      	ldr	r3, [r7, #0]
 800270a:	685b      	ldr	r3, [r3, #4]
 800270c:	f403 1380 	and.w	r3, r3, #1048576	@ 0x100000
 8002710:	2b00      	cmp	r3, #0
 8002712:	d003      	beq.n	800271c <HAL_GPIO_Init+0x250>
 8002714:	693a      	ldr	r2, [r7, #16]
 8002716:	68fb      	ldr	r3, [r7, #12]
 8002718:	4313      	orrs	r3, r2
 800271a:	613b      	str	r3, [r7, #16]
 800271c:	4a30      	ldr	r2, [pc, #192]	@ (80027e0 <HAL_GPIO_Init+0x314>)
 800271e:	693b      	ldr	r3, [r7, #16]
 8002720:	6093      	str	r3, [r2, #8]
 8002722:	4b2f      	ldr	r3, [pc, #188]	@ (80027e0 <HAL_GPIO_Init+0x314>)
 8002724:	68db      	ldr	r3, [r3, #12]
 8002726:	613b      	str	r3, [r7, #16]
 8002728:	68fb      	ldr	r3, [r7, #12]
 800272a:	43db      	mvns	r3, r3
 800272c:	693a      	ldr	r2, [r7, #16]
 800272e:	4013      	ands	r3, r2
 8002730:	613b      	str	r3, [r7, #16]
 8002732:	683b      	ldr	r3, [r7, #0]
 8002734:	685b      	ldr	r3, [r3, #4]
 8002736:	f403 1300 	and.w	r3, r3, #2097152	@ 0x200000
 800273a:	2b00      	cmp	r3, #0
 800273c:	d003      	beq.n	8002746 <HAL_GPIO_Init+0x27a>
 800273e:	693a      	ldr	r2, [r7, #16]
 8002740:	68fb      	ldr	r3, [r7, #12]
 8002742:	4313      	orrs	r3, r2
 8002744:	613b      	str	r3, [r7, #16]
 8002746:	4a26      	ldr	r2, [pc, #152]	@ (80027e0 <HAL_GPIO_Init+0x314>)
 8002748:	693b      	ldr	r3, [r7, #16]
 800274a:	60d3      	str	r3, [r2, #12]
 800274c:	4b24      	ldr	r3, [pc, #144]	@ (80027e0 <HAL_GPIO_Init+0x314>)
 800274e:	685b      	ldr	r3, [r3, #4]
 8002750:	613b      	str	r3, [r7, #16]
 8002752:	68fb      	ldr	r3, [r7, #12]
 8002754:	43db      	mvns	r3, r3
 8002756:	693a      	ldr	r2, [r7, #16]
 8002758:	4013      	ands	r3, r2
 800275a:	613b      	str	r3, [r7, #16]
 800275c:	683b      	ldr	r3, [r7, #0]
 800275e:	685b      	ldr	r3, [r3, #4]
 8002760:	f403 3300 	and.w	r3, r3, #131072	@ 0x20000
 8002764:	2b00      	cmp	r3, #0
 8002766:	d003      	beq.n	8002770 <HAL_GPIO_Init+0x2a4>
 8002768:	693a      	ldr	r2, [r7, #16]
 800276a:	68fb      	ldr	r3, [r7, #12]
 800276c:	4313      	orrs	r3, r2
 800276e:	613b      	str	r3, [r7, #16]
 8002770:	4a1b      	ldr	r2, [pc, #108]	@ (80027e0 <HAL_GPIO_Init+0x314>)
 8002772:	693b      	ldr	r3, [r7, #16]
 8002774:	6053      	str	r3, [r2, #4]
 8002776:	4b1a      	ldr	r3, [pc, #104]	@ (80027e0 <HAL_GPIO_Init+0x314>)
 8002778:	681b      	ldr	r3, [r3, #0]
 800277a:	613b      	str	r3, [r7, #16]
 800277c:	68fb      	ldr	r3, [r7, #12]
 800277e:	43db      	mvns	r3, r3
 8002780:	693a      	ldr	r2, [r7, #16]
 8002782:	4013      	ands	r3, r2
 8002784:	613b      	str	r3, [r7, #16]
 8002786:	683b      	ldr	r3, [r7, #0]
 8002788:	685b      	ldr	r3, [r3, #4]
 800278a:	f403 3380 	and.w	r3, r3, #65536	@ 0x10000
 800278e:	2b00      	cmp	r3, #0
 8002790:	d003      	beq.n	800279a <HAL_GPIO_Init+0x2ce>
 8002792:	693a      	ldr	r2, [r7, #16]
 8002794:	68fb      	ldr	r3, [r7, #12]
 8002796:	4313      	orrs	r3, r2
 8002798:	613b      	str	r3, [r7, #16]
 800279a:	4a11      	ldr	r2, [pc, #68]	@ (80027e0 <HAL_GPIO_Init+0x314>)
 800279c:	693b      	ldr	r3, [r7, #16]
 800279e:	6013      	str	r3, [r2, #0]
 80027a0:	697b      	ldr	r3, [r7, #20]
 80027a2:	3301      	adds	r3, #1
 80027a4:	617b      	str	r3, [r7, #20]
 80027a6:	683b      	ldr	r3, [r7, #0]
 80027a8:	681a      	ldr	r2, [r3, #0]
 80027aa:	697b      	ldr	r3, [r7, #20]
 80027ac:	fa22 f303 	lsr.w	r3, r2, r3
 80027b0:	2b00      	cmp	r3, #0
 80027b2:	f47f ae93 	bne.w	80024dc <HAL_GPIO_Init+0x10>
 80027b6:	bf00      	nop
 80027b8:	bf00      	nop
 80027ba:	371c      	adds	r7, #28
 80027bc:	46bd      	mov	sp, r7
 80027be:	f85d 7b04 	ldr.w	r7, [sp], #4
 80027c2:	4770      	bx	lr
 80027c4:	40021000 	.word	0x40021000
 80027c8:	40010000 	.word	0x40010000
 80027cc:	48000400 	.word	0x48000400
 80027d0:	48000800 	.word	0x48000800
 80027d4:	48000c00 	.word	0x48000c00
 80027d8:	48001000 	.word	0x48001000
 80027dc:	48001400 	.word	0x48001400
 80027e0:	40010400 	.word	0x40010400

080027e4 <HAL_GPIO_EXTI_IRQHandler>:
 80027e4:	b580      	push	{r7, lr}
 80027e6:	b082      	sub	sp, #8
 80027e8:	af00      	add	r7, sp, #0
 80027ea:	4603      	mov	r3, r0
 80027ec:	80fb      	strh	r3, [r7, #6]
 80027ee:	4b08      	ldr	r3, [pc, #32]	@ (8002810 <HAL_GPIO_EXTI_IRQHandler+0x2c>)
 80027f0:	695a      	ldr	r2, [r3, #20]
 80027f2:	88fb      	ldrh	r3, [r7, #6]
 80027f4:	4013      	ands	r3, r2
 80027f6:	2b00      	cmp	r3, #0
 80027f8:	d006      	beq.n	8002808 <HAL_GPIO_EXTI_IRQHandler+0x24>
 80027fa:	4a05      	ldr	r2, [pc, #20]	@ (8002810 <HAL_GPIO_EXTI_IRQHandler+0x2c>)
 80027fc:	88fb      	ldrh	r3, [r7, #6]
 80027fe:	6153      	str	r3, [r2, #20]
 8002800:	88fb      	ldrh	r3, [r7, #6]
 8002802:	4618      	mov	r0, r3
 8002804:	f7fe fbf2 	bl	8000fec <HAL_GPIO_EXTI_Callback>
 8002808:	bf00      	nop
 800280a:	3708      	adds	r7, #8
 800280c:	46bd      	mov	sp, r7
 800280e:	bd80      	pop	{r7, pc}
 8002810:	40010400 	.word	0x40010400

08002814 <HAL_I2C_Init>:
 8002814:	b580      	push	{r7, lr}
 8002816:	b082      	sub	sp, #8
 8002818:	af00      	add	r7, sp, #0
 800281a:	6078      	str	r0, [r7, #4]
 800281c:	687b      	ldr	r3, [r7, #4]
 800281e:	2b00      	cmp	r3, #0
 8002820:	d101      	bne.n	8002826 <HAL_I2C_Init+0x12>
 8002822:	2301      	movs	r3, #1
 8002824:	e08d      	b.n	8002942 <HAL_I2C_Init+0x12e>
 8002826:	687b      	ldr	r3, [r7, #4]
 8002828:	f893 3041 	ldrb.w	r3, [r3, #65]	@ 0x41
 800282c:	b2db      	uxtb	r3, r3
 800282e:	2b00      	cmp	r3, #0
 8002830:	d106      	bne.n	8002840 <HAL_I2C_Init+0x2c>
 8002832:	687b      	ldr	r3, [r7, #4]
 8002834:	2200      	movs	r2, #0
 8002836:	f883 2040 	strb.w	r2, [r3, #64]	@ 0x40
 800283a:	6878      	ldr	r0, [r7, #4]
 800283c:	f7fe fc2a 	bl	8001094 <HAL_I2C_MspInit>
 8002840:	687b      	ldr	r3, [r7, #4]
 8002842:	2224      	movs	r2, #36	@ 0x24
 8002844:	f883 2041 	strb.w	r2, [r3, #65]	@ 0x41
 8002848:	687b      	ldr	r3, [r7, #4]
 800284a:	681b      	ldr	r3, [r3, #0]
 800284c:	681a      	ldr	r2, [r3, #0]
 800284e:	687b      	ldr	r3, [r7, #4]
 8002850:	681b      	ldr	r3, [r3, #0]
 8002852:	f022 0201 	bic.w	r2, r2, #1
 8002856:	601a      	str	r2, [r3, #0]
 8002858:	687b      	ldr	r3, [r7, #4]
 800285a:	685a      	ldr	r2, [r3, #4]
 800285c:	687b      	ldr	r3, [r7, #4]
 800285e:	681b      	ldr	r3, [r3, #0]
 8002860:	f022 6270 	bic.w	r2, r2, #251658240	@ 0xf000000
 8002864:	611a      	str	r2, [r3, #16]
 8002866:	687b      	ldr	r3, [r7, #4]
 8002868:	681b      	ldr	r3, [r3, #0]
 800286a:	689a      	ldr	r2, [r3, #8]
 800286c:	687b      	ldr	r3, [r7, #4]
 800286e:	681b      	ldr	r3, [r3, #0]
 8002870:	f422 4200 	bic.w	r2, r2, #32768	@ 0x8000
 8002874:	609a      	str	r2, [r3, #8]
 8002876:	687b      	ldr	r3, [r7, #4]
 8002878:	68db      	ldr	r3, [r3, #12]
 800287a:	2b01      	cmp	r3, #1
 800287c:	d107      	bne.n	800288e <HAL_I2C_Init+0x7a>
 800287e:	687b      	ldr	r3, [r7, #4]
 8002880:	689a      	ldr	r2, [r3, #8]
 8002882:	687b      	ldr	r3, [r7, #4]
 8002884:	681b      	ldr	r3, [r3, #0]
 8002886:	f442 4200 	orr.w	r2, r2, #32768	@ 0x8000
 800288a:	609a      	str	r2, [r3, #8]
 800288c:	e006      	b.n	800289c <HAL_I2C_Init+0x88>
 800288e:	687b      	ldr	r3, [r7, #4]
 8002890:	689a      	ldr	r2, [r3, #8]
 8002892:	687b      	ldr	r3, [r7, #4]
 8002894:	681b      	ldr	r3, [r3, #0]
 8002896:	f442 4204 	orr.w	r2, r2, #33792	@ 0x8400
 800289a:	609a      	str	r2, [r3, #8]
 800289c:	687b      	ldr	r3, [r7, #4]
 800289e:	68db      	ldr	r3, [r3, #12]
 80028a0:	2b02      	cmp	r3, #2
 80028a2:	d108      	bne.n	80028b6 <HAL_I2C_Init+0xa2>
 80028a4:	687b      	ldr	r3, [r7, #4]
 80028a6:	681b      	ldr	r3, [r3, #0]
 80028a8:	685a      	ldr	r2, [r3, #4]
 80028aa:	687b      	ldr	r3, [r7, #4]
 80028ac:	681b      	ldr	r3, [r3, #0]
 80028ae:	f442 6200 	orr.w	r2, r2, #2048	@ 0x800
 80028b2:	605a      	str	r2, [r3, #4]
 80028b4:	e007      	b.n	80028c6 <HAL_I2C_Init+0xb2>
 80028b6:	687b      	ldr	r3, [r7, #4]
 80028b8:	681b      	ldr	r3, [r3, #0]
 80028ba:	685a      	ldr	r2, [r3, #4]
 80028bc:	687b      	ldr	r3, [r7, #4]
 80028be:	681b      	ldr	r3, [r3, #0]
 80028c0:	f422 6200 	bic.w	r2, r2, #2048	@ 0x800
 80028c4:	605a      	str	r2, [r3, #4]
 80028c6:	687b      	ldr	r3, [r7, #4]
 80028c8:	681b      	ldr	r3, [r3, #0]
 80028ca:	685b      	ldr	r3, [r3, #4]
 80028cc:	687a      	ldr	r2, [r7, #4]
 80028ce:	6812      	ldr	r2, [r2, #0]
 80028d0:	f043 7300 	orr.w	r3, r3, #33554432	@ 0x2000000
 80028d4:	f443 4300 	orr.w	r3, r3, #32768	@ 0x8000
 80028d8:	6053      	str	r3, [r2, #4]
 80028da:	687b      	ldr	r3, [r7, #4]
 80028dc:	681b      	ldr	r3, [r3, #0]
 80028de:	68da      	ldr	r2, [r3, #12]
 80028e0:	687b      	ldr	r3, [r7, #4]
 80028e2:	681b      	ldr	r3, [r3, #0]
 80028e4:	f422 4200 	bic.w	r2, r2, #32768	@ 0x8000
 80028e8:	60da      	str	r2, [r3, #12]
 80028ea:	687b      	ldr	r3, [r7, #4]
 80028ec:	691a      	ldr	r2, [r3, #16]
 80028ee:	687b      	ldr	r3, [r7, #4]
 80028f0:	695b      	ldr	r3, [r3, #20]
 80028f2:	ea42 0103 	orr.w	r1, r2, r3
 80028f6:	687b      	ldr	r3, [r7, #4]
 80028f8:	699b      	ldr	r3, [r3, #24]
 80028fa:	021a      	lsls	r2, r3, #8
 80028fc:	687b      	ldr	r3, [r7, #4]
 80028fe:	681b      	ldr	r3, [r3, #0]
 8002900:	430a      	orrs	r2, r1
 8002902:	60da      	str	r2, [r3, #12]
 8002904:	687b      	ldr	r3, [r7, #4]
 8002906:	69d9      	ldr	r1, [r3, #28]
 8002908:	687b      	ldr	r3, [r7, #4]
 800290a:	6a1a      	ldr	r2, [r3, #32]
 800290c:	687b      	ldr	r3, [r7, #4]
 800290e:	681b      	ldr	r3, [r3, #0]
 8002910:	430a      	orrs	r2, r1
 8002912:	601a      	str	r2, [r3, #0]
 8002914:	687b      	ldr	r3, [r7, #4]
 8002916:	681b      	ldr	r3, [r3, #0]
 8002918:	681a      	ldr	r2, [r3, #0]
 800291a:	687b      	ldr	r3, [r7, #4]
 800291c:	681b      	ldr	r3, [r3, #0]
 800291e:	f042 0201 	orr.w	r2, r2, #1
 8002922:	601a      	str	r2, [r3, #0]
 8002924:	687b      	ldr	r3, [r7, #4]
 8002926:	2200      	movs	r2, #0
 8002928:	645a      	str	r2, [r3, #68]	@ 0x44
 800292a:	687b      	ldr	r3, [r7, #4]
 800292c:	2220      	movs	r2, #32
 800292e:	f883 2041 	strb.w	r2, [r3, #65]	@ 0x41
 8002932:	687b      	ldr	r3, [r7, #4]
 8002934:	2200      	movs	r2, #0
 8002936:	631a      	str	r2, [r3, #48]	@ 0x30
 8002938:	687b      	ldr	r3, [r7, #4]
 800293a:	2200      	movs	r2, #0
 800293c:	f883 2042 	strb.w	r2, [r3, #66]	@ 0x42
 8002940:	2300      	movs	r3, #0
 8002942:	4618      	mov	r0, r3
 8002944:	3708      	adds	r7, #8
 8002946:	46bd      	mov	sp, r7
 8002948:	bd80      	pop	{r7, pc}
	...

0800294c <HAL_I2C_Mem_Write>:
 800294c:	b580      	push	{r7, lr}
 800294e:	b088      	sub	sp, #32
 8002950:	af02      	add	r7, sp, #8
 8002952:	60f8      	str	r0, [r7, #12]
 8002954:	4608      	mov	r0, r1
 8002956:	4611      	mov	r1, r2
 8002958:	461a      	mov	r2, r3
 800295a:	4603      	mov	r3, r0
 800295c:	817b      	strh	r3, [r7, #10]
 800295e:	460b      	mov	r3, r1
 8002960:	813b      	strh	r3, [r7, #8]
 8002962:	4613      	mov	r3, r2
 8002964:	80fb      	strh	r3, [r7, #6]
 8002966:	68fb      	ldr	r3, [r7, #12]
 8002968:	f893 3041 	ldrb.w	r3, [r3, #65]	@ 0x41
 800296c:	b2db      	uxtb	r3, r3
 800296e:	2b20      	cmp	r3, #32
 8002970:	f040 80f9 	bne.w	8002b66 <HAL_I2C_Mem_Write+0x21a>
 8002974:	6a3b      	ldr	r3, [r7, #32]
 8002976:	2b00      	cmp	r3, #0
 8002978:	d002      	beq.n	8002980 <HAL_I2C_Mem_Write+0x34>
 800297a:	8cbb      	ldrh	r3, [r7, #36]	@ 0x24
 800297c:	2b00      	cmp	r3, #0
 800297e:	d105      	bne.n	800298c <HAL_I2C_Mem_Write+0x40>
 8002980:	68fb      	ldr	r3, [r7, #12]
 8002982:	f44f 7200 	mov.w	r2, #512	@ 0x200
 8002986:	645a      	str	r2, [r3, #68]	@ 0x44
 8002988:	2301      	movs	r3, #1
 800298a:	e0ed      	b.n	8002b68 <HAL_I2C_Mem_Write+0x21c>
 800298c:	68fb      	ldr	r3, [r7, #12]
 800298e:	f893 3040 	ldrb.w	r3, [r3, #64]	@ 0x40
 8002992:	2b01      	cmp	r3, #1
 8002994:	d101      	bne.n	800299a <HAL_I2C_Mem_Write+0x4e>
 8002996:	2302      	movs	r3, #2
 8002998:	e0e6      	b.n	8002b68 <HAL_I2C_Mem_Write+0x21c>
 800299a:	68fb      	ldr	r3, [r7, #12]
 800299c:	2201      	movs	r2, #1
 800299e:	f883 2040 	strb.w	r2, [r3, #64]	@ 0x40
 80029a2:	f7fe ffcb 	bl	800193c <HAL_GetTick>
 80029a6:	6178      	str	r0, [r7, #20]
 80029a8:	697b      	ldr	r3, [r7, #20]
 80029aa:	9300      	str	r3, [sp, #0]
 80029ac:	2319      	movs	r3, #25
 80029ae:	2201      	movs	r2, #1
 80029b0:	f44f 4100 	mov.w	r1, #32768	@ 0x8000
 80029b4:	68f8      	ldr	r0, [r7, #12]
 80029b6:	f000 fbd1 	bl	800315c <I2C_WaitOnFlagUntilTimeout>
 80029ba:	4603      	mov	r3, r0
 80029bc:	2b00      	cmp	r3, #0
 80029be:	d001      	beq.n	80029c4 <HAL_I2C_Mem_Write+0x78>
 80029c0:	2301      	movs	r3, #1
 80029c2:	e0d1      	b.n	8002b68 <HAL_I2C_Mem_Write+0x21c>
 80029c4:	68fb      	ldr	r3, [r7, #12]
 80029c6:	2221      	movs	r2, #33	@ 0x21
 80029c8:	f883 2041 	strb.w	r2, [r3, #65]	@ 0x41
 80029cc:	68fb      	ldr	r3, [r7, #12]
 80029ce:	2240      	movs	r2, #64	@ 0x40
 80029d0:	f883 2042 	strb.w	r2, [r3, #66]	@ 0x42
 80029d4:	68fb      	ldr	r3, [r7, #12]
 80029d6:	2200      	movs	r2, #0
 80029d8:	645a      	str	r2, [r3, #68]	@ 0x44
 80029da:	68fb      	ldr	r3, [r7, #12]
 80029dc:	6a3a      	ldr	r2, [r7, #32]
 80029de:	625a      	str	r2, [r3, #36]	@ 0x24
 80029e0:	68fb      	ldr	r3, [r7, #12]
 80029e2:	8cba      	ldrh	r2, [r7, #36]	@ 0x24
 80029e4:	855a      	strh	r2, [r3, #42]	@ 0x2a
 80029e6:	68fb      	ldr	r3, [r7, #12]
 80029e8:	2200      	movs	r2, #0
 80029ea:	635a      	str	r2, [r3, #52]	@ 0x34
 80029ec:	88f8      	ldrh	r0, [r7, #6]
 80029ee:	893a      	ldrh	r2, [r7, #8]
 80029f0:	8979      	ldrh	r1, [r7, #10]
 80029f2:	697b      	ldr	r3, [r7, #20]
 80029f4:	9301      	str	r3, [sp, #4]
 80029f6:	6abb      	ldr	r3, [r7, #40]	@ 0x28
 80029f8:	9300      	str	r3, [sp, #0]
 80029fa:	4603      	mov	r3, r0
 80029fc:	68f8      	ldr	r0, [r7, #12]
 80029fe:	f000 fae1 	bl	8002fc4 <I2C_RequestMemoryWrite>
 8002a02:	4603      	mov	r3, r0
 8002a04:	2b00      	cmp	r3, #0
 8002a06:	d005      	beq.n	8002a14 <HAL_I2C_Mem_Write+0xc8>
 8002a08:	68fb      	ldr	r3, [r7, #12]
 8002a0a:	2200      	movs	r2, #0
 8002a0c:	f883 2040 	strb.w	r2, [r3, #64]	@ 0x40
 8002a10:	2301      	movs	r3, #1
 8002a12:	e0a9      	b.n	8002b68 <HAL_I2C_Mem_Write+0x21c>
 8002a14:	68fb      	ldr	r3, [r7, #12]
 8002a16:	8d5b      	ldrh	r3, [r3, #42]	@ 0x2a
 8002a18:	b29b      	uxth	r3, r3
 8002a1a:	2bff      	cmp	r3, #255	@ 0xff
 8002a1c:	d90e      	bls.n	8002a3c <HAL_I2C_Mem_Write+0xf0>
 8002a1e:	68fb      	ldr	r3, [r7, #12]
 8002a20:	22ff      	movs	r2, #255	@ 0xff
 8002a22:	851a      	strh	r2, [r3, #40]	@ 0x28
 8002a24:	68fb      	ldr	r3, [r7, #12]
 8002a26:	8d1b      	ldrh	r3, [r3, #40]	@ 0x28
 8002a28:	b2da      	uxtb	r2, r3
 8002a2a:	8979      	ldrh	r1, [r7, #10]
 8002a2c:	2300      	movs	r3, #0
 8002a2e:	9300      	str	r3, [sp, #0]
 8002a30:	f04f 7380 	mov.w	r3, #16777216	@ 0x1000000
 8002a34:	68f8      	ldr	r0, [r7, #12]
 8002a36:	f000 fd55 	bl	80034e4 <I2C_TransferConfig>
 8002a3a:	e00f      	b.n	8002a5c <HAL_I2C_Mem_Write+0x110>
 8002a3c:	68fb      	ldr	r3, [r7, #12]
 8002a3e:	8d5b      	ldrh	r3, [r3, #42]	@ 0x2a
 8002a40:	b29a      	uxth	r2, r3
 8002a42:	68fb      	ldr	r3, [r7, #12]
 8002a44:	851a      	strh	r2, [r3, #40]	@ 0x28
 8002a46:	68fb      	ldr	r3, [r7, #12]
 8002a48:	8d1b      	ldrh	r3, [r3, #40]	@ 0x28
 8002a4a:	b2da      	uxtb	r2, r3
 8002a4c:	8979      	ldrh	r1, [r7, #10]
 8002a4e:	2300      	movs	r3, #0
 8002a50:	9300      	str	r3, [sp, #0]
 8002a52:	f04f 7300 	mov.w	r3, #33554432	@ 0x2000000
 8002a56:	68f8      	ldr	r0, [r7, #12]
 8002a58:	f000 fd44 	bl	80034e4 <I2C_TransferConfig>
 8002a5c:	697a      	ldr	r2, [r7, #20]
 8002a5e:	6ab9      	ldr	r1, [r7, #40]	@ 0x28
 8002a60:	68f8      	ldr	r0, [r7, #12]
 8002a62:	f000 fbd4 	bl	800320e <I2C_WaitOnTXISFlagUntilTimeout>
 8002a66:	4603      	mov	r3, r0
 8002a68:	2b00      	cmp	r3, #0
 8002a6a:	d001      	beq.n	8002a70 <HAL_I2C_Mem_Write+0x124>
 8002a6c:	2301      	movs	r3, #1
 8002a6e:	e07b      	b.n	8002b68 <HAL_I2C_Mem_Write+0x21c>
 8002a70:	68fb      	ldr	r3, [r7, #12]
 8002a72:	6a5b      	ldr	r3, [r3, #36]	@ 0x24
 8002a74:	781a      	ldrb	r2, [r3, #0]
 8002a76:	68fb      	ldr	r3, [r7, #12]
 8002a78:	681b      	ldr	r3, [r3, #0]
 8002a7a:	629a      	str	r2, [r3, #40]	@ 0x28
 8002a7c:	68fb      	ldr	r3, [r7, #12]
 8002a7e:	6a5b      	ldr	r3, [r3, #36]	@ 0x24
 8002a80:	1c5a      	adds	r2, r3, #1
 8002a82:	68fb      	ldr	r3, [r7, #12]
 8002a84:	625a      	str	r2, [r3, #36]	@ 0x24
 8002a86:	68fb      	ldr	r3, [r7, #12]
 8002a88:	8d5b      	ldrh	r3, [r3, #42]	@ 0x2a
 8002a8a:	b29b      	uxth	r3, r3
 8002a8c:	3b01      	subs	r3, #1
 8002a8e:	b29a      	uxth	r2, r3
 8002a90:	68fb      	ldr	r3, [r7, #12]
 8002a92:	855a      	strh	r2, [r3, #42]	@ 0x2a
 8002a94:	68fb      	ldr	r3, [r7, #12]
 8002a96:	8d1b      	ldrh	r3, [r3, #40]	@ 0x28
 8002a98:	3b01      	subs	r3, #1
 8002a9a:	b29a      	uxth	r2, r3
 8002a9c:	68fb      	ldr	r3, [r7, #12]
 8002a9e:	851a      	strh	r2, [r3, #40]	@ 0x28
 8002aa0:	68fb      	ldr	r3, [r7, #12]
 8002aa2:	8d5b      	ldrh	r3, [r3, #42]	@ 0x2a
 8002aa4:	b29b      	uxth	r3, r3
 8002aa6:	2b00      	cmp	r3, #0
 8002aa8:	d034      	beq.n	8002b14 <HAL_I2C_Mem_Write+0x1c8>
 8002aaa:	68fb      	ldr	r3, [r7, #12]
 8002aac:	8d1b      	ldrh	r3, [r3, #40]	@ 0x28
 8002aae:	2b00      	cmp	r3, #0
 8002ab0:	d130      	bne.n	8002b14 <HAL_I2C_Mem_Write+0x1c8>
 8002ab2:	697b      	ldr	r3, [r7, #20]
 8002ab4:	9300      	str	r3, [sp, #0]
 8002ab6:	6abb      	ldr	r3, [r7, #40]	@ 0x28
 8002ab8:	2200      	movs	r2, #0
 8002aba:	2180      	movs	r1, #128	@ 0x80
 8002abc:	68f8      	ldr	r0, [r7, #12]
 8002abe:	f000 fb4d 	bl	800315c <I2C_WaitOnFlagUntilTimeout>
 8002ac2:	4603      	mov	r3, r0
 8002ac4:	2b00      	cmp	r3, #0
 8002ac6:	d001      	beq.n	8002acc <HAL_I2C_Mem_Write+0x180>
 8002ac8:	2301      	movs	r3, #1
 8002aca:	e04d      	b.n	8002b68 <HAL_I2C_Mem_Write+0x21c>
 8002acc:	68fb      	ldr	r3, [r7, #12]
 8002ace:	8d5b      	ldrh	r3, [r3, #42]	@ 0x2a
 8002ad0:	b29b      	uxth	r3, r3
 8002ad2:	2bff      	cmp	r3, #255	@ 0xff
 8002ad4:	d90e      	bls.n	8002af4 <HAL_I2C_Mem_Write+0x1a8>
 8002ad6:	68fb      	ldr	r3, [r7, #12]
 8002ad8:	22ff      	movs	r2, #255	@ 0xff
 8002ada:	851a      	strh	r2, [r3, #40]	@ 0x28
 8002adc:	68fb      	ldr	r3, [r7, #12]
 8002ade:	8d1b      	ldrh	r3, [r3, #40]	@ 0x28
 8002ae0:	b2da      	uxtb	r2, r3
 8002ae2:	8979      	ldrh	r1, [r7, #10]
 8002ae4:	2300      	movs	r3, #0
 8002ae6:	9300      	str	r3, [sp, #0]
 8002ae8:	f04f 7380 	mov.w	r3, #16777216	@ 0x1000000
 8002aec:	68f8      	ldr	r0, [r7, #12]
 8002aee:	f000 fcf9 	bl	80034e4 <I2C_TransferConfig>
 8002af2:	e00f      	b.n	8002b14 <HAL_I2C_Mem_Write+0x1c8>
 8002af4:	68fb      	ldr	r3, [r7, #12]
 8002af6:	8d5b      	ldrh	r3, [r3, #42]	@ 0x2a
 8002af8:	b29a      	uxth	r2, r3
 8002afa:	68fb      	ldr	r3, [r7, #12]
 8002afc:	851a      	strh	r2, [r3, #40]	@ 0x28
 8002afe:	68fb      	ldr	r3, [r7, #12]
 8002b00:	8d1b      	ldrh	r3, [r3, #40]	@ 0x28
 8002b02:	b2da      	uxtb	r2, r3
 8002b04:	8979      	ldrh	r1, [r7, #10]
 8002b06:	2300      	movs	r3, #0
 8002b08:	9300      	str	r3, [sp, #0]
 8002b0a:	f04f 7300 	mov.w	r3, #33554432	@ 0x2000000
 8002b0e:	68f8      	ldr	r0, [r7, #12]
 8002b10:	f000 fce8 	bl	80034e4 <I2C_TransferConfig>
 8002b14:	68fb      	ldr	r3, [r7, #12]
 8002b16:	8d5b      	ldrh	r3, [r3, #42]	@ 0x2a
 8002b18:	b29b      	uxth	r3, r3
 8002b1a:	2b00      	cmp	r3, #0
 8002b1c:	d19e      	bne.n	8002a5c <HAL_I2C_Mem_Write+0x110>
 8002b1e:	697a      	ldr	r2, [r7, #20]
 8002b20:	6ab9      	ldr	r1, [r7, #40]	@ 0x28
 8002b22:	68f8      	ldr	r0, [r7, #12]
 8002b24:	f000 fbba 	bl	800329c <I2C_WaitOnSTOPFlagUntilTimeout>
 8002b28:	4603      	mov	r3, r0
 8002b2a:	2b00      	cmp	r3, #0
 8002b2c:	d001      	beq.n	8002b32 <HAL_I2C_Mem_Write+0x1e6>
 8002b2e:	2301      	movs	r3, #1
 8002b30:	e01a      	b.n	8002b68 <HAL_I2C_Mem_Write+0x21c>
 8002b32:	68fb      	ldr	r3, [r7, #12]
 8002b34:	681b      	ldr	r3, [r3, #0]
 8002b36:	2220      	movs	r2, #32
 8002b38:	61da      	str	r2, [r3, #28]
 8002b3a:	68fb      	ldr	r3, [r7, #12]
 8002b3c:	681b      	ldr	r3, [r3, #0]
 8002b3e:	6859      	ldr	r1, [r3, #4]
 8002b40:	68fb      	ldr	r3, [r7, #12]
 8002b42:	681a      	ldr	r2, [r3, #0]
 8002b44:	4b0a      	ldr	r3, [pc, #40]	@ (8002b70 <HAL_I2C_Mem_Write+0x224>)
 8002b46:	400b      	ands	r3, r1
 8002b48:	6053      	str	r3, [r2, #4]
 8002b4a:	68fb      	ldr	r3, [r7, #12]
 8002b4c:	2220      	movs	r2, #32
 8002b4e:	f883 2041 	strb.w	r2, [r3, #65]	@ 0x41
 8002b52:	68fb      	ldr	r3, [r7, #12]
 8002b54:	2200      	movs	r2, #0
 8002b56:	f883 2042 	strb.w	r2, [r3, #66]	@ 0x42
 8002b5a:	68fb      	ldr	r3, [r7, #12]
 8002b5c:	2200      	movs	r2, #0
 8002b5e:	f883 2040 	strb.w	r2, [r3, #64]	@ 0x40
 8002b62:	2300      	movs	r3, #0
 8002b64:	e000      	b.n	8002b68 <HAL_I2C_Mem_Write+0x21c>
 8002b66:	2302      	movs	r3, #2
 8002b68:	4618      	mov	r0, r3
 8002b6a:	3718      	adds	r7, #24
 8002b6c:	46bd      	mov	sp, r7
 8002b6e:	bd80      	pop	{r7, pc}
 8002b70:	fe00e800 	.word	0xfe00e800

08002b74 <HAL_I2C_Mem_Read>:
 8002b74:	b580      	push	{r7, lr}
 8002b76:	b088      	sub	sp, #32
 8002b78:	af02      	add	r7, sp, #8
 8002b7a:	60f8      	str	r0, [r7, #12]
 8002b7c:	4608      	mov	r0, r1
 8002b7e:	4611      	mov	r1, r2
 8002b80:	461a      	mov	r2, r3
 8002b82:	4603      	mov	r3, r0
 8002b84:	817b      	strh	r3, [r7, #10]
 8002b86:	460b      	mov	r3, r1
 8002b88:	813b      	strh	r3, [r7, #8]
 8002b8a:	4613      	mov	r3, r2
 8002b8c:	80fb      	strh	r3, [r7, #6]
 8002b8e:	68fb      	ldr	r3, [r7, #12]
 8002b90:	f893 3041 	ldrb.w	r3, [r3, #65]	@ 0x41
 8002b94:	b2db      	uxtb	r3, r3
 8002b96:	2b20      	cmp	r3, #32
 8002b98:	f040 80fd 	bne.w	8002d96 <HAL_I2C_Mem_Read+0x222>
 8002b9c:	6a3b      	ldr	r3, [r7, #32]
 8002b9e:	2b00      	cmp	r3, #0
 8002ba0:	d002      	beq.n	8002ba8 <HAL_I2C_Mem_Read+0x34>
 8002ba2:	8cbb      	ldrh	r3, [r7, #36]	@ 0x24
 8002ba4:	2b00      	cmp	r3, #0
 8002ba6:	d105      	bne.n	8002bb4 <HAL_I2C_Mem_Read+0x40>
 8002ba8:	68fb      	ldr	r3, [r7, #12]
 8002baa:	f44f 7200 	mov.w	r2, #512	@ 0x200
 8002bae:	645a      	str	r2, [r3, #68]	@ 0x44
 8002bb0:	2301      	movs	r3, #1
 8002bb2:	e0f1      	b.n	8002d98 <HAL_I2C_Mem_Read+0x224>
 8002bb4:	68fb      	ldr	r3, [r7, #12]
 8002bb6:	f893 3040 	ldrb.w	r3, [r3, #64]	@ 0x40
 8002bba:	2b01      	cmp	r3, #1
 8002bbc:	d101      	bne.n	8002bc2 <HAL_I2C_Mem_Read+0x4e>
 8002bbe:	2302      	movs	r3, #2
 8002bc0:	e0ea      	b.n	8002d98 <HAL_I2C_Mem_Read+0x224>
 8002bc2:	68fb      	ldr	r3, [r7, #12]
 8002bc4:	2201      	movs	r2, #1
 8002bc6:	f883 2040 	strb.w	r2, [r3, #64]	@ 0x40
 8002bca:	f7fe feb7 	bl	800193c <HAL_GetTick>
 8002bce:	6178      	str	r0, [r7, #20]
 8002bd0:	697b      	ldr	r3, [r7, #20]
 8002bd2:	9300      	str	r3, [sp, #0]
 8002bd4:	2319      	movs	r3, #25
 8002bd6:	2201      	movs	r2, #1
 8002bd8:	f44f 4100 	mov.w	r1, #32768	@ 0x8000
 8002bdc:	68f8      	ldr	r0, [r7, #12]
 8002bde:	f000 fabd 	bl	800315c <I2C_WaitOnFlagUntilTimeout>
 8002be2:	4603      	mov	r3, r0
 8002be4:	2b00      	cmp	r3, #0
 8002be6:	d001      	beq.n	8002bec <HAL_I2C_Mem_Read+0x78>
 8002be8:	2301      	movs	r3, #1
 8002bea:	e0d5      	b.n	8002d98 <HAL_I2C_Mem_Read+0x224>
 8002bec:	68fb      	ldr	r3, [r7, #12]
 8002bee:	2222      	movs	r2, #34	@ 0x22
 8002bf0:	f883 2041 	strb.w	r2, [r3, #65]	@ 0x41
 8002bf4:	68fb      	ldr	r3, [r7, #12]
 8002bf6:	2240      	movs	r2, #64	@ 0x40
 8002bf8:	f883 2042 	strb.w	r2, [r3, #66]	@ 0x42
 8002bfc:	68fb      	ldr	r3, [r7, #12]
 8002bfe:	2200      	movs	r2, #0
 8002c00:	645a      	str	r2, [r3, #68]	@ 0x44
 8002c02:	68fb      	ldr	r3, [r7, #12]
 8002c04:	6a3a      	ldr	r2, [r7, #32]
 8002c06:	625a      	str	r2, [r3, #36]	@ 0x24
 8002c08:	68fb      	ldr	r3, [r7, #12]
 8002c0a:	8cba      	ldrh	r2, [r7, #36]	@ 0x24
 8002c0c:	855a      	strh	r2, [r3, #42]	@ 0x2a
 8002c0e:	68fb      	ldr	r3, [r7, #12]
 8002c10:	2200      	movs	r2, #0
 8002c12:	635a      	str	r2, [r3, #52]	@ 0x34
 8002c14:	88f8      	ldrh	r0, [r7, #6]
 8002c16:	893a      	ldrh	r2, [r7, #8]
 8002c18:	8979      	ldrh	r1, [r7, #10]
 8002c1a:	697b      	ldr	r3, [r7, #20]
 8002c1c:	9301      	str	r3, [sp, #4]
 8002c1e:	6abb      	ldr	r3, [r7, #40]	@ 0x28
 8002c20:	9300      	str	r3, [sp, #0]
 8002c22:	4603      	mov	r3, r0
 8002c24:	68f8      	ldr	r0, [r7, #12]
 8002c26:	f000 fa21 	bl	800306c <I2C_RequestMemoryRead>
 8002c2a:	4603      	mov	r3, r0
 8002c2c:	2b00      	cmp	r3, #0
 8002c2e:	d005      	beq.n	8002c3c <HAL_I2C_Mem_Read+0xc8>
 8002c30:	68fb      	ldr	r3, [r7, #12]
 8002c32:	2200      	movs	r2, #0
 8002c34:	f883 2040 	strb.w	r2, [r3, #64]	@ 0x40
 8002c38:	2301      	movs	r3, #1
 8002c3a:	e0ad      	b.n	8002d98 <HAL_I2C_Mem_Read+0x224>
 8002c3c:	68fb      	ldr	r3, [r7, #12]
 8002c3e:	8d5b      	ldrh	r3, [r3, #42]	@ 0x2a
 8002c40:	b29b      	uxth	r3, r3
 8002c42:	2bff      	cmp	r3, #255	@ 0xff
 8002c44:	d90e      	bls.n	8002c64 <HAL_I2C_Mem_Read+0xf0>
 8002c46:	68fb      	ldr	r3, [r7, #12]
 8002c48:	22ff      	movs	r2, #255	@ 0xff
 8002c4a:	851a      	strh	r2, [r3, #40]	@ 0x28
 8002c4c:	68fb      	ldr	r3, [r7, #12]
 8002c4e:	8d1b      	ldrh	r3, [r3, #40]	@ 0x28
 8002c50:	b2da      	uxtb	r2, r3
 8002c52:	8979      	ldrh	r1, [r7, #10]
 8002c54:	4b52      	ldr	r3, [pc, #328]	@ (8002da0 <HAL_I2C_Mem_Read+0x22c>)
 8002c56:	9300      	str	r3, [sp, #0]
 8002c58:	f04f 7380 	mov.w	r3, #16777216	@ 0x1000000
 8002c5c:	68f8      	ldr	r0, [r7, #12]
 8002c5e:	f000 fc41 	bl	80034e4 <I2C_TransferConfig>
 8002c62:	e00f      	b.n	8002c84 <HAL_I2C_Mem_Read+0x110>
 8002c64:	68fb      	ldr	r3, [r7, #12]
 8002c66:	8d5b      	ldrh	r3, [r3, #42]	@ 0x2a
 8002c68:	b29a      	uxth	r2, r3
 8002c6a:	68fb      	ldr	r3, [r7, #12]
 8002c6c:	851a      	strh	r2, [r3, #40]	@ 0x28
 8002c6e:	68fb      	ldr	r3, [r7, #12]
 8002c70:	8d1b      	ldrh	r3, [r3, #40]	@ 0x28
 8002c72:	b2da      	uxtb	r2, r3
 8002c74:	8979      	ldrh	r1, [r7, #10]
 8002c76:	4b4a      	ldr	r3, [pc, #296]	@ (8002da0 <HAL_I2C_Mem_Read+0x22c>)
 8002c78:	9300      	str	r3, [sp, #0]
 8002c7a:	f04f 7300 	mov.w	r3, #33554432	@ 0x2000000
 8002c7e:	68f8      	ldr	r0, [r7, #12]
 8002c80:	f000 fc30 	bl	80034e4 <I2C_TransferConfig>
 8002c84:	697b      	ldr	r3, [r7, #20]
 8002c86:	9300      	str	r3, [sp, #0]
 8002c88:	6abb      	ldr	r3, [r7, #40]	@ 0x28
 8002c8a:	2200      	movs	r2, #0
 8002c8c:	2104      	movs	r1, #4
 8002c8e:	68f8      	ldr	r0, [r7, #12]
 8002c90:	f000 fa64 	bl	800315c <I2C_WaitOnFlagUntilTimeout>
 8002c94:	4603      	mov	r3, r0
 8002c96:	2b00      	cmp	r3, #0
 8002c98:	d001      	beq.n	8002c9e <HAL_I2C_Mem_Read+0x12a>
 8002c9a:	2301      	movs	r3, #1
 8002c9c:	e07c      	b.n	8002d98 <HAL_I2C_Mem_Read+0x224>
 8002c9e:	68fb      	ldr	r3, [r7, #12]
 8002ca0:	681b      	ldr	r3, [r3, #0]
 8002ca2:	6a5a      	ldr	r2, [r3, #36]	@ 0x24
 8002ca4:	68fb      	ldr	r3, [r7, #12]
 8002ca6:	6a5b      	ldr	r3, [r3, #36]	@ 0x24
 8002ca8:	b2d2      	uxtb	r2, r2
 8002caa:	701a      	strb	r2, [r3, #0]
 8002cac:	68fb      	ldr	r3, [r7, #12]
 8002cae:	6a5b      	ldr	r3, [r3, #36]	@ 0x24
 8002cb0:	1c5a      	adds	r2, r3, #1
 8002cb2:	68fb      	ldr	r3, [r7, #12]
 8002cb4:	625a      	str	r2, [r3, #36]	@ 0x24
 8002cb6:	68fb      	ldr	r3, [r7, #12]
 8002cb8:	8d1b      	ldrh	r3, [r3, #40]	@ 0x28
 8002cba:	3b01      	subs	r3, #1
 8002cbc:	b29a      	uxth	r2, r3
 8002cbe:	68fb      	ldr	r3, [r7, #12]
 8002cc0:	851a      	strh	r2, [r3, #40]	@ 0x28
 8002cc2:	68fb      	ldr	r3, [r7, #12]
 8002cc4:	8d5b      	ldrh	r3, [r3, #42]	@ 0x2a
 8002cc6:	b29b      	uxth	r3, r3
 8002cc8:	3b01      	subs	r3, #1
 8002cca:	b29a      	uxth	r2, r3
 8002ccc:	68fb      	ldr	r3, [r7, #12]
 8002cce:	855a      	strh	r2, [r3, #42]	@ 0x2a
 8002cd0:	68fb      	ldr	r3, [r7, #12]
 8002cd2:	8d5b      	ldrh	r3, [r3, #42]	@ 0x2a
 8002cd4:	b29b      	uxth	r3, r3
 8002cd6:	2b00      	cmp	r3, #0
 8002cd8:	d034      	beq.n	8002d44 <HAL_I2C_Mem_Read+0x1d0>
 8002cda:	68fb      	ldr	r3, [r7, #12]
 8002cdc:	8d1b      	ldrh	r3, [r3, #40]	@ 0x28
 8002cde:	2b00      	cmp	r3, #0
 8002ce0:	d130      	bne.n	8002d44 <HAL_I2C_Mem_Read+0x1d0>
 8002ce2:	697b      	ldr	r3, [r7, #20]
 8002ce4:	9300      	str	r3, [sp, #0]
 8002ce6:	6abb      	ldr	r3, [r7, #40]	@ 0x28
 8002ce8:	2200      	movs	r2, #0
 8002cea:	2180      	movs	r1, #128	@ 0x80
 8002cec:	68f8      	ldr	r0, [r7, #12]
 8002cee:	f000 fa35 	bl	800315c <I2C_WaitOnFlagUntilTimeout>
 8002cf2:	4603      	mov	r3, r0
 8002cf4:	2b00      	cmp	r3, #0
 8002cf6:	d001      	beq.n	8002cfc <HAL_I2C_Mem_Read+0x188>
 8002cf8:	2301      	movs	r3, #1
 8002cfa:	e04d      	b.n	8002d98 <HAL_I2C_Mem_Read+0x224>
 8002cfc:	68fb      	ldr	r3, [r7, #12]
 8002cfe:	8d5b      	ldrh	r3, [r3, #42]	@ 0x2a
 8002d00:	b29b      	uxth	r3, r3
 8002d02:	2bff      	cmp	r3, #255	@ 0xff
 8002d04:	d90e      	bls.n	8002d24 <HAL_I2C_Mem_Read+0x1b0>
 8002d06:	68fb      	ldr	r3, [r7, #12]
 8002d08:	22ff      	movs	r2, #255	@ 0xff
 8002d0a:	851a      	strh	r2, [r3, #40]	@ 0x28
 8002d0c:	68fb      	ldr	r3, [r7, #12]
 8002d0e:	8d1b      	ldrh	r3, [r3, #40]	@ 0x28
 8002d10:	b2da      	uxtb	r2, r3
 8002d12:	8979      	ldrh	r1, [r7, #10]
 8002d14:	2300      	movs	r3, #0
 8002d16:	9300      	str	r3, [sp, #0]
 8002d18:	f04f 7380 	mov.w	r3, #16777216	@ 0x1000000
 8002d1c:	68f8      	ldr	r0, [r7, #12]
 8002d1e:	f000 fbe1 	bl	80034e4 <I2C_TransferConfig>
 8002d22:	e00f      	b.n	8002d44 <HAL_I2C_Mem_Read+0x1d0>
 8002d24:	68fb      	ldr	r3, [r7, #12]
 8002d26:	8d5b      	ldrh	r3, [r3, #42]	@ 0x2a
 8002d28:	b29a      	uxth	r2, r3
 8002d2a:	68fb      	ldr	r3, [r7, #12]
 8002d2c:	851a      	strh	r2, [r3, #40]	@ 0x28
 8002d2e:	68fb      	ldr	r3, [r7, #12]
 8002d30:	8d1b      	ldrh	r3, [r3, #40]	@ 0x28
 8002d32:	b2da      	uxtb	r2, r3
 8002d34:	8979      	ldrh	r1, [r7, #10]
 8002d36:	2300      	movs	r3, #0
 8002d38:	9300      	str	r3, [sp, #0]
 8002d3a:	f04f 7300 	mov.w	r3, #33554432	@ 0x2000000
 8002d3e:	68f8      	ldr	r0, [r7, #12]
 8002d40:	f000 fbd0 	bl	80034e4 <I2C_TransferConfig>
 8002d44:	68fb      	ldr	r3, [r7, #12]
 8002d46:	8d5b      	ldrh	r3, [r3, #42]	@ 0x2a
 8002d48:	b29b      	uxth	r3, r3
 8002d4a:	2b00      	cmp	r3, #0
 8002d4c:	d19a      	bne.n	8002c84 <HAL_I2C_Mem_Read+0x110>
 8002d4e:	697a      	ldr	r2, [r7, #20]
 8002d50:	6ab9      	ldr	r1, [r7, #40]	@ 0x28
 8002d52:	68f8      	ldr	r0, [r7, #12]
 8002d54:	f000 faa2 	bl	800329c <I2C_WaitOnSTOPFlagUntilTimeout>
 8002d58:	4603      	mov	r3, r0
 8002d5a:	2b00      	cmp	r3, #0
 8002d5c:	d001      	beq.n	8002d62 <HAL_I2C_Mem_Read+0x1ee>
 8002d5e:	2301      	movs	r3, #1
 8002d60:	e01a      	b.n	8002d98 <HAL_I2C_Mem_Read+0x224>
 8002d62:	68fb      	ldr	r3, [r7, #12]
 8002d64:	681b      	ldr	r3, [r3, #0]
 8002d66:	2220      	movs	r2, #32
 8002d68:	61da      	str	r2, [r3, #28]
 8002d6a:	68fb      	ldr	r3, [r7, #12]
 8002d6c:	681b      	ldr	r3, [r3, #0]
 8002d6e:	6859      	ldr	r1, [r3, #4]
 8002d70:	68fb      	ldr	r3, [r7, #12]
 8002d72:	681a      	ldr	r2, [r3, #0]
 8002d74:	4b0b      	ldr	r3, [pc, #44]	@ (8002da4 <HAL_I2C_Mem_Read+0x230>)
 8002d76:	400b      	ands	r3, r1
 8002d78:	6053      	str	r3, [r2, #4]
 8002d7a:	68fb      	ldr	r3, [r7, #12]
 8002d7c:	2220      	movs	r2, #32
 8002d7e:	f883 2041 	strb.w	r2, [r3, #65]	@ 0x41
 8002d82:	68fb      	ldr	r3, [r7, #12]
 8002d84:	2200      	movs	r2, #0
 8002d86:	f883 2042 	strb.w	r2, [r3, #66]	@ 0x42
 8002d8a:	68fb      	ldr	r3, [r7, #12]
 8002d8c:	2200      	movs	r2, #0
 8002d8e:	f883 2040 	strb.w	r2, [r3, #64]	@ 0x40
 8002d92:	2300      	movs	r3, #0
 8002d94:	e000      	b.n	8002d98 <HAL_I2C_Mem_Read+0x224>
 8002d96:	2302      	movs	r3, #2
 8002d98:	4618      	mov	r0, r3
 8002d9a:	3718      	adds	r7, #24
 8002d9c:	46bd      	mov	sp, r7
 8002d9e:	bd80      	pop	{r7, pc}
 8002da0:	80002400 	.word	0x80002400
 8002da4:	fe00e800 	.word	0xfe00e800

08002da8 <HAL_I2C_IsDeviceReady>:
 8002da8:	b580      	push	{r7, lr}
 8002daa:	b08a      	sub	sp, #40	@ 0x28
 8002dac:	af02      	add	r7, sp, #8
 8002dae:	60f8      	str	r0, [r7, #12]
 8002db0:	607a      	str	r2, [r7, #4]
 8002db2:	603b      	str	r3, [r7, #0]
 8002db4:	460b      	mov	r3, r1
 8002db6:	817b      	strh	r3, [r7, #10]
 8002db8:	2300      	movs	r3, #0
 8002dba:	617b      	str	r3, [r7, #20]
 8002dbc:	68fb      	ldr	r3, [r7, #12]
 8002dbe:	f893 3041 	ldrb.w	r3, [r3, #65]	@ 0x41
 8002dc2:	b2db      	uxtb	r3, r3
 8002dc4:	2b20      	cmp	r3, #32
 8002dc6:	f040 80de 	bne.w	8002f86 <HAL_I2C_IsDeviceReady+0x1de>
 8002dca:	68fb      	ldr	r3, [r7, #12]
 8002dcc:	681b      	ldr	r3, [r3, #0]
 8002dce:	699b      	ldr	r3, [r3, #24]
 8002dd0:	f403 4300 	and.w	r3, r3, #32768	@ 0x8000
 8002dd4:	f5b3 4f00 	cmp.w	r3, #32768	@ 0x8000
 8002dd8:	d101      	bne.n	8002dde <HAL_I2C_IsDeviceReady+0x36>
 8002dda:	2302      	movs	r3, #2
 8002ddc:	e0d4      	b.n	8002f88 <HAL_I2C_IsDeviceReady+0x1e0>
 8002dde:	68fb      	ldr	r3, [r7, #12]
 8002de0:	f893 3040 	ldrb.w	r3, [r3, #64]	@ 0x40
 8002de4:	2b01      	cmp	r3, #1
 8002de6:	d101      	bne.n	8002dec <HAL_I2C_IsDeviceReady+0x44>
 8002de8:	2302      	movs	r3, #2
 8002dea:	e0cd      	b.n	8002f88 <HAL_I2C_IsDeviceReady+0x1e0>
 8002dec:	68fb      	ldr	r3, [r7, #12]
 8002dee:	2201      	movs	r2, #1
 8002df0:	f883 2040 	strb.w	r2, [r3, #64]	@ 0x40
 8002df4:	68fb      	ldr	r3, [r7, #12]
 8002df6:	2224      	movs	r2, #36	@ 0x24
 8002df8:	f883 2041 	strb.w	r2, [r3, #65]	@ 0x41
 8002dfc:	68fb      	ldr	r3, [r7, #12]
 8002dfe:	2200      	movs	r2, #0
 8002e00:	645a      	str	r2, [r3, #68]	@ 0x44
 8002e02:	68fb      	ldr	r3, [r7, #12]
 8002e04:	68db      	ldr	r3, [r3, #12]
 8002e06:	2b01      	cmp	r3, #1
 8002e08:	d107      	bne.n	8002e1a <HAL_I2C_IsDeviceReady+0x72>
 8002e0a:	897b      	ldrh	r3, [r7, #10]
 8002e0c:	f3c3 0309 	ubfx	r3, r3, #0, #10
 8002e10:	f043 7300 	orr.w	r3, r3, #33554432	@ 0x2000000
 8002e14:	f443 5300 	orr.w	r3, r3, #8192	@ 0x2000
 8002e18:	e006      	b.n	8002e28 <HAL_I2C_IsDeviceReady+0x80>
 8002e1a:	897b      	ldrh	r3, [r7, #10]
 8002e1c:	f3c3 0309 	ubfx	r3, r3, #0, #10
 8002e20:	f043 7300 	orr.w	r3, r3, #33554432	@ 0x2000000
 8002e24:	f443 5320 	orr.w	r3, r3, #10240	@ 0x2800
 8002e28:	68fa      	ldr	r2, [r7, #12]
 8002e2a:	6812      	ldr	r2, [r2, #0]
 8002e2c:	6053      	str	r3, [r2, #4]
 8002e2e:	f7fe fd85 	bl	800193c <HAL_GetTick>
 8002e32:	61b8      	str	r0, [r7, #24]
 8002e34:	68fb      	ldr	r3, [r7, #12]
 8002e36:	681b      	ldr	r3, [r3, #0]
 8002e38:	699b      	ldr	r3, [r3, #24]
 8002e3a:	f003 0320 	and.w	r3, r3, #32
 8002e3e:	2b20      	cmp	r3, #32
 8002e40:	bf0c      	ite	eq
 8002e42:	2301      	moveq	r3, #1
 8002e44:	2300      	movne	r3, #0
 8002e46:	b2db      	uxtb	r3, r3
 8002e48:	77fb      	strb	r3, [r7, #31]
 8002e4a:	68fb      	ldr	r3, [r7, #12]
 8002e4c:	681b      	ldr	r3, [r3, #0]
 8002e4e:	699b      	ldr	r3, [r3, #24]
 8002e50:	f003 0310 	and.w	r3, r3, #16
 8002e54:	2b10      	cmp	r3, #16
 8002e56:	bf0c      	ite	eq
 8002e58:	2301      	moveq	r3, #1
 8002e5a:	2300      	movne	r3, #0
 8002e5c:	b2db      	uxtb	r3, r3
 8002e5e:	77bb      	strb	r3, [r7, #30]
 8002e60:	e034      	b.n	8002ecc <HAL_I2C_IsDeviceReady+0x124>
 8002e62:	683b      	ldr	r3, [r7, #0]
 8002e64:	f1b3 3fff 	cmp.w	r3, #4294967295
 8002e68:	d01a      	beq.n	8002ea0 <HAL_I2C_IsDeviceReady+0xf8>
 8002e6a:	f7fe fd67 	bl	800193c <HAL_GetTick>
 8002e6e:	4602      	mov	r2, r0
 8002e70:	69bb      	ldr	r3, [r7, #24]
 8002e72:	1ad3      	subs	r3, r2, r3
 8002e74:	683a      	ldr	r2, [r7, #0]
 8002e76:	429a      	cmp	r2, r3
 8002e78:	d302      	bcc.n	8002e80 <HAL_I2C_IsDeviceReady+0xd8>
 8002e7a:	683b      	ldr	r3, [r7, #0]
 8002e7c:	2b00      	cmp	r3, #0
 8002e7e:	d10f      	bne.n	8002ea0 <HAL_I2C_IsDeviceReady+0xf8>
 8002e80:	68fb      	ldr	r3, [r7, #12]
 8002e82:	2220      	movs	r2, #32
 8002e84:	f883 2041 	strb.w	r2, [r3, #65]	@ 0x41
 8002e88:	68fb      	ldr	r3, [r7, #12]
 8002e8a:	6c5b      	ldr	r3, [r3, #68]	@ 0x44
 8002e8c:	f043 0220 	orr.w	r2, r3, #32
 8002e90:	68fb      	ldr	r3, [r7, #12]
 8002e92:	645a      	str	r2, [r3, #68]	@ 0x44
 8002e94:	68fb      	ldr	r3, [r7, #12]
 8002e96:	2200      	movs	r2, #0
 8002e98:	f883 2040 	strb.w	r2, [r3, #64]	@ 0x40
 8002e9c:	2301      	movs	r3, #1
 8002e9e:	e073      	b.n	8002f88 <HAL_I2C_IsDeviceReady+0x1e0>
 8002ea0:	68fb      	ldr	r3, [r7, #12]
 8002ea2:	681b      	ldr	r3, [r3, #0]
 8002ea4:	699b      	ldr	r3, [r3, #24]
 8002ea6:	f003 0320 	and.w	r3, r3, #32
 8002eaa:	2b20      	cmp	r3, #32
 8002eac:	bf0c      	ite	eq
 8002eae:	2301      	moveq	r3, #1
 8002eb0:	2300      	movne	r3, #0
 8002eb2:	b2db      	uxtb	r3, r3
 8002eb4:	77fb      	strb	r3, [r7, #31]
 8002eb6:	68fb      	ldr	r3, [r7, #12]
 8002eb8:	681b      	ldr	r3, [r3, #0]
 8002eba:	699b      	ldr	r3, [r3, #24]
 8002ebc:	f003 0310 	and.w	r3, r3, #16
 8002ec0:	2b10      	cmp	r3, #16
 8002ec2:	bf0c      	ite	eq
 8002ec4:	2301      	moveq	r3, #1
 8002ec6:	2300      	movne	r3, #0
 8002ec8:	b2db      	uxtb	r3, r3
 8002eca:	77bb      	strb	r3, [r7, #30]
 8002ecc:	7ffb      	ldrb	r3, [r7, #31]
 8002ece:	2b00      	cmp	r3, #0
 8002ed0:	d102      	bne.n	8002ed8 <HAL_I2C_IsDeviceReady+0x130>
 8002ed2:	7fbb      	ldrb	r3, [r7, #30]
 8002ed4:	2b00      	cmp	r3, #0
 8002ed6:	d0c4      	beq.n	8002e62 <HAL_I2C_IsDeviceReady+0xba>
 8002ed8:	68fb      	ldr	r3, [r7, #12]
 8002eda:	681b      	ldr	r3, [r3, #0]
 8002edc:	699b      	ldr	r3, [r3, #24]
 8002ede:	f003 0310 	and.w	r3, r3, #16
 8002ee2:	2b10      	cmp	r3, #16
 8002ee4:	d024      	beq.n	8002f30 <HAL_I2C_IsDeviceReady+0x188>
 8002ee6:	69bb      	ldr	r3, [r7, #24]
 8002ee8:	9300      	str	r3, [sp, #0]
 8002eea:	683b      	ldr	r3, [r7, #0]
 8002eec:	2200      	movs	r2, #0
 8002eee:	2120      	movs	r1, #32
 8002ef0:	68f8      	ldr	r0, [r7, #12]
 8002ef2:	f000 f933 	bl	800315c <I2C_WaitOnFlagUntilTimeout>
 8002ef6:	4603      	mov	r3, r0
 8002ef8:	2b00      	cmp	r3, #0
 8002efa:	d00b      	beq.n	8002f14 <HAL_I2C_IsDeviceReady+0x16c>
 8002efc:	68fb      	ldr	r3, [r7, #12]
 8002efe:	6c5b      	ldr	r3, [r3, #68]	@ 0x44
 8002f00:	2b04      	cmp	r3, #4
 8002f02:	d128      	bne.n	8002f56 <HAL_I2C_IsDeviceReady+0x1ae>
 8002f04:	68fb      	ldr	r3, [r7, #12]
 8002f06:	681b      	ldr	r3, [r3, #0]
 8002f08:	2220      	movs	r2, #32
 8002f0a:	61da      	str	r2, [r3, #28]
 8002f0c:	68fb      	ldr	r3, [r7, #12]
 8002f0e:	2200      	movs	r2, #0
 8002f10:	645a      	str	r2, [r3, #68]	@ 0x44
 8002f12:	e020      	b.n	8002f56 <HAL_I2C_IsDeviceReady+0x1ae>
 8002f14:	68fb      	ldr	r3, [r7, #12]
 8002f16:	681b      	ldr	r3, [r3, #0]
 8002f18:	2220      	movs	r2, #32
 8002f1a:	61da      	str	r2, [r3, #28]
 8002f1c:	68fb      	ldr	r3, [r7, #12]
 8002f1e:	2220      	movs	r2, #32
 8002f20:	f883 2041 	strb.w	r2, [r3, #65]	@ 0x41
 8002f24:	68fb      	ldr	r3, [r7, #12]
 8002f26:	2200      	movs	r2, #0
 8002f28:	f883 2040 	strb.w	r2, [r3, #64]	@ 0x40
 8002f2c:	2300      	movs	r3, #0
 8002f2e:	e02b      	b.n	8002f88 <HAL_I2C_IsDeviceReady+0x1e0>
 8002f30:	68fb      	ldr	r3, [r7, #12]
 8002f32:	681b      	ldr	r3, [r3, #0]
 8002f34:	2210      	movs	r2, #16
 8002f36:	61da      	str	r2, [r3, #28]
 8002f38:	69bb      	ldr	r3, [r7, #24]
 8002f3a:	9300      	str	r3, [sp, #0]
 8002f3c:	683b      	ldr	r3, [r7, #0]
 8002f3e:	2200      	movs	r2, #0
 8002f40:	2120      	movs	r1, #32
 8002f42:	68f8      	ldr	r0, [r7, #12]
 8002f44:	f000 f90a 	bl	800315c <I2C_WaitOnFlagUntilTimeout>
 8002f48:	4603      	mov	r3, r0
 8002f4a:	2b00      	cmp	r3, #0
 8002f4c:	d103      	bne.n	8002f56 <HAL_I2C_IsDeviceReady+0x1ae>
 8002f4e:	68fb      	ldr	r3, [r7, #12]
 8002f50:	681b      	ldr	r3, [r3, #0]
 8002f52:	2220      	movs	r2, #32
 8002f54:	61da      	str	r2, [r3, #28]
 8002f56:	697b      	ldr	r3, [r7, #20]
 8002f58:	3301      	adds	r3, #1
 8002f5a:	617b      	str	r3, [r7, #20]
 8002f5c:	697b      	ldr	r3, [r7, #20]
 8002f5e:	687a      	ldr	r2, [r7, #4]
 8002f60:	429a      	cmp	r2, r3
 8002f62:	f63f af4e 	bhi.w	8002e02 <HAL_I2C_IsDeviceReady+0x5a>
 8002f66:	68fb      	ldr	r3, [r7, #12]
 8002f68:	2220      	movs	r2, #32
 8002f6a:	f883 2041 	strb.w	r2, [r3, #65]	@ 0x41
 8002f6e:	68fb      	ldr	r3, [r7, #12]
 8002f70:	6c5b      	ldr	r3, [r3, #68]	@ 0x44
 8002f72:	f043 0220 	orr.w	r2, r3, #32
 8002f76:	68fb      	ldr	r3, [r7, #12]
 8002f78:	645a      	str	r2, [r3, #68]	@ 0x44
 8002f7a:	68fb      	ldr	r3, [r7, #12]
 8002f7c:	2200      	movs	r2, #0
 8002f7e:	f883 2040 	strb.w	r2, [r3, #64]	@ 0x40
 8002f82:	2301      	movs	r3, #1
 8002f84:	e000      	b.n	8002f88 <HAL_I2C_IsDeviceReady+0x1e0>
 8002f86:	2302      	movs	r3, #2
 8002f88:	4618      	mov	r0, r3
 8002f8a:	3720      	adds	r7, #32
 8002f8c:	46bd      	mov	sp, r7
 8002f8e:	bd80      	pop	{r7, pc}

08002f90 <HAL_I2C_EV_IRQHandler>:
 8002f90:	b580      	push	{r7, lr}
 8002f92:	b084      	sub	sp, #16
 8002f94:	af00      	add	r7, sp, #0
 8002f96:	6078      	str	r0, [r7, #4]
 8002f98:	687b      	ldr	r3, [r7, #4]
 8002f9a:	681b      	ldr	r3, [r3, #0]
 8002f9c:	699b      	ldr	r3, [r3, #24]
 8002f9e:	60fb      	str	r3, [r7, #12]
 8002fa0:	687b      	ldr	r3, [r7, #4]
 8002fa2:	681b      	ldr	r3, [r3, #0]
 8002fa4:	681b      	ldr	r3, [r3, #0]
 8002fa6:	60bb      	str	r3, [r7, #8]
 8002fa8:	687b      	ldr	r3, [r7, #4]
 8002faa:	6b5b      	ldr	r3, [r3, #52]	@ 0x34
 8002fac:	2b00      	cmp	r3, #0
 8002fae:	d005      	beq.n	8002fbc <HAL_I2C_EV_IRQHandler+0x2c>
 8002fb0:	687b      	ldr	r3, [r7, #4]
 8002fb2:	6b5b      	ldr	r3, [r3, #52]	@ 0x34
 8002fb4:	68ba      	ldr	r2, [r7, #8]
 8002fb6:	68f9      	ldr	r1, [r7, #12]
 8002fb8:	6878      	ldr	r0, [r7, #4]
 8002fba:	4798      	blx	r3
 8002fbc:	bf00      	nop
 8002fbe:	3710      	adds	r7, #16
 8002fc0:	46bd      	mov	sp, r7
 8002fc2:	bd80      	pop	{r7, pc}

08002fc4 <I2C_RequestMemoryWrite>:
 8002fc4:	b580      	push	{r7, lr}
 8002fc6:	b086      	sub	sp, #24
 8002fc8:	af02      	add	r7, sp, #8
 8002fca:	60f8      	str	r0, [r7, #12]
 8002fcc:	4608      	mov	r0, r1
 8002fce:	4611      	mov	r1, r2
 8002fd0:	461a      	mov	r2, r3
 8002fd2:	4603      	mov	r3, r0
 8002fd4:	817b      	strh	r3, [r7, #10]
 8002fd6:	460b      	mov	r3, r1
 8002fd8:	813b      	strh	r3, [r7, #8]
 8002fda:	4613      	mov	r3, r2
 8002fdc:	80fb      	strh	r3, [r7, #6]
 8002fde:	88fb      	ldrh	r3, [r7, #6]
 8002fe0:	b2da      	uxtb	r2, r3
 8002fe2:	8979      	ldrh	r1, [r7, #10]
 8002fe4:	4b20      	ldr	r3, [pc, #128]	@ (8003068 <I2C_RequestMemoryWrite+0xa4>)
 8002fe6:	9300      	str	r3, [sp, #0]
 8002fe8:	f04f 7380 	mov.w	r3, #16777216	@ 0x1000000
 8002fec:	68f8      	ldr	r0, [r7, #12]
 8002fee:	f000 fa79 	bl	80034e4 <I2C_TransferConfig>
 8002ff2:	69fa      	ldr	r2, [r7, #28]
 8002ff4:	69b9      	ldr	r1, [r7, #24]
 8002ff6:	68f8      	ldr	r0, [r7, #12]
 8002ff8:	f000 f909 	bl	800320e <I2C_WaitOnTXISFlagUntilTimeout>
 8002ffc:	4603      	mov	r3, r0
 8002ffe:	2b00      	cmp	r3, #0
 8003000:	d001      	beq.n	8003006 <I2C_RequestMemoryWrite+0x42>
 8003002:	2301      	movs	r3, #1
 8003004:	e02c      	b.n	8003060 <I2C_RequestMemoryWrite+0x9c>
 8003006:	88fb      	ldrh	r3, [r7, #6]
 8003008:	2b01      	cmp	r3, #1
 800300a:	d105      	bne.n	8003018 <I2C_RequestMemoryWrite+0x54>
 800300c:	893b      	ldrh	r3, [r7, #8]
 800300e:	b2da      	uxtb	r2, r3
 8003010:	68fb      	ldr	r3, [r7, #12]
 8003012:	681b      	ldr	r3, [r3, #0]
 8003014:	629a      	str	r2, [r3, #40]	@ 0x28
 8003016:	e015      	b.n	8003044 <I2C_RequestMemoryWrite+0x80>
 8003018:	893b      	ldrh	r3, [r7, #8]
 800301a:	0a1b      	lsrs	r3, r3, #8
 800301c:	b29b      	uxth	r3, r3
 800301e:	b2da      	uxtb	r2, r3
 8003020:	68fb      	ldr	r3, [r7, #12]
 8003022:	681b      	ldr	r3, [r3, #0]
 8003024:	629a      	str	r2, [r3, #40]	@ 0x28
 8003026:	69fa      	ldr	r2, [r7, #28]
 8003028:	69b9      	ldr	r1, [r7, #24]
 800302a:	68f8      	ldr	r0, [r7, #12]
 800302c:	f000 f8ef 	bl	800320e <I2C_WaitOnTXISFlagUntilTimeout>
 8003030:	4603      	mov	r3, r0
 8003032:	2b00      	cmp	r3, #0
 8003034:	d001      	beq.n	800303a <I2C_RequestMemoryWrite+0x76>
 8003036:	2301      	movs	r3, #1
 8003038:	e012      	b.n	8003060 <I2C_RequestMemoryWrite+0x9c>
 800303a:	893b      	ldrh	r3, [r7, #8]
 800303c:	b2da      	uxtb	r2, r3
 800303e:	68fb      	ldr	r3, [r7, #12]
 8003040:	681b      	ldr	r3, [r3, #0]
 8003042:	629a      	str	r2, [r3, #40]	@ 0x28
 8003044:	69fb      	ldr	r3, [r7, #28]
 8003046:	9300      	str	r3, [sp, #0]
 8003048:	69bb      	ldr	r3, [r7, #24]
 800304a:	2200      	movs	r2, #0
 800304c:	2180      	movs	r1, #128	@ 0x80
 800304e:	68f8      	ldr	r0, [r7, #12]
 8003050:	f000 f884 	bl	800315c <I2C_WaitOnFlagUntilTimeout>
 8003054:	4603      	mov	r3, r0
 8003056:	2b00      	cmp	r3, #0
 8003058:	d001      	beq.n	800305e <I2C_RequestMemoryWrite+0x9a>
 800305a:	2301      	movs	r3, #1
 800305c:	e000      	b.n	8003060 <I2C_RequestMemoryWrite+0x9c>
 800305e:	2300      	movs	r3, #0
 8003060:	4618      	mov	r0, r3
 8003062:	3710      	adds	r7, #16
 8003064:	46bd      	mov	sp, r7
 8003066:	bd80      	pop	{r7, pc}
 8003068:	80002000 	.word	0x80002000

0800306c <I2C_RequestMemoryRead>:
 800306c:	b580      	push	{r7, lr}
 800306e:	b086      	sub	sp, #24
 8003070:	af02      	add	r7, sp, #8
 8003072:	60f8      	str	r0, [r7, #12]
 8003074:	4608      	mov	r0, r1
 8003076:	4611      	mov	r1, r2
 8003078:	461a      	mov	r2, r3
 800307a:	4603      	mov	r3, r0
 800307c:	817b      	strh	r3, [r7, #10]
 800307e:	460b      	mov	r3, r1
 8003080:	813b      	strh	r3, [r7, #8]
 8003082:	4613      	mov	r3, r2
 8003084:	80fb      	strh	r3, [r7, #6]
 8003086:	88fb      	ldrh	r3, [r7, #6]
 8003088:	b2da      	uxtb	r2, r3
 800308a:	8979      	ldrh	r1, [r7, #10]
 800308c:	4b20      	ldr	r3, [pc, #128]	@ (8003110 <I2C_RequestMemoryRead+0xa4>)
 800308e:	9300      	str	r3, [sp, #0]
 8003090:	2300      	movs	r3, #0
 8003092:	68f8      	ldr	r0, [r7, #12]
 8003094:	f000 fa26 	bl	80034e4 <I2C_TransferConfig>
 8003098:	69fa      	ldr	r2, [r7, #28]
 800309a:	69b9      	ldr	r1, [r7, #24]
 800309c:	68f8      	ldr	r0, [r7, #12]
 800309e:	f000 f8b6 	bl	800320e <I2C_WaitOnTXISFlagUntilTimeout>
 80030a2:	4603      	mov	r3, r0
 80030a4:	2b00      	cmp	r3, #0
 80030a6:	d001      	beq.n	80030ac <I2C_RequestMemoryRead+0x40>
 80030a8:	2301      	movs	r3, #1
 80030aa:	e02c      	b.n	8003106 <I2C_RequestMemoryRead+0x9a>
 80030ac:	88fb      	ldrh	r3, [r7, #6]
 80030ae:	2b01      	cmp	r3, #1
 80030b0:	d105      	bne.n	80030be <I2C_RequestMemoryRead+0x52>
 80030b2:	893b      	ldrh	r3, [r7, #8]
 80030b4:	b2da      	uxtb	r2, r3
 80030b6:	68fb      	ldr	r3, [r7, #12]
 80030b8:	681b      	ldr	r3, [r3, #0]
 80030ba:	629a      	str	r2, [r3, #40]	@ 0x28
 80030bc:	e015      	b.n	80030ea <I2C_RequestMemoryRead+0x7e>
 80030be:	893b      	ldrh	r3, [r7, #8]
 80030c0:	0a1b      	lsrs	r3, r3, #8
 80030c2:	b29b      	uxth	r3, r3
 80030c4:	b2da      	uxtb	r2, r3
 80030c6:	68fb      	ldr	r3, [r7, #12]
 80030c8:	681b      	ldr	r3, [r3, #0]
 80030ca:	629a      	str	r2, [r3, #40]	@ 0x28
 80030cc:	69fa      	ldr	r2, [r7, #28]
 80030ce:	69b9      	ldr	r1, [r7, #24]
 80030d0:	68f8      	ldr	r0, [r7, #12]
 80030d2:	f000 f89c 	bl	800320e <I2C_WaitOnTXISFlagUntilTimeout>
 80030d6:	4603      	mov	r3, r0
 80030d8:	2b00      	cmp	r3, #0
 80030da:	d001      	beq.n	80030e0 <I2C_RequestMemoryRead+0x74>
 80030dc:	2301      	movs	r3, #1
 80030de:	e012      	b.n	8003106 <I2C_RequestMemoryRead+0x9a>
 80030e0:	893b      	ldrh	r3, [r7, #8]
 80030e2:	b2da      	uxtb	r2, r3
 80030e4:	68fb      	ldr	r3, [r7, #12]
 80030e6:	681b      	ldr	r3, [r3, #0]
 80030e8:	629a      	str	r2, [r3, #40]	@ 0x28
 80030ea:	69fb      	ldr	r3, [r7, #28]
 80030ec:	9300      	str	r3, [sp, #0]
 80030ee:	69bb      	ldr	r3, [r7, #24]
 80030f0:	2200      	movs	r2, #0
 80030f2:	2140      	movs	r1, #64	@ 0x40
 80030f4:	68f8      	ldr	r0, [r7, #12]
 80030f6:	f000 f831 	bl	800315c <I2C_WaitOnFlagUntilTimeout>
 80030fa:	4603      	mov	r3, r0
 80030fc:	2b00      	cmp	r3, #0
 80030fe:	d001      	beq.n	8003104 <I2C_RequestMemoryRead+0x98>
 8003100:	2301      	movs	r3, #1
 8003102:	e000      	b.n	8003106 <I2C_RequestMemoryRead+0x9a>
 8003104:	2300      	movs	r3, #0
 8003106:	4618      	mov	r0, r3
 8003108:	3710      	adds	r7, #16
 800310a:	46bd      	mov	sp, r7
 800310c:	bd80      	pop	{r7, pc}
 800310e:	bf00      	nop
 8003110:	80002000 	.word	0x80002000

08003114 <I2C_Flush_TXDR>:
 8003114:	b480      	push	{r7}
 8003116:	b083      	sub	sp, #12
 8003118:	af00      	add	r7, sp, #0
 800311a:	6078      	str	r0, [r7, #4]
 800311c:	687b      	ldr	r3, [r7, #4]
 800311e:	681b      	ldr	r3, [r3, #0]
 8003120:	699b      	ldr	r3, [r3, #24]
 8003122:	f003 0302 	and.w	r3, r3, #2
 8003126:	2b02      	cmp	r3, #2
 8003128:	d103      	bne.n	8003132 <I2C_Flush_TXDR+0x1e>
 800312a:	687b      	ldr	r3, [r7, #4]
 800312c:	681b      	ldr	r3, [r3, #0]
 800312e:	2200      	movs	r2, #0
 8003130:	629a      	str	r2, [r3, #40]	@ 0x28
 8003132:	687b      	ldr	r3, [r7, #4]
 8003134:	681b      	ldr	r3, [r3, #0]
 8003136:	699b      	ldr	r3, [r3, #24]
 8003138:	f003 0301 	and.w	r3, r3, #1
 800313c:	2b01      	cmp	r3, #1
 800313e:	d007      	beq.n	8003150 <I2C_Flush_TXDR+0x3c>
 8003140:	687b      	ldr	r3, [r7, #4]
 8003142:	681b      	ldr	r3, [r3, #0]
 8003144:	699a      	ldr	r2, [r3, #24]
 8003146:	687b      	ldr	r3, [r7, #4]
 8003148:	681b      	ldr	r3, [r3, #0]
 800314a:	f042 0201 	orr.w	r2, r2, #1
 800314e:	619a      	str	r2, [r3, #24]
 8003150:	bf00      	nop
 8003152:	370c      	adds	r7, #12
 8003154:	46bd      	mov	sp, r7
 8003156:	f85d 7b04 	ldr.w	r7, [sp], #4
 800315a:	4770      	bx	lr

0800315c <I2C_WaitOnFlagUntilTimeout>:
 800315c:	b580      	push	{r7, lr}
 800315e:	b084      	sub	sp, #16
 8003160:	af00      	add	r7, sp, #0
 8003162:	60f8      	str	r0, [r7, #12]
 8003164:	60b9      	str	r1, [r7, #8]
 8003166:	603b      	str	r3, [r7, #0]
 8003168:	4613      	mov	r3, r2
 800316a:	71fb      	strb	r3, [r7, #7]
 800316c:	e03b      	b.n	80031e6 <I2C_WaitOnFlagUntilTimeout+0x8a>
 800316e:	69ba      	ldr	r2, [r7, #24]
 8003170:	6839      	ldr	r1, [r7, #0]
 8003172:	68f8      	ldr	r0, [r7, #12]
 8003174:	f000 f8d6 	bl	8003324 <I2C_IsErrorOccurred>
 8003178:	4603      	mov	r3, r0
 800317a:	2b00      	cmp	r3, #0
 800317c:	d001      	beq.n	8003182 <I2C_WaitOnFlagUntilTimeout+0x26>
 800317e:	2301      	movs	r3, #1
 8003180:	e041      	b.n	8003206 <I2C_WaitOnFlagUntilTimeout+0xaa>
 8003182:	683b      	ldr	r3, [r7, #0]
 8003184:	f1b3 3fff 	cmp.w	r3, #4294967295
 8003188:	d02d      	beq.n	80031e6 <I2C_WaitOnFlagUntilTimeout+0x8a>
 800318a:	f7fe fbd7 	bl	800193c <HAL_GetTick>
 800318e:	4602      	mov	r2, r0
 8003190:	69bb      	ldr	r3, [r7, #24]
 8003192:	1ad3      	subs	r3, r2, r3
 8003194:	683a      	ldr	r2, [r7, #0]
 8003196:	429a      	cmp	r2, r3
 8003198:	d302      	bcc.n	80031a0 <I2C_WaitOnFlagUntilTimeout+0x44>
 800319a:	683b      	ldr	r3, [r7, #0]
 800319c:	2b00      	cmp	r3, #0
 800319e:	d122      	bne.n	80031e6 <I2C_WaitOnFlagUntilTimeout+0x8a>
 80031a0:	68fb      	ldr	r3, [r7, #12]
 80031a2:	681b      	ldr	r3, [r3, #0]
 80031a4:	699a      	ldr	r2, [r3, #24]
 80031a6:	68bb      	ldr	r3, [r7, #8]
 80031a8:	4013      	ands	r3, r2
 80031aa:	68ba      	ldr	r2, [r7, #8]
 80031ac:	429a      	cmp	r2, r3
 80031ae:	bf0c      	ite	eq
 80031b0:	2301      	moveq	r3, #1
 80031b2:	2300      	movne	r3, #0
 80031b4:	b2db      	uxtb	r3, r3
 80031b6:	461a      	mov	r2, r3
 80031b8:	79fb      	ldrb	r3, [r7, #7]
 80031ba:	429a      	cmp	r2, r3
 80031bc:	d113      	bne.n	80031e6 <I2C_WaitOnFlagUntilTimeout+0x8a>
 80031be:	68fb      	ldr	r3, [r7, #12]
 80031c0:	6c5b      	ldr	r3, [r3, #68]	@ 0x44
 80031c2:	f043 0220 	orr.w	r2, r3, #32
 80031c6:	68fb      	ldr	r3, [r7, #12]
 80031c8:	645a      	str	r2, [r3, #68]	@ 0x44
 80031ca:	68fb      	ldr	r3, [r7, #12]
 80031cc:	2220      	movs	r2, #32
 80031ce:	f883 2041 	strb.w	r2, [r3, #65]	@ 0x41
 80031d2:	68fb      	ldr	r3, [r7, #12]
 80031d4:	2200      	movs	r2, #0
 80031d6:	f883 2042 	strb.w	r2, [r3, #66]	@ 0x42
 80031da:	68fb      	ldr	r3, [r7, #12]
 80031dc:	2200      	movs	r2, #0
 80031de:	f883 2040 	strb.w	r2, [r3, #64]	@ 0x40
 80031e2:	2301      	movs	r3, #1
 80031e4:	e00f      	b.n	8003206 <I2C_WaitOnFlagUntilTimeout+0xaa>
 80031e6:	68fb      	ldr	r3, [r7, #12]
 80031e8:	681b      	ldr	r3, [r3, #0]
 80031ea:	699a      	ldr	r2, [r3, #24]
 80031ec:	68bb      	ldr	r3, [r7, #8]
 80031ee:	4013      	ands	r3, r2
 80031f0:	68ba      	ldr	r2, [r7, #8]
 80031f2:	429a      	cmp	r2, r3
 80031f4:	bf0c      	ite	eq
 80031f6:	2301      	moveq	r3, #1
 80031f8:	2300      	movne	r3, #0
 80031fa:	b2db      	uxtb	r3, r3
 80031fc:	461a      	mov	r2, r3
 80031fe:	79fb      	ldrb	r3, [r7, #7]
 8003200:	429a      	cmp	r2, r3
 8003202:	d0b4      	beq.n	800316e <I2C_WaitOnFlagUntilTimeout+0x12>
 8003204:	2300      	movs	r3, #0
 8003206:	4618      	mov	r0, r3
 8003208:	3710      	adds	r7, #16
 800320a:	46bd      	mov	sp, r7
 800320c:	bd80      	pop	{r7, pc}

0800320e <I2C_WaitOnTXISFlagUntilTimeout>:
 800320e:	b580      	push	{r7, lr}
 8003210:	b084      	sub	sp, #16
 8003212:	af00      	add	r7, sp, #0
 8003214:	60f8      	str	r0, [r7, #12]
 8003216:	60b9      	str	r1, [r7, #8]
 8003218:	607a      	str	r2, [r7, #4]
 800321a:	e033      	b.n	8003284 <I2C_WaitOnTXISFlagUntilTimeout+0x76>
 800321c:	687a      	ldr	r2, [r7, #4]
 800321e:	68b9      	ldr	r1, [r7, #8]
 8003220:	68f8      	ldr	r0, [r7, #12]
 8003222:	f000 f87f 	bl	8003324 <I2C_IsErrorOccurred>
 8003226:	4603      	mov	r3, r0
 8003228:	2b00      	cmp	r3, #0
 800322a:	d001      	beq.n	8003230 <I2C_WaitOnTXISFlagUntilTimeout+0x22>
 800322c:	2301      	movs	r3, #1
 800322e:	e031      	b.n	8003294 <I2C_WaitOnTXISFlagUntilTimeout+0x86>
 8003230:	68bb      	ldr	r3, [r7, #8]
 8003232:	f1b3 3fff 	cmp.w	r3, #4294967295
 8003236:	d025      	beq.n	8003284 <I2C_WaitOnTXISFlagUntilTimeout+0x76>
 8003238:	f7fe fb80 	bl	800193c <HAL_GetTick>
 800323c:	4602      	mov	r2, r0
 800323e:	687b      	ldr	r3, [r7, #4]
 8003240:	1ad3      	subs	r3, r2, r3
 8003242:	68ba      	ldr	r2, [r7, #8]
 8003244:	429a      	cmp	r2, r3
 8003246:	d302      	bcc.n	800324e <I2C_WaitOnTXISFlagUntilTimeout+0x40>
 8003248:	68bb      	ldr	r3, [r7, #8]
 800324a:	2b00      	cmp	r3, #0
 800324c:	d11a      	bne.n	8003284 <I2C_WaitOnTXISFlagUntilTimeout+0x76>
 800324e:	68fb      	ldr	r3, [r7, #12]
 8003250:	681b      	ldr	r3, [r3, #0]
 8003252:	699b      	ldr	r3, [r3, #24]
 8003254:	f003 0302 	and.w	r3, r3, #2
 8003258:	2b02      	cmp	r3, #2
 800325a:	d013      	beq.n	8003284 <I2C_WaitOnTXISFlagUntilTimeout+0x76>
 800325c:	68fb      	ldr	r3, [r7, #12]
 800325e:	6c5b      	ldr	r3, [r3, #68]	@ 0x44
 8003260:	f043 0220 	orr.w	r2, r3, #32
 8003264:	68fb      	ldr	r3, [r7, #12]
 8003266:	645a      	str	r2, [r3, #68]	@ 0x44
 8003268:	68fb      	ldr	r3, [r7, #12]
 800326a:	2220      	movs	r2, #32
 800326c:	f883 2041 	strb.w	r2, [r3, #65]	@ 0x41
 8003270:	68fb      	ldr	r3, [r7, #12]
 8003272:	2200      	movs	r2, #0
 8003274:	f883 2042 	strb.w	r2, [r3, #66]	@ 0x42
 8003278:	68fb      	ldr	r3, [r7, #12]
 800327a:	2200      	movs	r2, #0
 800327c:	f883 2040 	strb.w	r2, [r3, #64]	@ 0x40
 8003280:	2301      	movs	r3, #1
 8003282:	e007      	b.n	8003294 <I2C_WaitOnTXISFlagUntilTimeout+0x86>
 8003284:	68fb      	ldr	r3, [r7, #12]
 8003286:	681b      	ldr	r3, [r3, #0]
 8003288:	699b      	ldr	r3, [r3, #24]
 800328a:	f003 0302 	and.w	r3, r3, #2
 800328e:	2b02      	cmp	r3, #2
 8003290:	d1c4      	bne.n	800321c <I2C_WaitOnTXISFlagUntilTimeout+0xe>
 8003292:	2300      	movs	r3, #0
 8003294:	4618      	mov	r0, r3
 8003296:	3710      	adds	r7, #16
 8003298:	46bd      	mov	sp, r7
 800329a:	bd80      	pop	{r7, pc}

0800329c <I2C_WaitOnSTOPFlagUntilTimeout>:
 800329c:	b580      	push	{r7, lr}
 800329e:	b084      	sub	sp, #16
 80032a0:	af00      	add	r7, sp, #0
 80032a2:	60f8      	str	r0, [r7, #12]
 80032a4:	60b9      	str	r1, [r7, #8]
 80032a6:	607a      	str	r2, [r7, #4]
 80032a8:	e02f      	b.n	800330a <I2C_WaitOnSTOPFlagUntilTimeout+0x6e>
 80032aa:	687a      	ldr	r2, [r7, #4]
 80032ac:	68b9      	ldr	r1, [r7, #8]
 80032ae:	68f8      	ldr	r0, [r7, #12]
 80032b0:	f000 f838 	bl	8003324 <I2C_IsErrorOccurred>
 80032b4:	4603      	mov	r3, r0
 80032b6:	2b00      	cmp	r3, #0
 80032b8:	d001      	beq.n	80032be <I2C_WaitOnSTOPFlagUntilTimeout+0x22>
 80032ba:	2301      	movs	r3, #1
 80032bc:	e02d      	b.n	800331a <I2C_WaitOnSTOPFlagUntilTimeout+0x7e>
 80032be:	f7fe fb3d 	bl	800193c <HAL_GetTick>
 80032c2:	4602      	mov	r2, r0
 80032c4:	687b      	ldr	r3, [r7, #4]
 80032c6:	1ad3      	subs	r3, r2, r3
 80032c8:	68ba      	ldr	r2, [r7, #8]
 80032ca:	429a      	cmp	r2, r3
 80032cc:	d302      	bcc.n	80032d4 <I2C_WaitOnSTOPFlagUntilTimeout+0x38>
 80032ce:	68bb      	ldr	r3, [r7, #8]
 80032d0:	2b00      	cmp	r3, #0
 80032d2:	d11a      	bne.n	800330a <I2C_WaitOnSTOPFlagUntilTimeout+0x6e>
 80032d4:	68fb      	ldr	r3, [r7, #12]
 80032d6:	681b      	ldr	r3, [r3, #0]
 80032d8:	699b      	ldr	r3, [r3, #24]
 80032da:	f003 0320 	and.w	r3, r3, #32
 80032de:	2b20      	cmp	r3, #32
 80032e0:	d013      	beq.n	800330a <I2C_WaitOnSTOPFlagUntilTimeout+0x6e>
 80032e2:	68fb      	ldr	r3, [r7, #12]
 80032e4:	6c5b      	ldr	r3, [r3, #68]	@ 0x44
 80032e6:	f043 0220 	orr.w	r2, r3, #32
 80032ea:	68fb      	ldr	r3, [r7, #12]
 80032ec:	645a      	str	r2, [r3, #68]	@ 0x44
 80032ee:	68fb      	ldr	r3, [r7, #12]
 80032f0:	2220      	movs	r2, #32
 80032f2:	f883 2041 	strb.w	r2, [r3, #65]	@ 0x41
 80032f6:	68fb      	ldr	r3, [r7, #12]
 80032f8:	2200      	movs	r2, #0
 80032fa:	f883 2042 	strb.w	r2, [r3, #66]	@ 0x42
 80032fe:	68fb      	ldr	r3, [r7, #12]
 8003300:	2200      	movs	r2, #0
 8003302:	f883 2040 	strb.w	r2, [r3, #64]	@ 0x40
 8003306:	2301      	movs	r3, #1
 8003308:	e007      	b.n	800331a <I2C_WaitOnSTOPFlagUntilTimeout+0x7e>
 800330a:	68fb      	ldr	r3, [r7, #12]
 800330c:	681b      	ldr	r3, [r3, #0]
 800330e:	699b      	ldr	r3, [r3, #24]
 8003310:	f003 0320 	and.w	r3, r3, #32
 8003314:	2b20      	cmp	r3, #32
 8003316:	d1c8      	bne.n	80032aa <I2C_WaitOnSTOPFlagUntilTimeout+0xe>
 8003318:	2300      	movs	r3, #0
 800331a:	4618      	mov	r0, r3
 800331c:	3710      	adds	r7, #16
 800331e:	46bd      	mov	sp, r7
 8003320:	bd80      	pop	{r7, pc}
	...

08003324 <I2C_IsErrorOccurred>:
 8003324:	b580      	push	{r7, lr}
 8003326:	b08a      	sub	sp, #40	@ 0x28
 8003328:	af00      	add	r7, sp, #0
 800332a:	60f8      	str	r0, [r7, #12]
 800332c:	60b9      	str	r1, [r7, #8]
 800332e:	607a      	str	r2, [r7, #4]
 8003330:	2300      	movs	r3, #0
 8003332:	f887 3027 	strb.w	r3, [r7, #39]	@ 0x27
 8003336:	68fb      	ldr	r3, [r7, #12]
 8003338:	681b      	ldr	r3, [r3, #0]
 800333a:	699b      	ldr	r3, [r3, #24]
 800333c:	61bb      	str	r3, [r7, #24]
 800333e:	2300      	movs	r3, #0
 8003340:	623b      	str	r3, [r7, #32]
 8003342:	687b      	ldr	r3, [r7, #4]
 8003344:	61fb      	str	r3, [r7, #28]
 8003346:	69bb      	ldr	r3, [r7, #24]
 8003348:	f003 0310 	and.w	r3, r3, #16
 800334c:	2b00      	cmp	r3, #0
 800334e:	d068      	beq.n	8003422 <I2C_IsErrorOccurred+0xfe>
 8003350:	68fb      	ldr	r3, [r7, #12]
 8003352:	681b      	ldr	r3, [r3, #0]
 8003354:	2210      	movs	r2, #16
 8003356:	61da      	str	r2, [r3, #28]
 8003358:	e049      	b.n	80033ee <I2C_IsErrorOccurred+0xca>
 800335a:	68bb      	ldr	r3, [r7, #8]
 800335c:	f1b3 3fff 	cmp.w	r3, #4294967295
 8003360:	d045      	beq.n	80033ee <I2C_IsErrorOccurred+0xca>
 8003362:	f7fe faeb 	bl	800193c <HAL_GetTick>
 8003366:	4602      	mov	r2, r0
 8003368:	69fb      	ldr	r3, [r7, #28]
 800336a:	1ad3      	subs	r3, r2, r3
 800336c:	68ba      	ldr	r2, [r7, #8]
 800336e:	429a      	cmp	r2, r3
 8003370:	d302      	bcc.n	8003378 <I2C_IsErrorOccurred+0x54>
 8003372:	68bb      	ldr	r3, [r7, #8]
 8003374:	2b00      	cmp	r3, #0
 8003376:	d13a      	bne.n	80033ee <I2C_IsErrorOccurred+0xca>
 8003378:	68fb      	ldr	r3, [r7, #12]
 800337a:	681b      	ldr	r3, [r3, #0]
 800337c:	685b      	ldr	r3, [r3, #4]
 800337e:	f403 4380 	and.w	r3, r3, #16384	@ 0x4000
 8003382:	617b      	str	r3, [r7, #20]
 8003384:	68fb      	ldr	r3, [r7, #12]
 8003386:	f893 3042 	ldrb.w	r3, [r3, #66]	@ 0x42
 800338a:	74fb      	strb	r3, [r7, #19]
 800338c:	68fb      	ldr	r3, [r7, #12]
 800338e:	681b      	ldr	r3, [r3, #0]
 8003390:	699b      	ldr	r3, [r3, #24]
 8003392:	f403 4300 	and.w	r3, r3, #32768	@ 0x8000
 8003396:	f5b3 4f00 	cmp.w	r3, #32768	@ 0x8000
 800339a:	d121      	bne.n	80033e0 <I2C_IsErrorOccurred+0xbc>
 800339c:	697b      	ldr	r3, [r7, #20]
 800339e:	f5b3 4f80 	cmp.w	r3, #16384	@ 0x4000
 80033a2:	d01d      	beq.n	80033e0 <I2C_IsErrorOccurred+0xbc>
 80033a4:	7cfb      	ldrb	r3, [r7, #19]
 80033a6:	2b20      	cmp	r3, #32
 80033a8:	d01a      	beq.n	80033e0 <I2C_IsErrorOccurred+0xbc>
 80033aa:	68fb      	ldr	r3, [r7, #12]
 80033ac:	681b      	ldr	r3, [r3, #0]
 80033ae:	685a      	ldr	r2, [r3, #4]
 80033b0:	68fb      	ldr	r3, [r7, #12]
 80033b2:	681b      	ldr	r3, [r3, #0]
 80033b4:	f442 4280 	orr.w	r2, r2, #16384	@ 0x4000
 80033b8:	605a      	str	r2, [r3, #4]
 80033ba:	f7fe fabf 	bl	800193c <HAL_GetTick>
 80033be:	61f8      	str	r0, [r7, #28]
 80033c0:	e00e      	b.n	80033e0 <I2C_IsErrorOccurred+0xbc>
 80033c2:	f7fe fabb 	bl	800193c <HAL_GetTick>
 80033c6:	4602      	mov	r2, r0
 80033c8:	69fb      	ldr	r3, [r7, #28]
 80033ca:	1ad3      	subs	r3, r2, r3
 80033cc:	2b19      	cmp	r3, #25
 80033ce:	d907      	bls.n	80033e0 <I2C_IsErrorOccurred+0xbc>
 80033d0:	6a3b      	ldr	r3, [r7, #32]
 80033d2:	f043 0320 	orr.w	r3, r3, #32
 80033d6:	623b      	str	r3, [r7, #32]
 80033d8:	2301      	movs	r3, #1
 80033da:	f887 3027 	strb.w	r3, [r7, #39]	@ 0x27
 80033de:	e006      	b.n	80033ee <I2C_IsErrorOccurred+0xca>
 80033e0:	68fb      	ldr	r3, [r7, #12]
 80033e2:	681b      	ldr	r3, [r3, #0]
 80033e4:	699b      	ldr	r3, [r3, #24]
 80033e6:	f003 0320 	and.w	r3, r3, #32
 80033ea:	2b20      	cmp	r3, #32
 80033ec:	d1e9      	bne.n	80033c2 <I2C_IsErrorOccurred+0x9e>
 80033ee:	68fb      	ldr	r3, [r7, #12]
 80033f0:	681b      	ldr	r3, [r3, #0]
 80033f2:	699b      	ldr	r3, [r3, #24]
 80033f4:	f003 0320 	and.w	r3, r3, #32
 80033f8:	2b20      	cmp	r3, #32
 80033fa:	d003      	beq.n	8003404 <I2C_IsErrorOccurred+0xe0>
 80033fc:	f897 3027 	ldrb.w	r3, [r7, #39]	@ 0x27
 8003400:	2b00      	cmp	r3, #0
 8003402:	d0aa      	beq.n	800335a <I2C_IsErrorOccurred+0x36>
 8003404:	f897 3027 	ldrb.w	r3, [r7, #39]	@ 0x27
 8003408:	2b00      	cmp	r3, #0
 800340a:	d103      	bne.n	8003414 <I2C_IsErrorOccurred+0xf0>
 800340c:	68fb      	ldr	r3, [r7, #12]
 800340e:	681b      	ldr	r3, [r3, #0]
 8003410:	2220      	movs	r2, #32
 8003412:	61da      	str	r2, [r3, #28]
 8003414:	6a3b      	ldr	r3, [r7, #32]
 8003416:	f043 0304 	orr.w	r3, r3, #4
 800341a:	623b      	str	r3, [r7, #32]
 800341c:	2301      	movs	r3, #1
 800341e:	f887 3027 	strb.w	r3, [r7, #39]	@ 0x27
 8003422:	68fb      	ldr	r3, [r7, #12]
 8003424:	681b      	ldr	r3, [r3, #0]
 8003426:	699b      	ldr	r3, [r3, #24]
 8003428:	61bb      	str	r3, [r7, #24]
 800342a:	69bb      	ldr	r3, [r7, #24]
 800342c:	f403 7380 	and.w	r3, r3, #256	@ 0x100
 8003430:	2b00      	cmp	r3, #0
 8003432:	d00b      	beq.n	800344c <I2C_IsErrorOccurred+0x128>
 8003434:	6a3b      	ldr	r3, [r7, #32]
 8003436:	f043 0301 	orr.w	r3, r3, #1
 800343a:	623b      	str	r3, [r7, #32]
 800343c:	68fb      	ldr	r3, [r7, #12]
 800343e:	681b      	ldr	r3, [r3, #0]
 8003440:	f44f 7280 	mov.w	r2, #256	@ 0x100
 8003444:	61da      	str	r2, [r3, #28]
 8003446:	2301      	movs	r3, #1
 8003448:	f887 3027 	strb.w	r3, [r7, #39]	@ 0x27
 800344c:	69bb      	ldr	r3, [r7, #24]
 800344e:	f403 6380 	and.w	r3, r3, #1024	@ 0x400
 8003452:	2b00      	cmp	r3, #0
 8003454:	d00b      	beq.n	800346e <I2C_IsErrorOccurred+0x14a>
 8003456:	6a3b      	ldr	r3, [r7, #32]
 8003458:	f043 0308 	orr.w	r3, r3, #8
 800345c:	623b      	str	r3, [r7, #32]
 800345e:	68fb      	ldr	r3, [r7, #12]
 8003460:	681b      	ldr	r3, [r3, #0]
 8003462:	f44f 6280 	mov.w	r2, #1024	@ 0x400
 8003466:	61da      	str	r2, [r3, #28]
 8003468:	2301      	movs	r3, #1
 800346a:	f887 3027 	strb.w	r3, [r7, #39]	@ 0x27
 800346e:	69bb      	ldr	r3, [r7, #24]
 8003470:	f403 7300 	and.w	r3, r3, #512	@ 0x200
 8003474:	2b00      	cmp	r3, #0
 8003476:	d00b      	beq.n	8003490 <I2C_IsErrorOccurred+0x16c>
 8003478:	6a3b      	ldr	r3, [r7, #32]
 800347a:	f043 0302 	orr.w	r3, r3, #2
 800347e:	623b      	str	r3, [r7, #32]
 8003480:	68fb      	ldr	r3, [r7, #12]
 8003482:	681b      	ldr	r3, [r3, #0]
 8003484:	f44f 7200 	mov.w	r2, #512	@ 0x200
 8003488:	61da      	str	r2, [r3, #28]
 800348a:	2301      	movs	r3, #1
 800348c:	f887 3027 	strb.w	r3, [r7, #39]	@ 0x27
 8003490:	f897 3027 	ldrb.w	r3, [r7, #39]	@ 0x27
 8003494:	2b00      	cmp	r3, #0
 8003496:	d01c      	beq.n	80034d2 <I2C_IsErrorOccurred+0x1ae>
 8003498:	68f8      	ldr	r0, [r7, #12]
 800349a:	f7ff fe3b 	bl	8003114 <I2C_Flush_TXDR>
 800349e:	68fb      	ldr	r3, [r7, #12]
 80034a0:	681b      	ldr	r3, [r3, #0]
 80034a2:	6859      	ldr	r1, [r3, #4]
 80034a4:	68fb      	ldr	r3, [r7, #12]
 80034a6:	681a      	ldr	r2, [r3, #0]
 80034a8:	4b0d      	ldr	r3, [pc, #52]	@ (80034e0 <I2C_IsErrorOccurred+0x1bc>)
 80034aa:	400b      	ands	r3, r1
 80034ac:	6053      	str	r3, [r2, #4]
 80034ae:	68fb      	ldr	r3, [r7, #12]
 80034b0:	6c5a      	ldr	r2, [r3, #68]	@ 0x44
 80034b2:	6a3b      	ldr	r3, [r7, #32]
 80034b4:	431a      	orrs	r2, r3
 80034b6:	68fb      	ldr	r3, [r7, #12]
 80034b8:	645a      	str	r2, [r3, #68]	@ 0x44
 80034ba:	68fb      	ldr	r3, [r7, #12]
 80034bc:	2220      	movs	r2, #32
 80034be:	f883 2041 	strb.w	r2, [r3, #65]	@ 0x41
 80034c2:	68fb      	ldr	r3, [r7, #12]
 80034c4:	2200      	movs	r2, #0
 80034c6:	f883 2042 	strb.w	r2, [r3, #66]	@ 0x42
 80034ca:	68fb      	ldr	r3, [r7, #12]
 80034cc:	2200      	movs	r2, #0
 80034ce:	f883 2040 	strb.w	r2, [r3, #64]	@ 0x40
 80034d2:	f897 3027 	ldrb.w	r3, [r7, #39]	@ 0x27
 80034d6:	4618      	mov	r0, r3
 80034d8:	3728      	adds	r7, #40	@ 0x28
 80034da:	46bd      	mov	sp, r7
 80034dc:	bd80      	pop	{r7, pc}
 80034de:	bf00      	nop
 80034e0:	fe00e800 	.word	0xfe00e800

080034e4 <I2C_TransferConfig>:
 80034e4:	b480      	push	{r7}
 80034e6:	b087      	sub	sp, #28
 80034e8:	af00      	add	r7, sp, #0
 80034ea:	60f8      	str	r0, [r7, #12]
 80034ec:	607b      	str	r3, [r7, #4]
 80034ee:	460b      	mov	r3, r1
 80034f0:	817b      	strh	r3, [r7, #10]
 80034f2:	4613      	mov	r3, r2
 80034f4:	727b      	strb	r3, [r7, #9]
 80034f6:	897b      	ldrh	r3, [r7, #10]
 80034f8:	f3c3 0209 	ubfx	r2, r3, #0, #10
 80034fc:	7a7b      	ldrb	r3, [r7, #9]
 80034fe:	041b      	lsls	r3, r3, #16
 8003500:	f403 037f 	and.w	r3, r3, #16711680	@ 0xff0000
 8003504:	431a      	orrs	r2, r3
 8003506:	687b      	ldr	r3, [r7, #4]
 8003508:	431a      	orrs	r2, r3
 800350a:	6a3b      	ldr	r3, [r7, #32]
 800350c:	4313      	orrs	r3, r2
 800350e:	f023 4300 	bic.w	r3, r3, #2147483648	@ 0x80000000
 8003512:	617b      	str	r3, [r7, #20]
 8003514:	68fb      	ldr	r3, [r7, #12]
 8003516:	681b      	ldr	r3, [r3, #0]
 8003518:	685a      	ldr	r2, [r3, #4]
 800351a:	6a3b      	ldr	r3, [r7, #32]
 800351c:	0d5b      	lsrs	r3, r3, #21
 800351e:	f403 6180 	and.w	r1, r3, #1024	@ 0x400
 8003522:	4b08      	ldr	r3, [pc, #32]	@ (8003544 <I2C_TransferConfig+0x60>)
 8003524:	430b      	orrs	r3, r1
 8003526:	43db      	mvns	r3, r3
 8003528:	ea02 0103 	and.w	r1, r2, r3
 800352c:	68fb      	ldr	r3, [r7, #12]
 800352e:	681b      	ldr	r3, [r3, #0]
 8003530:	697a      	ldr	r2, [r7, #20]
 8003532:	430a      	orrs	r2, r1
 8003534:	605a      	str	r2, [r3, #4]
 8003536:	bf00      	nop
 8003538:	371c      	adds	r7, #28
 800353a:	46bd      	mov	sp, r7
 800353c:	f85d 7b04 	ldr.w	r7, [sp], #4
 8003540:	4770      	bx	lr
 8003542:	bf00      	nop
 8003544:	03ff63ff 	.word	0x03ff63ff

08003548 <HAL_I2CEx_ConfigAnalogFilter>:
 8003548:	b480      	push	{r7}
 800354a:	b083      	sub	sp, #12
 800354c:	af00      	add	r7, sp, #0
 800354e:	6078      	str	r0, [r7, #4]
 8003550:	6039      	str	r1, [r7, #0]
 8003552:	687b      	ldr	r3, [r7, #4]
 8003554:	f893 3041 	ldrb.w	r3, [r3, #65]	@ 0x41
 8003558:	b2db      	uxtb	r3, r3
 800355a:	2b20      	cmp	r3, #32
 800355c:	d138      	bne.n	80035d0 <HAL_I2CEx_ConfigAnalogFilter+0x88>
 800355e:	687b      	ldr	r3, [r7, #4]
 8003560:	f893 3040 	ldrb.w	r3, [r3, #64]	@ 0x40
 8003564:	2b01      	cmp	r3, #1
 8003566:	d101      	bne.n	800356c <HAL_I2CEx_ConfigAnalogFilter+0x24>
 8003568:	2302      	movs	r3, #2
 800356a:	e032      	b.n	80035d2 <HAL_I2CEx_ConfigAnalogFilter+0x8a>
 800356c:	687b      	ldr	r3, [r7, #4]
 800356e:	2201      	movs	r2, #1
 8003570:	f883 2040 	strb.w	r2, [r3, #64]	@ 0x40
 8003574:	687b      	ldr	r3, [r7, #4]
 8003576:	2224      	movs	r2, #36	@ 0x24
 8003578:	f883 2041 	strb.w	r2, [r3, #65]	@ 0x41
 800357c:	687b      	ldr	r3, [r7, #4]
 800357e:	681b      	ldr	r3, [r3, #0]
 8003580:	681a      	ldr	r2, [r3, #0]
 8003582:	687b      	ldr	r3, [r7, #4]
 8003584:	681b      	ldr	r3, [r3, #0]
 8003586:	f022 0201 	bic.w	r2, r2, #1
 800358a:	601a      	str	r2, [r3, #0]
 800358c:	687b      	ldr	r3, [r7, #4]
 800358e:	681b      	ldr	r3, [r3, #0]
 8003590:	681a      	ldr	r2, [r3, #0]
 8003592:	687b      	ldr	r3, [r7, #4]
 8003594:	681b      	ldr	r3, [r3, #0]
 8003596:	f422 5280 	bic.w	r2, r2, #4096	@ 0x1000
 800359a:	601a      	str	r2, [r3, #0]
 800359c:	687b      	ldr	r3, [r7, #4]
 800359e:	681b      	ldr	r3, [r3, #0]
 80035a0:	6819      	ldr	r1, [r3, #0]
 80035a2:	687b      	ldr	r3, [r7, #4]
 80035a4:	681b      	ldr	r3, [r3, #0]
 80035a6:	683a      	ldr	r2, [r7, #0]
 80035a8:	430a      	orrs	r2, r1
 80035aa:	601a      	str	r2, [r3, #0]
 80035ac:	687b      	ldr	r3, [r7, #4]
 80035ae:	681b      	ldr	r3, [r3, #0]
 80035b0:	681a      	ldr	r2, [r3, #0]
 80035b2:	687b      	ldr	r3, [r7, #4]
 80035b4:	681b      	ldr	r3, [r3, #0]
 80035b6:	f042 0201 	orr.w	r2, r2, #1
 80035ba:	601a      	str	r2, [r3, #0]
 80035bc:	687b      	ldr	r3, [r7, #4]
 80035be:	2220      	movs	r2, #32
 80035c0:	f883 2041 	strb.w	r2, [r3, #65]	@ 0x41
 80035c4:	687b      	ldr	r3, [r7, #4]
 80035c6:	2200      	movs	r2, #0
 80035c8:	f883 2040 	strb.w	r2, [r3, #64]	@ 0x40
 80035cc:	2300      	movs	r3, #0
 80035ce:	e000      	b.n	80035d2 <HAL_I2CEx_ConfigAnalogFilter+0x8a>
 80035d0:	2302      	movs	r3, #2
 80035d2:	4618      	mov	r0, r3
 80035d4:	370c      	adds	r7, #12
 80035d6:	46bd      	mov	sp, r7
 80035d8:	f85d 7b04 	ldr.w	r7, [sp], #4
 80035dc:	4770      	bx	lr

080035de <HAL_I2CEx_ConfigDigitalFilter>:
 80035de:	b480      	push	{r7}
 80035e0:	b085      	sub	sp, #20
 80035e2:	af00      	add	r7, sp, #0
 80035e4:	6078      	str	r0, [r7, #4]
 80035e6:	6039      	str	r1, [r7, #0]
 80035e8:	687b      	ldr	r3, [r7, #4]
 80035ea:	f893 3041 	ldrb.w	r3, [r3, #65]	@ 0x41
 80035ee:	b2db      	uxtb	r3, r3
 80035f0:	2b20      	cmp	r3, #32
 80035f2:	d139      	bne.n	8003668 <HAL_I2CEx_ConfigDigitalFilter+0x8a>
 80035f4:	687b      	ldr	r3, [r7, #4]
 80035f6:	f893 3040 	ldrb.w	r3, [r3, #64]	@ 0x40
 80035fa:	2b01      	cmp	r3, #1
 80035fc:	d101      	bne.n	8003602 <HAL_I2CEx_ConfigDigitalFilter+0x24>
 80035fe:	2302      	movs	r3, #2
 8003600:	e033      	b.n	800366a <HAL_I2CEx_ConfigDigitalFilter+0x8c>
 8003602:	687b      	ldr	r3, [r7, #4]
 8003604:	2201      	movs	r2, #1
 8003606:	f883 2040 	strb.w	r2, [r3, #64]	@ 0x40
 800360a:	687b      	ldr	r3, [r7, #4]
 800360c:	2224      	movs	r2, #36	@ 0x24
 800360e:	f883 2041 	strb.w	r2, [r3, #65]	@ 0x41
 8003612:	687b      	ldr	r3, [r7, #4]
 8003614:	681b      	ldr	r3, [r3, #0]
 8003616:	681a      	ldr	r2, [r3, #0]
 8003618:	687b      	ldr	r3, [r7, #4]
 800361a:	681b      	ldr	r3, [r3, #0]
 800361c:	f022 0201 	bic.w	r2, r2, #1
 8003620:	601a      	str	r2, [r3, #0]
 8003622:	687b      	ldr	r3, [r7, #4]
 8003624:	681b      	ldr	r3, [r3, #0]
 8003626:	681b      	ldr	r3, [r3, #0]
 8003628:	60fb      	str	r3, [r7, #12]
 800362a:	68fb      	ldr	r3, [r7, #12]
 800362c:	f423 6370 	bic.w	r3, r3, #3840	@ 0xf00
 8003630:	60fb      	str	r3, [r7, #12]
 8003632:	683b      	ldr	r3, [r7, #0]
 8003634:	021b      	lsls	r3, r3, #8
 8003636:	68fa      	ldr	r2, [r7, #12]
 8003638:	4313      	orrs	r3, r2
 800363a:	60fb      	str	r3, [r7, #12]
 800363c:	687b      	ldr	r3, [r7, #4]
 800363e:	681b      	ldr	r3, [r3, #0]
 8003640:	68fa      	ldr	r2, [r7, #12]
 8003642:	601a      	str	r2, [r3, #0]
 8003644:	687b      	ldr	r3, [r7, #4]
 8003646:	681b      	ldr	r3, [r3, #0]
 8003648:	681a      	ldr	r2, [r3, #0]
 800364a:	687b      	ldr	r3, [r7, #4]
 800364c:	681b      	ldr	r3, [r3, #0]
 800364e:	f042 0201 	orr.w	r2, r2, #1
 8003652:	601a      	str	r2, [r3, #0]
 8003654:	687b      	ldr	r3, [r7, #4]
 8003656:	2220      	movs	r2, #32
 8003658:	f883 2041 	strb.w	r2, [r3, #65]	@ 0x41
 800365c:	687b      	ldr	r3, [r7, #4]
 800365e:	2200      	movs	r2, #0
 8003660:	f883 2040 	strb.w	r2, [r3, #64]	@ 0x40
 8003664:	2300      	movs	r3, #0
 8003666:	e000      	b.n	800366a <HAL_I2CEx_ConfigDigitalFilter+0x8c>
 8003668:	2302      	movs	r3, #2
 800366a:	4618      	mov	r0, r3
 800366c:	3714      	adds	r7, #20
 800366e:	46bd      	mov	sp, r7
 8003670:	f85d 7b04 	ldr.w	r7, [sp], #4
 8003674:	4770      	bx	lr
	...

08003678 <HAL_PWREx_ControlVoltageScaling>:
 8003678:	b480      	push	{r7}
 800367a:	b085      	sub	sp, #20
 800367c:	af00      	add	r7, sp, #0
 800367e:	6078      	str	r0, [r7, #4]
 8003680:	687b      	ldr	r3, [r7, #4]
 8003682:	2b00      	cmp	r3, #0
 8003684:	d141      	bne.n	800370a <HAL_PWREx_ControlVoltageScaling+0x92>
 8003686:	4b4b      	ldr	r3, [pc, #300]	@ (80037b4 <HAL_PWREx_ControlVoltageScaling+0x13c>)
 8003688:	681b      	ldr	r3, [r3, #0]
 800368a:	f403 63c0 	and.w	r3, r3, #1536	@ 0x600
 800368e:	f5b3 6f80 	cmp.w	r3, #1024	@ 0x400
 8003692:	d131      	bne.n	80036f8 <HAL_PWREx_ControlVoltageScaling+0x80>
 8003694:	4b47      	ldr	r3, [pc, #284]	@ (80037b4 <HAL_PWREx_ControlVoltageScaling+0x13c>)
 8003696:	f8d3 3080 	ldr.w	r3, [r3, #128]	@ 0x80
 800369a:	4a46      	ldr	r2, [pc, #280]	@ (80037b4 <HAL_PWREx_ControlVoltageScaling+0x13c>)
 800369c:	f423 7380 	bic.w	r3, r3, #256	@ 0x100
 80036a0:	f8c2 3080 	str.w	r3, [r2, #128]	@ 0x80
 80036a4:	4b43      	ldr	r3, [pc, #268]	@ (80037b4 <HAL_PWREx_ControlVoltageScaling+0x13c>)
 80036a6:	681b      	ldr	r3, [r3, #0]
 80036a8:	f423 63c0 	bic.w	r3, r3, #1536	@ 0x600
 80036ac:	4a41      	ldr	r2, [pc, #260]	@ (80037b4 <HAL_PWREx_ControlVoltageScaling+0x13c>)
 80036ae:	f443 7300 	orr.w	r3, r3, #512	@ 0x200
 80036b2:	6013      	str	r3, [r2, #0]
 80036b4:	4b40      	ldr	r3, [pc, #256]	@ (80037b8 <HAL_PWREx_ControlVoltageScaling+0x140>)
 80036b6:	681b      	ldr	r3, [r3, #0]
 80036b8:	2232      	movs	r2, #50	@ 0x32
 80036ba:	fb02 f303 	mul.w	r3, r2, r3
 80036be:	4a3f      	ldr	r2, [pc, #252]	@ (80037bc <HAL_PWREx_ControlVoltageScaling+0x144>)
 80036c0:	fba2 2303 	umull	r2, r3, r2, r3
 80036c4:	0c9b      	lsrs	r3, r3, #18
 80036c6:	3301      	adds	r3, #1
 80036c8:	60fb      	str	r3, [r7, #12]
 80036ca:	e002      	b.n	80036d2 <HAL_PWREx_ControlVoltageScaling+0x5a>
 80036cc:	68fb      	ldr	r3, [r7, #12]
 80036ce:	3b01      	subs	r3, #1
 80036d0:	60fb      	str	r3, [r7, #12]
 80036d2:	4b38      	ldr	r3, [pc, #224]	@ (80037b4 <HAL_PWREx_ControlVoltageScaling+0x13c>)
 80036d4:	695b      	ldr	r3, [r3, #20]
 80036d6:	f403 6380 	and.w	r3, r3, #1024	@ 0x400
 80036da:	f5b3 6f80 	cmp.w	r3, #1024	@ 0x400
 80036de:	d102      	bne.n	80036e6 <HAL_PWREx_ControlVoltageScaling+0x6e>
 80036e0:	68fb      	ldr	r3, [r7, #12]
 80036e2:	2b00      	cmp	r3, #0
 80036e4:	d1f2      	bne.n	80036cc <HAL_PWREx_ControlVoltageScaling+0x54>
 80036e6:	4b33      	ldr	r3, [pc, #204]	@ (80037b4 <HAL_PWREx_ControlVoltageScaling+0x13c>)
 80036e8:	695b      	ldr	r3, [r3, #20]
 80036ea:	f403 6380 	and.w	r3, r3, #1024	@ 0x400
 80036ee:	f5b3 6f80 	cmp.w	r3, #1024	@ 0x400
 80036f2:	d158      	bne.n	80037a6 <HAL_PWREx_ControlVoltageScaling+0x12e>
 80036f4:	2303      	movs	r3, #3
 80036f6:	e057      	b.n	80037a8 <HAL_PWREx_ControlVoltageScaling+0x130>
 80036f8:	4b2e      	ldr	r3, [pc, #184]	@ (80037b4 <HAL_PWREx_ControlVoltageScaling+0x13c>)
 80036fa:	f8d3 3080 	ldr.w	r3, [r3, #128]	@ 0x80
 80036fe:	4a2d      	ldr	r2, [pc, #180]	@ (80037b4 <HAL_PWREx_ControlVoltageScaling+0x13c>)
 8003700:	f423 7380 	bic.w	r3, r3, #256	@ 0x100
 8003704:	f8c2 3080 	str.w	r3, [r2, #128]	@ 0x80
 8003708:	e04d      	b.n	80037a6 <HAL_PWREx_ControlVoltageScaling+0x12e>
 800370a:	687b      	ldr	r3, [r7, #4]
 800370c:	f5b3 7f00 	cmp.w	r3, #512	@ 0x200
 8003710:	d141      	bne.n	8003796 <HAL_PWREx_ControlVoltageScaling+0x11e>
 8003712:	4b28      	ldr	r3, [pc, #160]	@ (80037b4 <HAL_PWREx_ControlVoltageScaling+0x13c>)
 8003714:	681b      	ldr	r3, [r3, #0]
 8003716:	f403 63c0 	and.w	r3, r3, #1536	@ 0x600
 800371a:	f5b3 6f80 	cmp.w	r3, #1024	@ 0x400
 800371e:	d131      	bne.n	8003784 <HAL_PWREx_ControlVoltageScaling+0x10c>
 8003720:	4b24      	ldr	r3, [pc, #144]	@ (80037b4 <HAL_PWREx_ControlVoltageScaling+0x13c>)
 8003722:	f8d3 3080 	ldr.w	r3, [r3, #128]	@ 0x80
 8003726:	4a23      	ldr	r2, [pc, #140]	@ (80037b4 <HAL_PWREx_ControlVoltageScaling+0x13c>)
 8003728:	f443 7380 	orr.w	r3, r3, #256	@ 0x100
 800372c:	f8c2 3080 	str.w	r3, [r2, #128]	@ 0x80
 8003730:	4b20      	ldr	r3, [pc, #128]	@ (80037b4 <HAL_PWREx_ControlVoltageScaling+0x13c>)
 8003732:	681b      	ldr	r3, [r3, #0]
 8003734:	f423 63c0 	bic.w	r3, r3, #1536	@ 0x600
 8003738:	4a1e      	ldr	r2, [pc, #120]	@ (80037b4 <HAL_PWREx_ControlVoltageScaling+0x13c>)
 800373a:	f443 7300 	orr.w	r3, r3, #512	@ 0x200
 800373e:	6013      	str	r3, [r2, #0]
 8003740:	4b1d      	ldr	r3, [pc, #116]	@ (80037b8 <HAL_PWREx_ControlVoltageScaling+0x140>)
 8003742:	681b      	ldr	r3, [r3, #0]
 8003744:	2232      	movs	r2, #50	@ 0x32
 8003746:	fb02 f303 	mul.w	r3, r2, r3
 800374a:	4a1c      	ldr	r2, [pc, #112]	@ (80037bc <HAL_PWREx_ControlVoltageScaling+0x144>)
 800374c:	fba2 2303 	umull	r2, r3, r2, r3
 8003750:	0c9b      	lsrs	r3, r3, #18
 8003752:	3301      	adds	r3, #1
 8003754:	60fb      	str	r3, [r7, #12]
 8003756:	e002      	b.n	800375e <HAL_PWREx_ControlVoltageScaling+0xe6>
 8003758:	68fb      	ldr	r3, [r7, #12]
 800375a:	3b01      	subs	r3, #1
 800375c:	60fb      	str	r3, [r7, #12]
 800375e:	4b15      	ldr	r3, [pc, #84]	@ (80037b4 <HAL_PWREx_ControlVoltageScaling+0x13c>)
 8003760:	695b      	ldr	r3, [r3, #20]
 8003762:	f403 6380 	and.w	r3, r3, #1024	@ 0x400
 8003766:	f5b3 6f80 	cmp.w	r3, #1024	@ 0x400
 800376a:	d102      	bne.n	8003772 <HAL_PWREx_ControlVoltageScaling+0xfa>
 800376c:	68fb      	ldr	r3, [r7, #12]
 800376e:	2b00      	cmp	r3, #0
 8003770:	d1f2      	bne.n	8003758 <HAL_PWREx_ControlVoltageScaling+0xe0>
 8003772:	4b10      	ldr	r3, [pc, #64]	@ (80037b4 <HAL_PWREx_ControlVoltageScaling+0x13c>)
 8003774:	695b      	ldr	r3, [r3, #20]
 8003776:	f403 6380 	and.w	r3, r3, #1024	@ 0x400
 800377a:	f5b3 6f80 	cmp.w	r3, #1024	@ 0x400
 800377e:	d112      	bne.n	80037a6 <HAL_PWREx_ControlVoltageScaling+0x12e>
 8003780:	2303      	movs	r3, #3
 8003782:	e011      	b.n	80037a8 <HAL_PWREx_ControlVoltageScaling+0x130>
 8003784:	4b0b      	ldr	r3, [pc, #44]	@ (80037b4 <HAL_PWREx_ControlVoltageScaling+0x13c>)
 8003786:	f8d3 3080 	ldr.w	r3, [r3, #128]	@ 0x80
 800378a:	4a0a      	ldr	r2, [pc, #40]	@ (80037b4 <HAL_PWREx_ControlVoltageScaling+0x13c>)
 800378c:	f443 7380 	orr.w	r3, r3, #256	@ 0x100
 8003790:	f8c2 3080 	str.w	r3, [r2, #128]	@ 0x80
 8003794:	e007      	b.n	80037a6 <HAL_PWREx_ControlVoltageScaling+0x12e>
 8003796:	4b07      	ldr	r3, [pc, #28]	@ (80037b4 <HAL_PWREx_ControlVoltageScaling+0x13c>)
 8003798:	681b      	ldr	r3, [r3, #0]
 800379a:	f423 63c0 	bic.w	r3, r3, #1536	@ 0x600
 800379e:	4a05      	ldr	r2, [pc, #20]	@ (80037b4 <HAL_PWREx_ControlVoltageScaling+0x13c>)
 80037a0:	f443 6380 	orr.w	r3, r3, #1024	@ 0x400
 80037a4:	6013      	str	r3, [r2, #0]
 80037a6:	2300      	movs	r3, #0
 80037a8:	4618      	mov	r0, r3
 80037aa:	3714      	adds	r7, #20
 80037ac:	46bd      	mov	sp, r7
 80037ae:	f85d 7b04 	ldr.w	r7, [sp], #4
 80037b2:	4770      	bx	lr
 80037b4:	40007000 	.word	0x40007000
 80037b8:	20000000 	.word	0x20000000
 80037bc:	431bde83 	.word	0x431bde83

080037c0 <HAL_PWREx_DisableUCPDDeadBattery>:
 80037c0:	b480      	push	{r7}
 80037c2:	af00      	add	r7, sp, #0
 80037c4:	4b05      	ldr	r3, [pc, #20]	@ (80037dc <HAL_PWREx_DisableUCPDDeadBattery+0x1c>)
 80037c6:	689b      	ldr	r3, [r3, #8]
 80037c8:	4a04      	ldr	r2, [pc, #16]	@ (80037dc <HAL_PWREx_DisableUCPDDeadBattery+0x1c>)
 80037ca:	f443 4380 	orr.w	r3, r3, #16384	@ 0x4000
 80037ce:	6093      	str	r3, [r2, #8]
 80037d0:	bf00      	nop
 80037d2:	46bd      	mov	sp, r7
 80037d4:	f85d 7b04 	ldr.w	r7, [sp], #4
 80037d8:	4770      	bx	lr
 80037da:	bf00      	nop
 80037dc:	40007000 	.word	0x40007000

080037e0 <HAL_RCC_OscConfig>:
 80037e0:	b580      	push	{r7, lr}
 80037e2:	b088      	sub	sp, #32
 80037e4:	af00      	add	r7, sp, #0
 80037e6:	6078      	str	r0, [r7, #4]
 80037e8:	687b      	ldr	r3, [r7, #4]
 80037ea:	2b00      	cmp	r3, #0
 80037ec:	d101      	bne.n	80037f2 <HAL_RCC_OscConfig+0x12>
 80037ee:	2301      	movs	r3, #1
 80037f0:	e2fe      	b.n	8003df0 <HAL_RCC_OscConfig+0x610>
 80037f2:	687b      	ldr	r3, [r7, #4]
 80037f4:	681b      	ldr	r3, [r3, #0]
 80037f6:	f003 0301 	and.w	r3, r3, #1
 80037fa:	2b00      	cmp	r3, #0
 80037fc:	d075      	beq.n	80038ea <HAL_RCC_OscConfig+0x10a>
 80037fe:	4b97      	ldr	r3, [pc, #604]	@ (8003a5c <HAL_RCC_OscConfig+0x27c>)
 8003800:	689b      	ldr	r3, [r3, #8]
 8003802:	f003 030c 	and.w	r3, r3, #12
 8003806:	61bb      	str	r3, [r7, #24]
 8003808:	4b94      	ldr	r3, [pc, #592]	@ (8003a5c <HAL_RCC_OscConfig+0x27c>)
 800380a:	68db      	ldr	r3, [r3, #12]
 800380c:	f003 0303 	and.w	r3, r3, #3
 8003810:	617b      	str	r3, [r7, #20]
 8003812:	69bb      	ldr	r3, [r7, #24]
 8003814:	2b0c      	cmp	r3, #12
 8003816:	d102      	bne.n	800381e <HAL_RCC_OscConfig+0x3e>
 8003818:	697b      	ldr	r3, [r7, #20]
 800381a:	2b03      	cmp	r3, #3
 800381c:	d002      	beq.n	8003824 <HAL_RCC_OscConfig+0x44>
 800381e:	69bb      	ldr	r3, [r7, #24]
 8003820:	2b08      	cmp	r3, #8
 8003822:	d10b      	bne.n	800383c <HAL_RCC_OscConfig+0x5c>
 8003824:	4b8d      	ldr	r3, [pc, #564]	@ (8003a5c <HAL_RCC_OscConfig+0x27c>)
 8003826:	681b      	ldr	r3, [r3, #0]
 8003828:	f403 3300 	and.w	r3, r3, #131072	@ 0x20000
 800382c:	2b00      	cmp	r3, #0
 800382e:	d05b      	beq.n	80038e8 <HAL_RCC_OscConfig+0x108>
 8003830:	687b      	ldr	r3, [r7, #4]
 8003832:	685b      	ldr	r3, [r3, #4]
 8003834:	2b00      	cmp	r3, #0
 8003836:	d157      	bne.n	80038e8 <HAL_RCC_OscConfig+0x108>
 8003838:	2301      	movs	r3, #1
 800383a:	e2d9      	b.n	8003df0 <HAL_RCC_OscConfig+0x610>
 800383c:	687b      	ldr	r3, [r7, #4]
 800383e:	685b      	ldr	r3, [r3, #4]
 8003840:	f5b3 3f80 	cmp.w	r3, #65536	@ 0x10000
 8003844:	d106      	bne.n	8003854 <HAL_RCC_OscConfig+0x74>
 8003846:	4b85      	ldr	r3, [pc, #532]	@ (8003a5c <HAL_RCC_OscConfig+0x27c>)
 8003848:	681b      	ldr	r3, [r3, #0]
 800384a:	4a84      	ldr	r2, [pc, #528]	@ (8003a5c <HAL_RCC_OscConfig+0x27c>)
 800384c:	f443 3380 	orr.w	r3, r3, #65536	@ 0x10000
 8003850:	6013      	str	r3, [r2, #0]
 8003852:	e01d      	b.n	8003890 <HAL_RCC_OscConfig+0xb0>
 8003854:	687b      	ldr	r3, [r7, #4]
 8003856:	685b      	ldr	r3, [r3, #4]
 8003858:	f5b3 2fa0 	cmp.w	r3, #327680	@ 0x50000
 800385c:	d10c      	bne.n	8003878 <HAL_RCC_OscConfig+0x98>
 800385e:	4b7f      	ldr	r3, [pc, #508]	@ (8003a5c <HAL_RCC_OscConfig+0x27c>)
 8003860:	681b      	ldr	r3, [r3, #0]
 8003862:	4a7e      	ldr	r2, [pc, #504]	@ (8003a5c <HAL_RCC_OscConfig+0x27c>)
 8003864:	f443 2380 	orr.w	r3, r3, #262144	@ 0x40000
 8003868:	6013      	str	r3, [r2, #0]
 800386a:	4b7c      	ldr	r3, [pc, #496]	@ (8003a5c <HAL_RCC_OscConfig+0x27c>)
 800386c:	681b      	ldr	r3, [r3, #0]
 800386e:	4a7b      	ldr	r2, [pc, #492]	@ (8003a5c <HAL_RCC_OscConfig+0x27c>)
 8003870:	f443 3380 	orr.w	r3, r3, #65536	@ 0x10000
 8003874:	6013      	str	r3, [r2, #0]
 8003876:	e00b      	b.n	8003890 <HAL_RCC_OscConfig+0xb0>
 8003878:	4b78      	ldr	r3, [pc, #480]	@ (8003a5c <HAL_RCC_OscConfig+0x27c>)
 800387a:	681b      	ldr	r3, [r3, #0]
 800387c:	4a77      	ldr	r2, [pc, #476]	@ (8003a5c <HAL_RCC_OscConfig+0x27c>)
 800387e:	f423 3380 	bic.w	r3, r3, #65536	@ 0x10000
 8003882:	6013      	str	r3, [r2, #0]
 8003884:	4b75      	ldr	r3, [pc, #468]	@ (8003a5c <HAL_RCC_OscConfig+0x27c>)
 8003886:	681b      	ldr	r3, [r3, #0]
 8003888:	4a74      	ldr	r2, [pc, #464]	@ (8003a5c <HAL_RCC_OscConfig+0x27c>)
 800388a:	f423 2380 	bic.w	r3, r3, #262144	@ 0x40000
 800388e:	6013      	str	r3, [r2, #0]
 8003890:	687b      	ldr	r3, [r7, #4]
 8003892:	685b      	ldr	r3, [r3, #4]
 8003894:	2b00      	cmp	r3, #0
 8003896:	d013      	beq.n	80038c0 <HAL_RCC_OscConfig+0xe0>
 8003898:	f7fe f850 	bl	800193c <HAL_GetTick>
 800389c:	6138      	str	r0, [r7, #16]
 800389e:	e008      	b.n	80038b2 <HAL_RCC_OscConfig+0xd2>
 80038a0:	f7fe f84c 	bl	800193c <HAL_GetTick>
 80038a4:	4602      	mov	r2, r0
 80038a6:	693b      	ldr	r3, [r7, #16]
 80038a8:	1ad3      	subs	r3, r2, r3
 80038aa:	2b64      	cmp	r3, #100	@ 0x64
 80038ac:	d901      	bls.n	80038b2 <HAL_RCC_OscConfig+0xd2>
 80038ae:	2303      	movs	r3, #3
 80038b0:	e29e      	b.n	8003df0 <HAL_RCC_OscConfig+0x610>
 80038b2:	4b6a      	ldr	r3, [pc, #424]	@ (8003a5c <HAL_RCC_OscConfig+0x27c>)
 80038b4:	681b      	ldr	r3, [r3, #0]
 80038b6:	f403 3300 	and.w	r3, r3, #131072	@ 0x20000
 80038ba:	2b00      	cmp	r3, #0
 80038bc:	d0f0      	beq.n	80038a0 <HAL_RCC_OscConfig+0xc0>
 80038be:	e014      	b.n	80038ea <HAL_RCC_OscConfig+0x10a>
 80038c0:	f7fe f83c 	bl	800193c <HAL_GetTick>
 80038c4:	6138      	str	r0, [r7, #16]
 80038c6:	e008      	b.n	80038da <HAL_RCC_OscConfig+0xfa>
 80038c8:	f7fe f838 	bl	800193c <HAL_GetTick>
 80038cc:	4602      	mov	r2, r0
 80038ce:	693b      	ldr	r3, [r7, #16]
 80038d0:	1ad3      	subs	r3, r2, r3
 80038d2:	2b64      	cmp	r3, #100	@ 0x64
 80038d4:	d901      	bls.n	80038da <HAL_RCC_OscConfig+0xfa>
 80038d6:	2303      	movs	r3, #3
 80038d8:	e28a      	b.n	8003df0 <HAL_RCC_OscConfig+0x610>
 80038da:	4b60      	ldr	r3, [pc, #384]	@ (8003a5c <HAL_RCC_OscConfig+0x27c>)
 80038dc:	681b      	ldr	r3, [r3, #0]
 80038de:	f403 3300 	and.w	r3, r3, #131072	@ 0x20000
 80038e2:	2b00      	cmp	r3, #0
 80038e4:	d1f0      	bne.n	80038c8 <HAL_RCC_OscConfig+0xe8>
 80038e6:	e000      	b.n	80038ea <HAL_RCC_OscConfig+0x10a>
 80038e8:	bf00      	nop
 80038ea:	687b      	ldr	r3, [r7, #4]
 80038ec:	681b      	ldr	r3, [r3, #0]
 80038ee:	f003 0302 	and.w	r3, r3, #2
 80038f2:	2b00      	cmp	r3, #0
 80038f4:	d075      	beq.n	80039e2 <HAL_RCC_OscConfig+0x202>
 80038f6:	4b59      	ldr	r3, [pc, #356]	@ (8003a5c <HAL_RCC_OscConfig+0x27c>)
 80038f8:	689b      	ldr	r3, [r3, #8]
 80038fa:	f003 030c 	and.w	r3, r3, #12
 80038fe:	61bb      	str	r3, [r7, #24]
 8003900:	4b56      	ldr	r3, [pc, #344]	@ (8003a5c <HAL_RCC_OscConfig+0x27c>)
 8003902:	68db      	ldr	r3, [r3, #12]
 8003904:	f003 0303 	and.w	r3, r3, #3
 8003908:	617b      	str	r3, [r7, #20]
 800390a:	69bb      	ldr	r3, [r7, #24]
 800390c:	2b0c      	cmp	r3, #12
 800390e:	d102      	bne.n	8003916 <HAL_RCC_OscConfig+0x136>
 8003910:	697b      	ldr	r3, [r7, #20]
 8003912:	2b02      	cmp	r3, #2
 8003914:	d002      	beq.n	800391c <HAL_RCC_OscConfig+0x13c>
 8003916:	69bb      	ldr	r3, [r7, #24]
 8003918:	2b04      	cmp	r3, #4
 800391a:	d11f      	bne.n	800395c <HAL_RCC_OscConfig+0x17c>
 800391c:	4b4f      	ldr	r3, [pc, #316]	@ (8003a5c <HAL_RCC_OscConfig+0x27c>)
 800391e:	681b      	ldr	r3, [r3, #0]
 8003920:	f403 6380 	and.w	r3, r3, #1024	@ 0x400
 8003924:	2b00      	cmp	r3, #0
 8003926:	d005      	beq.n	8003934 <HAL_RCC_OscConfig+0x154>
 8003928:	687b      	ldr	r3, [r7, #4]
 800392a:	68db      	ldr	r3, [r3, #12]
 800392c:	2b00      	cmp	r3, #0
 800392e:	d101      	bne.n	8003934 <HAL_RCC_OscConfig+0x154>
 8003930:	2301      	movs	r3, #1
 8003932:	e25d      	b.n	8003df0 <HAL_RCC_OscConfig+0x610>
 8003934:	4b49      	ldr	r3, [pc, #292]	@ (8003a5c <HAL_RCC_OscConfig+0x27c>)
 8003936:	685b      	ldr	r3, [r3, #4]
 8003938:	f023 42fe 	bic.w	r2, r3, #2130706432	@ 0x7f000000
 800393c:	687b      	ldr	r3, [r7, #4]
 800393e:	691b      	ldr	r3, [r3, #16]
 8003940:	061b      	lsls	r3, r3, #24
 8003942:	4946      	ldr	r1, [pc, #280]	@ (8003a5c <HAL_RCC_OscConfig+0x27c>)
 8003944:	4313      	orrs	r3, r2
 8003946:	604b      	str	r3, [r1, #4]
 8003948:	4b45      	ldr	r3, [pc, #276]	@ (8003a60 <HAL_RCC_OscConfig+0x280>)
 800394a:	681b      	ldr	r3, [r3, #0]
 800394c:	4618      	mov	r0, r3
 800394e:	f7fd ffa9 	bl	80018a4 <HAL_InitTick>
 8003952:	4603      	mov	r3, r0
 8003954:	2b00      	cmp	r3, #0
 8003956:	d043      	beq.n	80039e0 <HAL_RCC_OscConfig+0x200>
 8003958:	2301      	movs	r3, #1
 800395a:	e249      	b.n	8003df0 <HAL_RCC_OscConfig+0x610>
 800395c:	687b      	ldr	r3, [r7, #4]
 800395e:	68db      	ldr	r3, [r3, #12]
 8003960:	2b00      	cmp	r3, #0
 8003962:	d023      	beq.n	80039ac <HAL_RCC_OscConfig+0x1cc>
 8003964:	4b3d      	ldr	r3, [pc, #244]	@ (8003a5c <HAL_RCC_OscConfig+0x27c>)
 8003966:	681b      	ldr	r3, [r3, #0]
 8003968:	4a3c      	ldr	r2, [pc, #240]	@ (8003a5c <HAL_RCC_OscConfig+0x27c>)
 800396a:	f443 7380 	orr.w	r3, r3, #256	@ 0x100
 800396e:	6013      	str	r3, [r2, #0]
 8003970:	f7fd ffe4 	bl	800193c <HAL_GetTick>
 8003974:	6138      	str	r0, [r7, #16]
 8003976:	e008      	b.n	800398a <HAL_RCC_OscConfig+0x1aa>
 8003978:	f7fd ffe0 	bl	800193c <HAL_GetTick>
 800397c:	4602      	mov	r2, r0
 800397e:	693b      	ldr	r3, [r7, #16]
 8003980:	1ad3      	subs	r3, r2, r3
 8003982:	2b02      	cmp	r3, #2
 8003984:	d901      	bls.n	800398a <HAL_RCC_OscConfig+0x1aa>
 8003986:	2303      	movs	r3, #3
 8003988:	e232      	b.n	8003df0 <HAL_RCC_OscConfig+0x610>
 800398a:	4b34      	ldr	r3, [pc, #208]	@ (8003a5c <HAL_RCC_OscConfig+0x27c>)
 800398c:	681b      	ldr	r3, [r3, #0]
 800398e:	f403 6380 	and.w	r3, r3, #1024	@ 0x400
 8003992:	2b00      	cmp	r3, #0
 8003994:	d0f0      	beq.n	8003978 <HAL_RCC_OscConfig+0x198>
 8003996:	4b31      	ldr	r3, [pc, #196]	@ (8003a5c <HAL_RCC_OscConfig+0x27c>)
 8003998:	685b      	ldr	r3, [r3, #4]
 800399a:	f023 42fe 	bic.w	r2, r3, #2130706432	@ 0x7f000000
 800399e:	687b      	ldr	r3, [r7, #4]
 80039a0:	691b      	ldr	r3, [r3, #16]
 80039a2:	061b      	lsls	r3, r3, #24
 80039a4:	492d      	ldr	r1, [pc, #180]	@ (8003a5c <HAL_RCC_OscConfig+0x27c>)
 80039a6:	4313      	orrs	r3, r2
 80039a8:	604b      	str	r3, [r1, #4]
 80039aa:	e01a      	b.n	80039e2 <HAL_RCC_OscConfig+0x202>
 80039ac:	4b2b      	ldr	r3, [pc, #172]	@ (8003a5c <HAL_RCC_OscConfig+0x27c>)
 80039ae:	681b      	ldr	r3, [r3, #0]
 80039b0:	4a2a      	ldr	r2, [pc, #168]	@ (8003a5c <HAL_RCC_OscConfig+0x27c>)
 80039b2:	f423 7380 	bic.w	r3, r3, #256	@ 0x100
 80039b6:	6013      	str	r3, [r2, #0]
 80039b8:	f7fd ffc0 	bl	800193c <HAL_GetTick>
 80039bc:	6138      	str	r0, [r7, #16]
 80039be:	e008      	b.n	80039d2 <HAL_RCC_OscConfig+0x1f2>
 80039c0:	f7fd ffbc 	bl	800193c <HAL_GetTick>
 80039c4:	4602      	mov	r2, r0
 80039c6:	693b      	ldr	r3, [r7, #16]
 80039c8:	1ad3      	subs	r3, r2, r3
 80039ca:	2b02      	cmp	r3, #2
 80039cc:	d901      	bls.n	80039d2 <HAL_RCC_OscConfig+0x1f2>
 80039ce:	2303      	movs	r3, #3
 80039d0:	e20e      	b.n	8003df0 <HAL_RCC_OscConfig+0x610>
 80039d2:	4b22      	ldr	r3, [pc, #136]	@ (8003a5c <HAL_RCC_OscConfig+0x27c>)
 80039d4:	681b      	ldr	r3, [r3, #0]
 80039d6:	f403 6380 	and.w	r3, r3, #1024	@ 0x400
 80039da:	2b00      	cmp	r3, #0
 80039dc:	d1f0      	bne.n	80039c0 <HAL_RCC_OscConfig+0x1e0>
 80039de:	e000      	b.n	80039e2 <HAL_RCC_OscConfig+0x202>
 80039e0:	bf00      	nop
 80039e2:	687b      	ldr	r3, [r7, #4]
 80039e4:	681b      	ldr	r3, [r3, #0]
 80039e6:	f003 0308 	and.w	r3, r3, #8
 80039ea:	2b00      	cmp	r3, #0
 80039ec:	d041      	beq.n	8003a72 <HAL_RCC_OscConfig+0x292>
 80039ee:	687b      	ldr	r3, [r7, #4]
 80039f0:	695b      	ldr	r3, [r3, #20]
 80039f2:	2b00      	cmp	r3, #0
 80039f4:	d01c      	beq.n	8003a30 <HAL_RCC_OscConfig+0x250>
 80039f6:	4b19      	ldr	r3, [pc, #100]	@ (8003a5c <HAL_RCC_OscConfig+0x27c>)
 80039f8:	f8d3 3094 	ldr.w	r3, [r3, #148]	@ 0x94
 80039fc:	4a17      	ldr	r2, [pc, #92]	@ (8003a5c <HAL_RCC_OscConfig+0x27c>)
 80039fe:	f043 0301 	orr.w	r3, r3, #1
 8003a02:	f8c2 3094 	str.w	r3, [r2, #148]	@ 0x94
 8003a06:	f7fd ff99 	bl	800193c <HAL_GetTick>
 8003a0a:	6138      	str	r0, [r7, #16]
 8003a0c:	e008      	b.n	8003a20 <HAL_RCC_OscConfig+0x240>
 8003a0e:	f7fd ff95 	bl	800193c <HAL_GetTick>
 8003a12:	4602      	mov	r2, r0
 8003a14:	693b      	ldr	r3, [r7, #16]
 8003a16:	1ad3      	subs	r3, r2, r3
 8003a18:	2b02      	cmp	r3, #2
 8003a1a:	d901      	bls.n	8003a20 <HAL_RCC_OscConfig+0x240>
 8003a1c:	2303      	movs	r3, #3
 8003a1e:	e1e7      	b.n	8003df0 <HAL_RCC_OscConfig+0x610>
 8003a20:	4b0e      	ldr	r3, [pc, #56]	@ (8003a5c <HAL_RCC_OscConfig+0x27c>)
 8003a22:	f8d3 3094 	ldr.w	r3, [r3, #148]	@ 0x94
 8003a26:	f003 0302 	and.w	r3, r3, #2
 8003a2a:	2b00      	cmp	r3, #0
 8003a2c:	d0ef      	beq.n	8003a0e <HAL_RCC_OscConfig+0x22e>
 8003a2e:	e020      	b.n	8003a72 <HAL_RCC_OscConfig+0x292>
 8003a30:	4b0a      	ldr	r3, [pc, #40]	@ (8003a5c <HAL_RCC_OscConfig+0x27c>)
 8003a32:	f8d3 3094 	ldr.w	r3, [r3, #148]	@ 0x94
 8003a36:	4a09      	ldr	r2, [pc, #36]	@ (8003a5c <HAL_RCC_OscConfig+0x27c>)
 8003a38:	f023 0301 	bic.w	r3, r3, #1
 8003a3c:	f8c2 3094 	str.w	r3, [r2, #148]	@ 0x94
 8003a40:	f7fd ff7c 	bl	800193c <HAL_GetTick>
 8003a44:	6138      	str	r0, [r7, #16]
 8003a46:	e00d      	b.n	8003a64 <HAL_RCC_OscConfig+0x284>
 8003a48:	f7fd ff78 	bl	800193c <HAL_GetTick>
 8003a4c:	4602      	mov	r2, r0
 8003a4e:	693b      	ldr	r3, [r7, #16]
 8003a50:	1ad3      	subs	r3, r2, r3
 8003a52:	2b02      	cmp	r3, #2
 8003a54:	d906      	bls.n	8003a64 <HAL_RCC_OscConfig+0x284>
 8003a56:	2303      	movs	r3, #3
 8003a58:	e1ca      	b.n	8003df0 <HAL_RCC_OscConfig+0x610>
 8003a5a:	bf00      	nop
 8003a5c:	40021000 	.word	0x40021000
 8003a60:	20000004 	.word	0x20000004
 8003a64:	4b8c      	ldr	r3, [pc, #560]	@ (8003c98 <HAL_RCC_OscConfig+0x4b8>)
 8003a66:	f8d3 3094 	ldr.w	r3, [r3, #148]	@ 0x94
 8003a6a:	f003 0302 	and.w	r3, r3, #2
 8003a6e:	2b00      	cmp	r3, #0
 8003a70:	d1ea      	bne.n	8003a48 <HAL_RCC_OscConfig+0x268>
 8003a72:	687b      	ldr	r3, [r7, #4]
 8003a74:	681b      	ldr	r3, [r3, #0]
 8003a76:	f003 0304 	and.w	r3, r3, #4
 8003a7a:	2b00      	cmp	r3, #0
 8003a7c:	f000 80a6 	beq.w	8003bcc <HAL_RCC_OscConfig+0x3ec>
 8003a80:	2300      	movs	r3, #0
 8003a82:	77fb      	strb	r3, [r7, #31]
 8003a84:	4b84      	ldr	r3, [pc, #528]	@ (8003c98 <HAL_RCC_OscConfig+0x4b8>)
 8003a86:	6d9b      	ldr	r3, [r3, #88]	@ 0x58
 8003a88:	f003 5380 	and.w	r3, r3, #268435456	@ 0x10000000
 8003a8c:	2b00      	cmp	r3, #0
 8003a8e:	d101      	bne.n	8003a94 <HAL_RCC_OscConfig+0x2b4>
 8003a90:	2301      	movs	r3, #1
 8003a92:	e000      	b.n	8003a96 <HAL_RCC_OscConfig+0x2b6>
 8003a94:	2300      	movs	r3, #0
 8003a96:	2b00      	cmp	r3, #0
 8003a98:	d00d      	beq.n	8003ab6 <HAL_RCC_OscConfig+0x2d6>
 8003a9a:	4b7f      	ldr	r3, [pc, #508]	@ (8003c98 <HAL_RCC_OscConfig+0x4b8>)
 8003a9c:	6d9b      	ldr	r3, [r3, #88]	@ 0x58
 8003a9e:	4a7e      	ldr	r2, [pc, #504]	@ (8003c98 <HAL_RCC_OscConfig+0x4b8>)
 8003aa0:	f043 5380 	orr.w	r3, r3, #268435456	@ 0x10000000
 8003aa4:	6593      	str	r3, [r2, #88]	@ 0x58
 8003aa6:	4b7c      	ldr	r3, [pc, #496]	@ (8003c98 <HAL_RCC_OscConfig+0x4b8>)
 8003aa8:	6d9b      	ldr	r3, [r3, #88]	@ 0x58
 8003aaa:	f003 5380 	and.w	r3, r3, #268435456	@ 0x10000000
 8003aae:	60fb      	str	r3, [r7, #12]
 8003ab0:	68fb      	ldr	r3, [r7, #12]
 8003ab2:	2301      	movs	r3, #1
 8003ab4:	77fb      	strb	r3, [r7, #31]
 8003ab6:	4b79      	ldr	r3, [pc, #484]	@ (8003c9c <HAL_RCC_OscConfig+0x4bc>)
 8003ab8:	681b      	ldr	r3, [r3, #0]
 8003aba:	f403 7380 	and.w	r3, r3, #256	@ 0x100
 8003abe:	2b00      	cmp	r3, #0
 8003ac0:	d118      	bne.n	8003af4 <HAL_RCC_OscConfig+0x314>
 8003ac2:	4b76      	ldr	r3, [pc, #472]	@ (8003c9c <HAL_RCC_OscConfig+0x4bc>)
 8003ac4:	681b      	ldr	r3, [r3, #0]
 8003ac6:	4a75      	ldr	r2, [pc, #468]	@ (8003c9c <HAL_RCC_OscConfig+0x4bc>)
 8003ac8:	f443 7380 	orr.w	r3, r3, #256	@ 0x100
 8003acc:	6013      	str	r3, [r2, #0]
 8003ace:	f7fd ff35 	bl	800193c <HAL_GetTick>
 8003ad2:	6138      	str	r0, [r7, #16]
 8003ad4:	e008      	b.n	8003ae8 <HAL_RCC_OscConfig+0x308>
 8003ad6:	f7fd ff31 	bl	800193c <HAL_GetTick>
 8003ada:	4602      	mov	r2, r0
 8003adc:	693b      	ldr	r3, [r7, #16]
 8003ade:	1ad3      	subs	r3, r2, r3
 8003ae0:	2b02      	cmp	r3, #2
 8003ae2:	d901      	bls.n	8003ae8 <HAL_RCC_OscConfig+0x308>
 8003ae4:	2303      	movs	r3, #3
 8003ae6:	e183      	b.n	8003df0 <HAL_RCC_OscConfig+0x610>
 8003ae8:	4b6c      	ldr	r3, [pc, #432]	@ (8003c9c <HAL_RCC_OscConfig+0x4bc>)
 8003aea:	681b      	ldr	r3, [r3, #0]
 8003aec:	f403 7380 	and.w	r3, r3, #256	@ 0x100
 8003af0:	2b00      	cmp	r3, #0
 8003af2:	d0f0      	beq.n	8003ad6 <HAL_RCC_OscConfig+0x2f6>
 8003af4:	687b      	ldr	r3, [r7, #4]
 8003af6:	689b      	ldr	r3, [r3, #8]
 8003af8:	2b01      	cmp	r3, #1
 8003afa:	d108      	bne.n	8003b0e <HAL_RCC_OscConfig+0x32e>
 8003afc:	4b66      	ldr	r3, [pc, #408]	@ (8003c98 <HAL_RCC_OscConfig+0x4b8>)
 8003afe:	f8d3 3090 	ldr.w	r3, [r3, #144]	@ 0x90
 8003b02:	4a65      	ldr	r2, [pc, #404]	@ (8003c98 <HAL_RCC_OscConfig+0x4b8>)
 8003b04:	f043 0301 	orr.w	r3, r3, #1
 8003b08:	f8c2 3090 	str.w	r3, [r2, #144]	@ 0x90
 8003b0c:	e024      	b.n	8003b58 <HAL_RCC_OscConfig+0x378>
 8003b0e:	687b      	ldr	r3, [r7, #4]
 8003b10:	689b      	ldr	r3, [r3, #8]
 8003b12:	2b05      	cmp	r3, #5
 8003b14:	d110      	bne.n	8003b38 <HAL_RCC_OscConfig+0x358>
 8003b16:	4b60      	ldr	r3, [pc, #384]	@ (8003c98 <HAL_RCC_OscConfig+0x4b8>)
 8003b18:	f8d3 3090 	ldr.w	r3, [r3, #144]	@ 0x90
 8003b1c:	4a5e      	ldr	r2, [pc, #376]	@ (8003c98 <HAL_RCC_OscConfig+0x4b8>)
 8003b1e:	f043 0304 	orr.w	r3, r3, #4
 8003b22:	f8c2 3090 	str.w	r3, [r2, #144]	@ 0x90
 8003b26:	4b5c      	ldr	r3, [pc, #368]	@ (8003c98 <HAL_RCC_OscConfig+0x4b8>)
 8003b28:	f8d3 3090 	ldr.w	r3, [r3, #144]	@ 0x90
 8003b2c:	4a5a      	ldr	r2, [pc, #360]	@ (8003c98 <HAL_RCC_OscConfig+0x4b8>)
 8003b2e:	f043 0301 	orr.w	r3, r3, #1
 8003b32:	f8c2 3090 	str.w	r3, [r2, #144]	@ 0x90
 8003b36:	e00f      	b.n	8003b58 <HAL_RCC_OscConfig+0x378>
 8003b38:	4b57      	ldr	r3, [pc, #348]	@ (8003c98 <HAL_RCC_OscConfig+0x4b8>)
 8003b3a:	f8d3 3090 	ldr.w	r3, [r3, #144]	@ 0x90
 8003b3e:	4a56      	ldr	r2, [pc, #344]	@ (8003c98 <HAL_RCC_OscConfig+0x4b8>)
 8003b40:	f023 0301 	bic.w	r3, r3, #1
 8003b44:	f8c2 3090 	str.w	r3, [r2, #144]	@ 0x90
 8003b48:	4b53      	ldr	r3, [pc, #332]	@ (8003c98 <HAL_RCC_OscConfig+0x4b8>)
 8003b4a:	f8d3 3090 	ldr.w	r3, [r3, #144]	@ 0x90
 8003b4e:	4a52      	ldr	r2, [pc, #328]	@ (8003c98 <HAL_RCC_OscConfig+0x4b8>)
 8003b50:	f023 0304 	bic.w	r3, r3, #4
 8003b54:	f8c2 3090 	str.w	r3, [r2, #144]	@ 0x90
 8003b58:	687b      	ldr	r3, [r7, #4]
 8003b5a:	689b      	ldr	r3, [r3, #8]
 8003b5c:	2b00      	cmp	r3, #0
 8003b5e:	d016      	beq.n	8003b8e <HAL_RCC_OscConfig+0x3ae>
 8003b60:	f7fd feec 	bl	800193c <HAL_GetTick>
 8003b64:	6138      	str	r0, [r7, #16]
 8003b66:	e00a      	b.n	8003b7e <HAL_RCC_OscConfig+0x39e>
 8003b68:	f7fd fee8 	bl	800193c <HAL_GetTick>
 8003b6c:	4602      	mov	r2, r0
 8003b6e:	693b      	ldr	r3, [r7, #16]
 8003b70:	1ad3      	subs	r3, r2, r3
 8003b72:	f241 3288 	movw	r2, #5000	@ 0x1388
 8003b76:	4293      	cmp	r3, r2
 8003b78:	d901      	bls.n	8003b7e <HAL_RCC_OscConfig+0x39e>
 8003b7a:	2303      	movs	r3, #3
 8003b7c:	e138      	b.n	8003df0 <HAL_RCC_OscConfig+0x610>
 8003b7e:	4b46      	ldr	r3, [pc, #280]	@ (8003c98 <HAL_RCC_OscConfig+0x4b8>)
 8003b80:	f8d3 3090 	ldr.w	r3, [r3, #144]	@ 0x90
 8003b84:	f003 0302 	and.w	r3, r3, #2
 8003b88:	2b00      	cmp	r3, #0
 8003b8a:	d0ed      	beq.n	8003b68 <HAL_RCC_OscConfig+0x388>
 8003b8c:	e015      	b.n	8003bba <HAL_RCC_OscConfig+0x3da>
 8003b8e:	f7fd fed5 	bl	800193c <HAL_GetTick>
 8003b92:	6138      	str	r0, [r7, #16]
 8003b94:	e00a      	b.n	8003bac <HAL_RCC_OscConfig+0x3cc>
 8003b96:	f7fd fed1 	bl	800193c <HAL_GetTick>
 8003b9a:	4602      	mov	r2, r0
 8003b9c:	693b      	ldr	r3, [r7, #16]
 8003b9e:	1ad3      	subs	r3, r2, r3
 8003ba0:	f241 3288 	movw	r2, #5000	@ 0x1388
 8003ba4:	4293      	cmp	r3, r2
 8003ba6:	d901      	bls.n	8003bac <HAL_RCC_OscConfig+0x3cc>
 8003ba8:	2303      	movs	r3, #3
 8003baa:	e121      	b.n	8003df0 <HAL_RCC_OscConfig+0x610>
 8003bac:	4b3a      	ldr	r3, [pc, #232]	@ (8003c98 <HAL_RCC_OscConfig+0x4b8>)
 8003bae:	f8d3 3090 	ldr.w	r3, [r3, #144]	@ 0x90
 8003bb2:	f003 0302 	and.w	r3, r3, #2
 8003bb6:	2b00      	cmp	r3, #0
 8003bb8:	d1ed      	bne.n	8003b96 <HAL_RCC_OscConfig+0x3b6>
 8003bba:	7ffb      	ldrb	r3, [r7, #31]
 8003bbc:	2b01      	cmp	r3, #1
 8003bbe:	d105      	bne.n	8003bcc <HAL_RCC_OscConfig+0x3ec>
 8003bc0:	4b35      	ldr	r3, [pc, #212]	@ (8003c98 <HAL_RCC_OscConfig+0x4b8>)
 8003bc2:	6d9b      	ldr	r3, [r3, #88]	@ 0x58
 8003bc4:	4a34      	ldr	r2, [pc, #208]	@ (8003c98 <HAL_RCC_OscConfig+0x4b8>)
 8003bc6:	f023 5380 	bic.w	r3, r3, #268435456	@ 0x10000000
 8003bca:	6593      	str	r3, [r2, #88]	@ 0x58
 8003bcc:	687b      	ldr	r3, [r7, #4]
 8003bce:	681b      	ldr	r3, [r3, #0]
 8003bd0:	f003 0320 	and.w	r3, r3, #32
 8003bd4:	2b00      	cmp	r3, #0
 8003bd6:	d03c      	beq.n	8003c52 <HAL_RCC_OscConfig+0x472>
 8003bd8:	687b      	ldr	r3, [r7, #4]
 8003bda:	699b      	ldr	r3, [r3, #24]
 8003bdc:	2b00      	cmp	r3, #0
 8003bde:	d01c      	beq.n	8003c1a <HAL_RCC_OscConfig+0x43a>
 8003be0:	4b2d      	ldr	r3, [pc, #180]	@ (8003c98 <HAL_RCC_OscConfig+0x4b8>)
 8003be2:	f8d3 3098 	ldr.w	r3, [r3, #152]	@ 0x98
 8003be6:	4a2c      	ldr	r2, [pc, #176]	@ (8003c98 <HAL_RCC_OscConfig+0x4b8>)
 8003be8:	f043 0301 	orr.w	r3, r3, #1
 8003bec:	f8c2 3098 	str.w	r3, [r2, #152]	@ 0x98
 8003bf0:	f7fd fea4 	bl	800193c <HAL_GetTick>
 8003bf4:	6138      	str	r0, [r7, #16]
 8003bf6:	e008      	b.n	8003c0a <HAL_RCC_OscConfig+0x42a>
 8003bf8:	f7fd fea0 	bl	800193c <HAL_GetTick>
 8003bfc:	4602      	mov	r2, r0
 8003bfe:	693b      	ldr	r3, [r7, #16]
 8003c00:	1ad3      	subs	r3, r2, r3
 8003c02:	2b02      	cmp	r3, #2
 8003c04:	d901      	bls.n	8003c0a <HAL_RCC_OscConfig+0x42a>
 8003c06:	2303      	movs	r3, #3
 8003c08:	e0f2      	b.n	8003df0 <HAL_RCC_OscConfig+0x610>
 8003c0a:	4b23      	ldr	r3, [pc, #140]	@ (8003c98 <HAL_RCC_OscConfig+0x4b8>)
 8003c0c:	f8d3 3098 	ldr.w	r3, [r3, #152]	@ 0x98
 8003c10:	f003 0302 	and.w	r3, r3, #2
 8003c14:	2b00      	cmp	r3, #0
 8003c16:	d0ef      	beq.n	8003bf8 <HAL_RCC_OscConfig+0x418>
 8003c18:	e01b      	b.n	8003c52 <HAL_RCC_OscConfig+0x472>
 8003c1a:	4b1f      	ldr	r3, [pc, #124]	@ (8003c98 <HAL_RCC_OscConfig+0x4b8>)
 8003c1c:	f8d3 3098 	ldr.w	r3, [r3, #152]	@ 0x98
 8003c20:	4a1d      	ldr	r2, [pc, #116]	@ (8003c98 <HAL_RCC_OscConfig+0x4b8>)
 8003c22:	f023 0301 	bic.w	r3, r3, #1
 8003c26:	f8c2 3098 	str.w	r3, [r2, #152]	@ 0x98
 8003c2a:	f7fd fe87 	bl	800193c <HAL_GetTick>
 8003c2e:	6138      	str	r0, [r7, #16]
 8003c30:	e008      	b.n	8003c44 <HAL_RCC_OscConfig+0x464>
 8003c32:	f7fd fe83 	bl	800193c <HAL_GetTick>
 8003c36:	4602      	mov	r2, r0
 8003c38:	693b      	ldr	r3, [r7, #16]
 8003c3a:	1ad3      	subs	r3, r2, r3
 8003c3c:	2b02      	cmp	r3, #2
 8003c3e:	d901      	bls.n	8003c44 <HAL_RCC_OscConfig+0x464>
 8003c40:	2303      	movs	r3, #3
 8003c42:	e0d5      	b.n	8003df0 <HAL_RCC_OscConfig+0x610>
 8003c44:	4b14      	ldr	r3, [pc, #80]	@ (8003c98 <HAL_RCC_OscConfig+0x4b8>)
 8003c46:	f8d3 3098 	ldr.w	r3, [r3, #152]	@ 0x98
 8003c4a:	f003 0302 	and.w	r3, r3, #2
 8003c4e:	2b00      	cmp	r3, #0
 8003c50:	d1ef      	bne.n	8003c32 <HAL_RCC_OscConfig+0x452>
 8003c52:	687b      	ldr	r3, [r7, #4]
 8003c54:	69db      	ldr	r3, [r3, #28]
 8003c56:	2b00      	cmp	r3, #0
 8003c58:	f000 80c9 	beq.w	8003dee <HAL_RCC_OscConfig+0x60e>
 8003c5c:	4b0e      	ldr	r3, [pc, #56]	@ (8003c98 <HAL_RCC_OscConfig+0x4b8>)
 8003c5e:	689b      	ldr	r3, [r3, #8]
 8003c60:	f003 030c 	and.w	r3, r3, #12
 8003c64:	2b0c      	cmp	r3, #12
 8003c66:	f000 8083 	beq.w	8003d70 <HAL_RCC_OscConfig+0x590>
 8003c6a:	687b      	ldr	r3, [r7, #4]
 8003c6c:	69db      	ldr	r3, [r3, #28]
 8003c6e:	2b02      	cmp	r3, #2
 8003c70:	d15e      	bne.n	8003d30 <HAL_RCC_OscConfig+0x550>
 8003c72:	4b09      	ldr	r3, [pc, #36]	@ (8003c98 <HAL_RCC_OscConfig+0x4b8>)
 8003c74:	681b      	ldr	r3, [r3, #0]
 8003c76:	4a08      	ldr	r2, [pc, #32]	@ (8003c98 <HAL_RCC_OscConfig+0x4b8>)
 8003c78:	f023 7380 	bic.w	r3, r3, #16777216	@ 0x1000000
 8003c7c:	6013      	str	r3, [r2, #0]
 8003c7e:	f7fd fe5d 	bl	800193c <HAL_GetTick>
 8003c82:	6138      	str	r0, [r7, #16]
 8003c84:	e00c      	b.n	8003ca0 <HAL_RCC_OscConfig+0x4c0>
 8003c86:	f7fd fe59 	bl	800193c <HAL_GetTick>
 8003c8a:	4602      	mov	r2, r0
 8003c8c:	693b      	ldr	r3, [r7, #16]
 8003c8e:	1ad3      	subs	r3, r2, r3
 8003c90:	2b02      	cmp	r3, #2
 8003c92:	d905      	bls.n	8003ca0 <HAL_RCC_OscConfig+0x4c0>
 8003c94:	2303      	movs	r3, #3
 8003c96:	e0ab      	b.n	8003df0 <HAL_RCC_OscConfig+0x610>
 8003c98:	40021000 	.word	0x40021000
 8003c9c:	40007000 	.word	0x40007000
 8003ca0:	4b55      	ldr	r3, [pc, #340]	@ (8003df8 <HAL_RCC_OscConfig+0x618>)
 8003ca2:	681b      	ldr	r3, [r3, #0]
 8003ca4:	f003 7300 	and.w	r3, r3, #33554432	@ 0x2000000
 8003ca8:	2b00      	cmp	r3, #0
 8003caa:	d1ec      	bne.n	8003c86 <HAL_RCC_OscConfig+0x4a6>
 8003cac:	4b52      	ldr	r3, [pc, #328]	@ (8003df8 <HAL_RCC_OscConfig+0x618>)
 8003cae:	68da      	ldr	r2, [r3, #12]
 8003cb0:	4b52      	ldr	r3, [pc, #328]	@ (8003dfc <HAL_RCC_OscConfig+0x61c>)
 8003cb2:	4013      	ands	r3, r2
 8003cb4:	687a      	ldr	r2, [r7, #4]
 8003cb6:	6a11      	ldr	r1, [r2, #32]
 8003cb8:	687a      	ldr	r2, [r7, #4]
 8003cba:	6a52      	ldr	r2, [r2, #36]	@ 0x24
 8003cbc:	3a01      	subs	r2, #1
 8003cbe:	0112      	lsls	r2, r2, #4
 8003cc0:	4311      	orrs	r1, r2
 8003cc2:	687a      	ldr	r2, [r7, #4]
 8003cc4:	6a92      	ldr	r2, [r2, #40]	@ 0x28
 8003cc6:	0212      	lsls	r2, r2, #8
 8003cc8:	4311      	orrs	r1, r2
 8003cca:	687a      	ldr	r2, [r7, #4]
 8003ccc:	6b12      	ldr	r2, [r2, #48]	@ 0x30
 8003cce:	0852      	lsrs	r2, r2, #1
 8003cd0:	3a01      	subs	r2, #1
 8003cd2:	0552      	lsls	r2, r2, #21
 8003cd4:	4311      	orrs	r1, r2
 8003cd6:	687a      	ldr	r2, [r7, #4]
 8003cd8:	6b52      	ldr	r2, [r2, #52]	@ 0x34
 8003cda:	0852      	lsrs	r2, r2, #1
 8003cdc:	3a01      	subs	r2, #1
 8003cde:	0652      	lsls	r2, r2, #25
 8003ce0:	4311      	orrs	r1, r2
 8003ce2:	687a      	ldr	r2, [r7, #4]
 8003ce4:	6ad2      	ldr	r2, [r2, #44]	@ 0x2c
 8003ce6:	06d2      	lsls	r2, r2, #27
 8003ce8:	430a      	orrs	r2, r1
 8003cea:	4943      	ldr	r1, [pc, #268]	@ (8003df8 <HAL_RCC_OscConfig+0x618>)
 8003cec:	4313      	orrs	r3, r2
 8003cee:	60cb      	str	r3, [r1, #12]
 8003cf0:	4b41      	ldr	r3, [pc, #260]	@ (8003df8 <HAL_RCC_OscConfig+0x618>)
 8003cf2:	681b      	ldr	r3, [r3, #0]
 8003cf4:	4a40      	ldr	r2, [pc, #256]	@ (8003df8 <HAL_RCC_OscConfig+0x618>)
 8003cf6:	f043 7380 	orr.w	r3, r3, #16777216	@ 0x1000000
 8003cfa:	6013      	str	r3, [r2, #0]
 8003cfc:	4b3e      	ldr	r3, [pc, #248]	@ (8003df8 <HAL_RCC_OscConfig+0x618>)
 8003cfe:	68db      	ldr	r3, [r3, #12]
 8003d00:	4a3d      	ldr	r2, [pc, #244]	@ (8003df8 <HAL_RCC_OscConfig+0x618>)
 8003d02:	f043 7380 	orr.w	r3, r3, #16777216	@ 0x1000000
 8003d06:	60d3      	str	r3, [r2, #12]
 8003d08:	f7fd fe18 	bl	800193c <HAL_GetTick>
 8003d0c:	6138      	str	r0, [r7, #16]
 8003d0e:	e008      	b.n	8003d22 <HAL_RCC_OscConfig+0x542>
 8003d10:	f7fd fe14 	bl	800193c <HAL_GetTick>
 8003d14:	4602      	mov	r2, r0
 8003d16:	693b      	ldr	r3, [r7, #16]
 8003d18:	1ad3      	subs	r3, r2, r3
 8003d1a:	2b02      	cmp	r3, #2
 8003d1c:	d901      	bls.n	8003d22 <HAL_RCC_OscConfig+0x542>
 8003d1e:	2303      	movs	r3, #3
 8003d20:	e066      	b.n	8003df0 <HAL_RCC_OscConfig+0x610>
 8003d22:	4b35      	ldr	r3, [pc, #212]	@ (8003df8 <HAL_RCC_OscConfig+0x618>)
 8003d24:	681b      	ldr	r3, [r3, #0]
 8003d26:	f003 7300 	and.w	r3, r3, #33554432	@ 0x2000000
 8003d2a:	2b00      	cmp	r3, #0
 8003d2c:	d0f0      	beq.n	8003d10 <HAL_RCC_OscConfig+0x530>
 8003d2e:	e05e      	b.n	8003dee <HAL_RCC_OscConfig+0x60e>
 8003d30:	4b31      	ldr	r3, [pc, #196]	@ (8003df8 <HAL_RCC_OscConfig+0x618>)
 8003d32:	681b      	ldr	r3, [r3, #0]
 8003d34:	4a30      	ldr	r2, [pc, #192]	@ (8003df8 <HAL_RCC_OscConfig+0x618>)
 8003d36:	f023 7380 	bic.w	r3, r3, #16777216	@ 0x1000000
 8003d3a:	6013      	str	r3, [r2, #0]
 8003d3c:	f7fd fdfe 	bl	800193c <HAL_GetTick>
 8003d40:	6138      	str	r0, [r7, #16]
 8003d42:	e008      	b.n	8003d56 <HAL_RCC_OscConfig+0x576>
 8003d44:	f7fd fdfa 	bl	800193c <HAL_GetTick>
 8003d48:	4602      	mov	r2, r0
 8003d4a:	693b      	ldr	r3, [r7, #16]
 8003d4c:	1ad3      	subs	r3, r2, r3
 8003d4e:	2b02      	cmp	r3, #2
 8003d50:	d901      	bls.n	8003d56 <HAL_RCC_OscConfig+0x576>
 8003d52:	2303      	movs	r3, #3
 8003d54:	e04c      	b.n	8003df0 <HAL_RCC_OscConfig+0x610>
 8003d56:	4b28      	ldr	r3, [pc, #160]	@ (8003df8 <HAL_RCC_OscConfig+0x618>)
 8003d58:	681b      	ldr	r3, [r3, #0]
 8003d5a:	f003 7300 	and.w	r3, r3, #33554432	@ 0x2000000
 8003d5e:	2b00      	cmp	r3, #0
 8003d60:	d1f0      	bne.n	8003d44 <HAL_RCC_OscConfig+0x564>
 8003d62:	4b25      	ldr	r3, [pc, #148]	@ (8003df8 <HAL_RCC_OscConfig+0x618>)
 8003d64:	68da      	ldr	r2, [r3, #12]
 8003d66:	4924      	ldr	r1, [pc, #144]	@ (8003df8 <HAL_RCC_OscConfig+0x618>)
 8003d68:	4b25      	ldr	r3, [pc, #148]	@ (8003e00 <HAL_RCC_OscConfig+0x620>)
 8003d6a:	4013      	ands	r3, r2
 8003d6c:	60cb      	str	r3, [r1, #12]
 8003d6e:	e03e      	b.n	8003dee <HAL_RCC_OscConfig+0x60e>
 8003d70:	687b      	ldr	r3, [r7, #4]
 8003d72:	69db      	ldr	r3, [r3, #28]
 8003d74:	2b01      	cmp	r3, #1
 8003d76:	d101      	bne.n	8003d7c <HAL_RCC_OscConfig+0x59c>
 8003d78:	2301      	movs	r3, #1
 8003d7a:	e039      	b.n	8003df0 <HAL_RCC_OscConfig+0x610>
 8003d7c:	4b1e      	ldr	r3, [pc, #120]	@ (8003df8 <HAL_RCC_OscConfig+0x618>)
 8003d7e:	68db      	ldr	r3, [r3, #12]
 8003d80:	617b      	str	r3, [r7, #20]
 8003d82:	697b      	ldr	r3, [r7, #20]
 8003d84:	f003 0203 	and.w	r2, r3, #3
 8003d88:	687b      	ldr	r3, [r7, #4]
 8003d8a:	6a1b      	ldr	r3, [r3, #32]
 8003d8c:	429a      	cmp	r2, r3
 8003d8e:	d12c      	bne.n	8003dea <HAL_RCC_OscConfig+0x60a>
 8003d90:	697b      	ldr	r3, [r7, #20]
 8003d92:	f003 02f0 	and.w	r2, r3, #240	@ 0xf0
 8003d96:	687b      	ldr	r3, [r7, #4]
 8003d98:	6a5b      	ldr	r3, [r3, #36]	@ 0x24
 8003d9a:	3b01      	subs	r3, #1
 8003d9c:	011b      	lsls	r3, r3, #4
 8003d9e:	429a      	cmp	r2, r3
 8003da0:	d123      	bne.n	8003dea <HAL_RCC_OscConfig+0x60a>
 8003da2:	697b      	ldr	r3, [r7, #20]
 8003da4:	f403 42fe 	and.w	r2, r3, #32512	@ 0x7f00
 8003da8:	687b      	ldr	r3, [r7, #4]
 8003daa:	6a9b      	ldr	r3, [r3, #40]	@ 0x28
 8003dac:	021b      	lsls	r3, r3, #8
 8003dae:	429a      	cmp	r2, r3
 8003db0:	d11b      	bne.n	8003dea <HAL_RCC_OscConfig+0x60a>
 8003db2:	697b      	ldr	r3, [r7, #20]
 8003db4:	f003 4278 	and.w	r2, r3, #4160749568	@ 0xf8000000
 8003db8:	687b      	ldr	r3, [r7, #4]
 8003dba:	6adb      	ldr	r3, [r3, #44]	@ 0x2c
 8003dbc:	06db      	lsls	r3, r3, #27
 8003dbe:	429a      	cmp	r2, r3
 8003dc0:	d113      	bne.n	8003dea <HAL_RCC_OscConfig+0x60a>
 8003dc2:	697b      	ldr	r3, [r7, #20]
 8003dc4:	f403 02c0 	and.w	r2, r3, #6291456	@ 0x600000
 8003dc8:	687b      	ldr	r3, [r7, #4]
 8003dca:	6b1b      	ldr	r3, [r3, #48]	@ 0x30
 8003dcc:	085b      	lsrs	r3, r3, #1
 8003dce:	3b01      	subs	r3, #1
 8003dd0:	055b      	lsls	r3, r3, #21
 8003dd2:	429a      	cmp	r2, r3
 8003dd4:	d109      	bne.n	8003dea <HAL_RCC_OscConfig+0x60a>
 8003dd6:	697b      	ldr	r3, [r7, #20]
 8003dd8:	f003 62c0 	and.w	r2, r3, #100663296	@ 0x6000000
 8003ddc:	687b      	ldr	r3, [r7, #4]
 8003dde:	6b5b      	ldr	r3, [r3, #52]	@ 0x34
 8003de0:	085b      	lsrs	r3, r3, #1
 8003de2:	3b01      	subs	r3, #1
 8003de4:	065b      	lsls	r3, r3, #25
 8003de6:	429a      	cmp	r2, r3
 8003de8:	d001      	beq.n	8003dee <HAL_RCC_OscConfig+0x60e>
 8003dea:	2301      	movs	r3, #1
 8003dec:	e000      	b.n	8003df0 <HAL_RCC_OscConfig+0x610>
 8003dee:	2300      	movs	r3, #0
 8003df0:	4618      	mov	r0, r3
 8003df2:	3720      	adds	r7, #32
 8003df4:	46bd      	mov	sp, r7
 8003df6:	bd80      	pop	{r7, pc}
 8003df8:	40021000 	.word	0x40021000
 8003dfc:	019f800c 	.word	0x019f800c
 8003e00:	feeefffc 	.word	0xfeeefffc

08003e04 <HAL_RCC_ClockConfig>:
 8003e04:	b580      	push	{r7, lr}
 8003e06:	b086      	sub	sp, #24
 8003e08:	af00      	add	r7, sp, #0
 8003e0a:	6078      	str	r0, [r7, #4]
 8003e0c:	6039      	str	r1, [r7, #0]
 8003e0e:	2300      	movs	r3, #0
 8003e10:	617b      	str	r3, [r7, #20]
 8003e12:	687b      	ldr	r3, [r7, #4]
 8003e14:	2b00      	cmp	r3, #0
 8003e16:	d101      	bne.n	8003e1c <HAL_RCC_ClockConfig+0x18>
 8003e18:	2301      	movs	r3, #1
 8003e1a:	e11e      	b.n	800405a <HAL_RCC_ClockConfig+0x256>
 8003e1c:	4b91      	ldr	r3, [pc, #580]	@ (8004064 <HAL_RCC_ClockConfig+0x260>)
 8003e1e:	681b      	ldr	r3, [r3, #0]
 8003e20:	f003 030f 	and.w	r3, r3, #15
 8003e24:	683a      	ldr	r2, [r7, #0]
 8003e26:	429a      	cmp	r2, r3
 8003e28:	d910      	bls.n	8003e4c <HAL_RCC_ClockConfig+0x48>
 8003e2a:	4b8e      	ldr	r3, [pc, #568]	@ (8004064 <HAL_RCC_ClockConfig+0x260>)
 8003e2c:	681b      	ldr	r3, [r3, #0]
 8003e2e:	f023 020f 	bic.w	r2, r3, #15
 8003e32:	498c      	ldr	r1, [pc, #560]	@ (8004064 <HAL_RCC_ClockConfig+0x260>)
 8003e34:	683b      	ldr	r3, [r7, #0]
 8003e36:	4313      	orrs	r3, r2
 8003e38:	600b      	str	r3, [r1, #0]
 8003e3a:	4b8a      	ldr	r3, [pc, #552]	@ (8004064 <HAL_RCC_ClockConfig+0x260>)
 8003e3c:	681b      	ldr	r3, [r3, #0]
 8003e3e:	f003 030f 	and.w	r3, r3, #15
 8003e42:	683a      	ldr	r2, [r7, #0]
 8003e44:	429a      	cmp	r2, r3
 8003e46:	d001      	beq.n	8003e4c <HAL_RCC_ClockConfig+0x48>
 8003e48:	2301      	movs	r3, #1
 8003e4a:	e106      	b.n	800405a <HAL_RCC_ClockConfig+0x256>
 8003e4c:	687b      	ldr	r3, [r7, #4]
 8003e4e:	681b      	ldr	r3, [r3, #0]
 8003e50:	f003 0301 	and.w	r3, r3, #1
 8003e54:	2b00      	cmp	r3, #0
 8003e56:	d073      	beq.n	8003f40 <HAL_RCC_ClockConfig+0x13c>
 8003e58:	687b      	ldr	r3, [r7, #4]
 8003e5a:	685b      	ldr	r3, [r3, #4]
 8003e5c:	2b03      	cmp	r3, #3
 8003e5e:	d129      	bne.n	8003eb4 <HAL_RCC_ClockConfig+0xb0>
 8003e60:	4b81      	ldr	r3, [pc, #516]	@ (8004068 <HAL_RCC_ClockConfig+0x264>)
 8003e62:	681b      	ldr	r3, [r3, #0]
 8003e64:	f003 7300 	and.w	r3, r3, #33554432	@ 0x2000000
 8003e68:	2b00      	cmp	r3, #0
 8003e6a:	d101      	bne.n	8003e70 <HAL_RCC_ClockConfig+0x6c>
 8003e6c:	2301      	movs	r3, #1
 8003e6e:	e0f4      	b.n	800405a <HAL_RCC_ClockConfig+0x256>
 8003e70:	f000 f99e 	bl	80041b0 <RCC_GetSysClockFreqFromPLLSource>
 8003e74:	6138      	str	r0, [r7, #16]
 8003e76:	693b      	ldr	r3, [r7, #16]
 8003e78:	4a7c      	ldr	r2, [pc, #496]	@ (800406c <HAL_RCC_ClockConfig+0x268>)
 8003e7a:	4293      	cmp	r3, r2
 8003e7c:	d93f      	bls.n	8003efe <HAL_RCC_ClockConfig+0xfa>
 8003e7e:	4b7a      	ldr	r3, [pc, #488]	@ (8004068 <HAL_RCC_ClockConfig+0x264>)
 8003e80:	689b      	ldr	r3, [r3, #8]
 8003e82:	f003 03f0 	and.w	r3, r3, #240	@ 0xf0
 8003e86:	2b00      	cmp	r3, #0
 8003e88:	d009      	beq.n	8003e9e <HAL_RCC_ClockConfig+0x9a>
 8003e8a:	687b      	ldr	r3, [r7, #4]
 8003e8c:	681b      	ldr	r3, [r3, #0]
 8003e8e:	f003 0302 	and.w	r3, r3, #2
 8003e92:	2b00      	cmp	r3, #0
 8003e94:	d033      	beq.n	8003efe <HAL_RCC_ClockConfig+0xfa>
 8003e96:	687b      	ldr	r3, [r7, #4]
 8003e98:	689b      	ldr	r3, [r3, #8]
 8003e9a:	2b00      	cmp	r3, #0
 8003e9c:	d12f      	bne.n	8003efe <HAL_RCC_ClockConfig+0xfa>
 8003e9e:	4b72      	ldr	r3, [pc, #456]	@ (8004068 <HAL_RCC_ClockConfig+0x264>)
 8003ea0:	689b      	ldr	r3, [r3, #8]
 8003ea2:	f023 03f0 	bic.w	r3, r3, #240	@ 0xf0
 8003ea6:	4a70      	ldr	r2, [pc, #448]	@ (8004068 <HAL_RCC_ClockConfig+0x264>)
 8003ea8:	f043 0380 	orr.w	r3, r3, #128	@ 0x80
 8003eac:	6093      	str	r3, [r2, #8]
 8003eae:	2380      	movs	r3, #128	@ 0x80
 8003eb0:	617b      	str	r3, [r7, #20]
 8003eb2:	e024      	b.n	8003efe <HAL_RCC_ClockConfig+0xfa>
 8003eb4:	687b      	ldr	r3, [r7, #4]
 8003eb6:	685b      	ldr	r3, [r3, #4]
 8003eb8:	2b02      	cmp	r3, #2
 8003eba:	d107      	bne.n	8003ecc <HAL_RCC_ClockConfig+0xc8>
 8003ebc:	4b6a      	ldr	r3, [pc, #424]	@ (8004068 <HAL_RCC_ClockConfig+0x264>)
 8003ebe:	681b      	ldr	r3, [r3, #0]
 8003ec0:	f403 3300 	and.w	r3, r3, #131072	@ 0x20000
 8003ec4:	2b00      	cmp	r3, #0
 8003ec6:	d109      	bne.n	8003edc <HAL_RCC_ClockConfig+0xd8>
 8003ec8:	2301      	movs	r3, #1
 8003eca:	e0c6      	b.n	800405a <HAL_RCC_ClockConfig+0x256>
 8003ecc:	4b66      	ldr	r3, [pc, #408]	@ (8004068 <HAL_RCC_ClockConfig+0x264>)
 8003ece:	681b      	ldr	r3, [r3, #0]
 8003ed0:	f403 6380 	and.w	r3, r3, #1024	@ 0x400
 8003ed4:	2b00      	cmp	r3, #0
 8003ed6:	d101      	bne.n	8003edc <HAL_RCC_ClockConfig+0xd8>
 8003ed8:	2301      	movs	r3, #1
 8003eda:	e0be      	b.n	800405a <HAL_RCC_ClockConfig+0x256>
 8003edc:	f000 f8ce 	bl	800407c <HAL_RCC_GetSysClockFreq>
 8003ee0:	6138      	str	r0, [r7, #16]
 8003ee2:	693b      	ldr	r3, [r7, #16]
 8003ee4:	4a61      	ldr	r2, [pc, #388]	@ (800406c <HAL_RCC_ClockConfig+0x268>)
 8003ee6:	4293      	cmp	r3, r2
 8003ee8:	d909      	bls.n	8003efe <HAL_RCC_ClockConfig+0xfa>
 8003eea:	4b5f      	ldr	r3, [pc, #380]	@ (8004068 <HAL_RCC_ClockConfig+0x264>)
 8003eec:	689b      	ldr	r3, [r3, #8]
 8003eee:	f023 03f0 	bic.w	r3, r3, #240	@ 0xf0
 8003ef2:	4a5d      	ldr	r2, [pc, #372]	@ (8004068 <HAL_RCC_ClockConfig+0x264>)
 8003ef4:	f043 0380 	orr.w	r3, r3, #128	@ 0x80
 8003ef8:	6093      	str	r3, [r2, #8]
 8003efa:	2380      	movs	r3, #128	@ 0x80
 8003efc:	617b      	str	r3, [r7, #20]
 8003efe:	4b5a      	ldr	r3, [pc, #360]	@ (8004068 <HAL_RCC_ClockConfig+0x264>)
 8003f00:	689b      	ldr	r3, [r3, #8]
 8003f02:	f023 0203 	bic.w	r2, r3, #3
 8003f06:	687b      	ldr	r3, [r7, #4]
 8003f08:	685b      	ldr	r3, [r3, #4]
 8003f0a:	4957      	ldr	r1, [pc, #348]	@ (8004068 <HAL_RCC_ClockConfig+0x264>)
 8003f0c:	4313      	orrs	r3, r2
 8003f0e:	608b      	str	r3, [r1, #8]
 8003f10:	f7fd fd14 	bl	800193c <HAL_GetTick>
 8003f14:	60f8      	str	r0, [r7, #12]
 8003f16:	e00a      	b.n	8003f2e <HAL_RCC_ClockConfig+0x12a>
 8003f18:	f7fd fd10 	bl	800193c <HAL_GetTick>
 8003f1c:	4602      	mov	r2, r0
 8003f1e:	68fb      	ldr	r3, [r7, #12]
 8003f20:	1ad3      	subs	r3, r2, r3
 8003f22:	f241 3288 	movw	r2, #5000	@ 0x1388
 8003f26:	4293      	cmp	r3, r2
 8003f28:	d901      	bls.n	8003f2e <HAL_RCC_ClockConfig+0x12a>
 8003f2a:	2303      	movs	r3, #3
 8003f2c:	e095      	b.n	800405a <HAL_RCC_ClockConfig+0x256>
 8003f2e:	4b4e      	ldr	r3, [pc, #312]	@ (8004068 <HAL_RCC_ClockConfig+0x264>)
 8003f30:	689b      	ldr	r3, [r3, #8]
 8003f32:	f003 020c 	and.w	r2, r3, #12
 8003f36:	687b      	ldr	r3, [r7, #4]
 8003f38:	685b      	ldr	r3, [r3, #4]
 8003f3a:	009b      	lsls	r3, r3, #2
 8003f3c:	429a      	cmp	r2, r3
 8003f3e:	d1eb      	bne.n	8003f18 <HAL_RCC_ClockConfig+0x114>
 8003f40:	687b      	ldr	r3, [r7, #4]
 8003f42:	681b      	ldr	r3, [r3, #0]
 8003f44:	f003 0302 	and.w	r3, r3, #2
 8003f48:	2b00      	cmp	r3, #0
 8003f4a:	d023      	beq.n	8003f94 <HAL_RCC_ClockConfig+0x190>
 8003f4c:	687b      	ldr	r3, [r7, #4]
 8003f4e:	681b      	ldr	r3, [r3, #0]
 8003f50:	f003 0304 	and.w	r3, r3, #4
 8003f54:	2b00      	cmp	r3, #0
 8003f56:	d005      	beq.n	8003f64 <HAL_RCC_ClockConfig+0x160>
 8003f58:	4b43      	ldr	r3, [pc, #268]	@ (8004068 <HAL_RCC_ClockConfig+0x264>)
 8003f5a:	689b      	ldr	r3, [r3, #8]
 8003f5c:	4a42      	ldr	r2, [pc, #264]	@ (8004068 <HAL_RCC_ClockConfig+0x264>)
 8003f5e:	f443 63e0 	orr.w	r3, r3, #1792	@ 0x700
 8003f62:	6093      	str	r3, [r2, #8]
 8003f64:	687b      	ldr	r3, [r7, #4]
 8003f66:	681b      	ldr	r3, [r3, #0]
 8003f68:	f003 0308 	and.w	r3, r3, #8
 8003f6c:	2b00      	cmp	r3, #0
 8003f6e:	d007      	beq.n	8003f80 <HAL_RCC_ClockConfig+0x17c>
 8003f70:	4b3d      	ldr	r3, [pc, #244]	@ (8004068 <HAL_RCC_ClockConfig+0x264>)
 8003f72:	689b      	ldr	r3, [r3, #8]
 8003f74:	f423 537c 	bic.w	r3, r3, #16128	@ 0x3f00
 8003f78:	4a3b      	ldr	r2, [pc, #236]	@ (8004068 <HAL_RCC_ClockConfig+0x264>)
 8003f7a:	f443 63e0 	orr.w	r3, r3, #1792	@ 0x700
 8003f7e:	6093      	str	r3, [r2, #8]
 8003f80:	4b39      	ldr	r3, [pc, #228]	@ (8004068 <HAL_RCC_ClockConfig+0x264>)
 8003f82:	689b      	ldr	r3, [r3, #8]
 8003f84:	f023 02f0 	bic.w	r2, r3, #240	@ 0xf0
 8003f88:	687b      	ldr	r3, [r7, #4]
 8003f8a:	689b      	ldr	r3, [r3, #8]
 8003f8c:	4936      	ldr	r1, [pc, #216]	@ (8004068 <HAL_RCC_ClockConfig+0x264>)
 8003f8e:	4313      	orrs	r3, r2
 8003f90:	608b      	str	r3, [r1, #8]
 8003f92:	e008      	b.n	8003fa6 <HAL_RCC_ClockConfig+0x1a2>
 8003f94:	697b      	ldr	r3, [r7, #20]
 8003f96:	2b80      	cmp	r3, #128	@ 0x80
 8003f98:	d105      	bne.n	8003fa6 <HAL_RCC_ClockConfig+0x1a2>
 8003f9a:	4b33      	ldr	r3, [pc, #204]	@ (8004068 <HAL_RCC_ClockConfig+0x264>)
 8003f9c:	689b      	ldr	r3, [r3, #8]
 8003f9e:	4a32      	ldr	r2, [pc, #200]	@ (8004068 <HAL_RCC_ClockConfig+0x264>)
 8003fa0:	f023 03f0 	bic.w	r3, r3, #240	@ 0xf0
 8003fa4:	6093      	str	r3, [r2, #8]
 8003fa6:	4b2f      	ldr	r3, [pc, #188]	@ (8004064 <HAL_RCC_ClockConfig+0x260>)
 8003fa8:	681b      	ldr	r3, [r3, #0]
 8003faa:	f003 030f 	and.w	r3, r3, #15
 8003fae:	683a      	ldr	r2, [r7, #0]
 8003fb0:	429a      	cmp	r2, r3
 8003fb2:	d21d      	bcs.n	8003ff0 <HAL_RCC_ClockConfig+0x1ec>
 8003fb4:	4b2b      	ldr	r3, [pc, #172]	@ (8004064 <HAL_RCC_ClockConfig+0x260>)
 8003fb6:	681b      	ldr	r3, [r3, #0]
 8003fb8:	f023 020f 	bic.w	r2, r3, #15
 8003fbc:	4929      	ldr	r1, [pc, #164]	@ (8004064 <HAL_RCC_ClockConfig+0x260>)
 8003fbe:	683b      	ldr	r3, [r7, #0]
 8003fc0:	4313      	orrs	r3, r2
 8003fc2:	600b      	str	r3, [r1, #0]
 8003fc4:	f7fd fcba 	bl	800193c <HAL_GetTick>
 8003fc8:	60f8      	str	r0, [r7, #12]
 8003fca:	e00a      	b.n	8003fe2 <HAL_RCC_ClockConfig+0x1de>
 8003fcc:	f7fd fcb6 	bl	800193c <HAL_GetTick>
 8003fd0:	4602      	mov	r2, r0
 8003fd2:	68fb      	ldr	r3, [r7, #12]
 8003fd4:	1ad3      	subs	r3, r2, r3
 8003fd6:	f241 3288 	movw	r2, #5000	@ 0x1388
 8003fda:	4293      	cmp	r3, r2
 8003fdc:	d901      	bls.n	8003fe2 <HAL_RCC_ClockConfig+0x1de>
 8003fde:	2303      	movs	r3, #3
 8003fe0:	e03b      	b.n	800405a <HAL_RCC_ClockConfig+0x256>
 8003fe2:	4b20      	ldr	r3, [pc, #128]	@ (8004064 <HAL_RCC_ClockConfig+0x260>)
 8003fe4:	681b      	ldr	r3, [r3, #0]
 8003fe6:	f003 030f 	and.w	r3, r3, #15
 8003fea:	683a      	ldr	r2, [r7, #0]
 8003fec:	429a      	cmp	r2, r3
 8003fee:	d1ed      	bne.n	8003fcc <HAL_RCC_ClockConfig+0x1c8>
 8003ff0:	687b      	ldr	r3, [r7, #4]
 8003ff2:	681b      	ldr	r3, [r3, #0]
 8003ff4:	f003 0304 	and.w	r3, r3, #4
 8003ff8:	2b00      	cmp	r3, #0
 8003ffa:	d008      	beq.n	800400e <HAL_RCC_ClockConfig+0x20a>
 8003ffc:	4b1a      	ldr	r3, [pc, #104]	@ (8004068 <HAL_RCC_ClockConfig+0x264>)
 8003ffe:	689b      	ldr	r3, [r3, #8]
 8004000:	f423 62e0 	bic.w	r2, r3, #1792	@ 0x700
 8004004:	687b      	ldr	r3, [r7, #4]
 8004006:	68db      	ldr	r3, [r3, #12]
 8004008:	4917      	ldr	r1, [pc, #92]	@ (8004068 <HAL_RCC_ClockConfig+0x264>)
 800400a:	4313      	orrs	r3, r2
 800400c:	608b      	str	r3, [r1, #8]
 800400e:	687b      	ldr	r3, [r7, #4]
 8004010:	681b      	ldr	r3, [r3, #0]
 8004012:	f003 0308 	and.w	r3, r3, #8
 8004016:	2b00      	cmp	r3, #0
 8004018:	d009      	beq.n	800402e <HAL_RCC_ClockConfig+0x22a>
 800401a:	4b13      	ldr	r3, [pc, #76]	@ (8004068 <HAL_RCC_ClockConfig+0x264>)
 800401c:	689b      	ldr	r3, [r3, #8]
 800401e:	f423 5260 	bic.w	r2, r3, #14336	@ 0x3800
 8004022:	687b      	ldr	r3, [r7, #4]
 8004024:	691b      	ldr	r3, [r3, #16]
 8004026:	00db      	lsls	r3, r3, #3
 8004028:	490f      	ldr	r1, [pc, #60]	@ (8004068 <HAL_RCC_ClockConfig+0x264>)
 800402a:	4313      	orrs	r3, r2
 800402c:	608b      	str	r3, [r1, #8]
 800402e:	f000 f825 	bl	800407c <HAL_RCC_GetSysClockFreq>
 8004032:	4602      	mov	r2, r0
 8004034:	4b0c      	ldr	r3, [pc, #48]	@ (8004068 <HAL_RCC_ClockConfig+0x264>)
 8004036:	689b      	ldr	r3, [r3, #8]
 8004038:	091b      	lsrs	r3, r3, #4
 800403a:	f003 030f 	and.w	r3, r3, #15
 800403e:	490c      	ldr	r1, [pc, #48]	@ (8004070 <HAL_RCC_ClockConfig+0x26c>)
 8004040:	5ccb      	ldrb	r3, [r1, r3]
 8004042:	f003 031f 	and.w	r3, r3, #31
 8004046:	fa22 f303 	lsr.w	r3, r2, r3
 800404a:	4a0a      	ldr	r2, [pc, #40]	@ (8004074 <HAL_RCC_ClockConfig+0x270>)
 800404c:	6013      	str	r3, [r2, #0]
 800404e:	4b0a      	ldr	r3, [pc, #40]	@ (8004078 <HAL_RCC_ClockConfig+0x274>)
 8004050:	681b      	ldr	r3, [r3, #0]
 8004052:	4618      	mov	r0, r3
 8004054:	f7fd fc26 	bl	80018a4 <HAL_InitTick>
 8004058:	4603      	mov	r3, r0
 800405a:	4618      	mov	r0, r3
 800405c:	3718      	adds	r7, #24
 800405e:	46bd      	mov	sp, r7
 8004060:	bd80      	pop	{r7, pc}
 8004062:	bf00      	nop
 8004064:	40022000 	.word	0x40022000
 8004068:	40021000 	.word	0x40021000
 800406c:	04c4b400 	.word	0x04c4b400
 8004070:	08006d44 	.word	0x08006d44
 8004074:	20000000 	.word	0x20000000
 8004078:	20000004 	.word	0x20000004

0800407c <HAL_RCC_GetSysClockFreq>:
 800407c:	b480      	push	{r7}
 800407e:	b087      	sub	sp, #28
 8004080:	af00      	add	r7, sp, #0
 8004082:	4b2c      	ldr	r3, [pc, #176]	@ (8004134 <HAL_RCC_GetSysClockFreq+0xb8>)
 8004084:	689b      	ldr	r3, [r3, #8]
 8004086:	f003 030c 	and.w	r3, r3, #12
 800408a:	2b04      	cmp	r3, #4
 800408c:	d102      	bne.n	8004094 <HAL_RCC_GetSysClockFreq+0x18>
 800408e:	4b2a      	ldr	r3, [pc, #168]	@ (8004138 <HAL_RCC_GetSysClockFreq+0xbc>)
 8004090:	613b      	str	r3, [r7, #16]
 8004092:	e047      	b.n	8004124 <HAL_RCC_GetSysClockFreq+0xa8>
 8004094:	4b27      	ldr	r3, [pc, #156]	@ (8004134 <HAL_RCC_GetSysClockFreq+0xb8>)
 8004096:	689b      	ldr	r3, [r3, #8]
 8004098:	f003 030c 	and.w	r3, r3, #12
 800409c:	2b08      	cmp	r3, #8
 800409e:	d102      	bne.n	80040a6 <HAL_RCC_GetSysClockFreq+0x2a>
 80040a0:	4b26      	ldr	r3, [pc, #152]	@ (800413c <HAL_RCC_GetSysClockFreq+0xc0>)
 80040a2:	613b      	str	r3, [r7, #16]
 80040a4:	e03e      	b.n	8004124 <HAL_RCC_GetSysClockFreq+0xa8>
 80040a6:	4b23      	ldr	r3, [pc, #140]	@ (8004134 <HAL_RCC_GetSysClockFreq+0xb8>)
 80040a8:	689b      	ldr	r3, [r3, #8]
 80040aa:	f003 030c 	and.w	r3, r3, #12
 80040ae:	2b0c      	cmp	r3, #12
 80040b0:	d136      	bne.n	8004120 <HAL_RCC_GetSysClockFreq+0xa4>
 80040b2:	4b20      	ldr	r3, [pc, #128]	@ (8004134 <HAL_RCC_GetSysClockFreq+0xb8>)
 80040b4:	68db      	ldr	r3, [r3, #12]
 80040b6:	f003 0303 	and.w	r3, r3, #3
 80040ba:	60fb      	str	r3, [r7, #12]
 80040bc:	4b1d      	ldr	r3, [pc, #116]	@ (8004134 <HAL_RCC_GetSysClockFreq+0xb8>)
 80040be:	68db      	ldr	r3, [r3, #12]
 80040c0:	091b      	lsrs	r3, r3, #4
 80040c2:	f003 030f 	and.w	r3, r3, #15
 80040c6:	3301      	adds	r3, #1
 80040c8:	60bb      	str	r3, [r7, #8]
 80040ca:	68fb      	ldr	r3, [r7, #12]
 80040cc:	2b03      	cmp	r3, #3
 80040ce:	d10c      	bne.n	80040ea <HAL_RCC_GetSysClockFreq+0x6e>
 80040d0:	4a1a      	ldr	r2, [pc, #104]	@ (800413c <HAL_RCC_GetSysClockFreq+0xc0>)
 80040d2:	68bb      	ldr	r3, [r7, #8]
 80040d4:	fbb2 f3f3 	udiv	r3, r2, r3
 80040d8:	4a16      	ldr	r2, [pc, #88]	@ (8004134 <HAL_RCC_GetSysClockFreq+0xb8>)
 80040da:	68d2      	ldr	r2, [r2, #12]
 80040dc:	0a12      	lsrs	r2, r2, #8
 80040de:	f002 027f 	and.w	r2, r2, #127	@ 0x7f
 80040e2:	fb02 f303 	mul.w	r3, r2, r3
 80040e6:	617b      	str	r3, [r7, #20]
 80040e8:	e00c      	b.n	8004104 <HAL_RCC_GetSysClockFreq+0x88>
 80040ea:	4a13      	ldr	r2, [pc, #76]	@ (8004138 <HAL_RCC_GetSysClockFreq+0xbc>)
 80040ec:	68bb      	ldr	r3, [r7, #8]
 80040ee:	fbb2 f3f3 	udiv	r3, r2, r3
 80040f2:	4a10      	ldr	r2, [pc, #64]	@ (8004134 <HAL_RCC_GetSysClockFreq+0xb8>)
 80040f4:	68d2      	ldr	r2, [r2, #12]
 80040f6:	0a12      	lsrs	r2, r2, #8
 80040f8:	f002 027f 	and.w	r2, r2, #127	@ 0x7f
 80040fc:	fb02 f303 	mul.w	r3, r2, r3
 8004100:	617b      	str	r3, [r7, #20]
 8004102:	bf00      	nop
 8004104:	4b0b      	ldr	r3, [pc, #44]	@ (8004134 <HAL_RCC_GetSysClockFreq+0xb8>)
 8004106:	68db      	ldr	r3, [r3, #12]
 8004108:	0e5b      	lsrs	r3, r3, #25
 800410a:	f003 0303 	and.w	r3, r3, #3
 800410e:	3301      	adds	r3, #1
 8004110:	005b      	lsls	r3, r3, #1
 8004112:	607b      	str	r3, [r7, #4]
 8004114:	697a      	ldr	r2, [r7, #20]
 8004116:	687b      	ldr	r3, [r7, #4]
 8004118:	fbb2 f3f3 	udiv	r3, r2, r3
 800411c:	613b      	str	r3, [r7, #16]
 800411e:	e001      	b.n	8004124 <HAL_RCC_GetSysClockFreq+0xa8>
 8004120:	2300      	movs	r3, #0
 8004122:	613b      	str	r3, [r7, #16]
 8004124:	693b      	ldr	r3, [r7, #16]
 8004126:	4618      	mov	r0, r3
 8004128:	371c      	adds	r7, #28
 800412a:	46bd      	mov	sp, r7
 800412c:	f85d 7b04 	ldr.w	r7, [sp], #4
 8004130:	4770      	bx	lr
 8004132:	bf00      	nop
 8004134:	40021000 	.word	0x40021000
 8004138:	00f42400 	.word	0x00f42400
 800413c:	007a1200 	.word	0x007a1200

08004140 <HAL_RCC_GetHCLKFreq>:
 8004140:	b480      	push	{r7}
 8004142:	af00      	add	r7, sp, #0
 8004144:	4b03      	ldr	r3, [pc, #12]	@ (8004154 <HAL_RCC_GetHCLKFreq+0x14>)
 8004146:	681b      	ldr	r3, [r3, #0]
 8004148:	4618      	mov	r0, r3
 800414a:	46bd      	mov	sp, r7
 800414c:	f85d 7b04 	ldr.w	r7, [sp], #4
 8004150:	4770      	bx	lr
 8004152:	bf00      	nop
 8004154:	20000000 	.word	0x20000000

08004158 <HAL_RCC_GetPCLK1Freq>:
 8004158:	b580      	push	{r7, lr}
 800415a:	af00      	add	r7, sp, #0
 800415c:	f7ff fff0 	bl	8004140 <HAL_RCC_GetHCLKFreq>
 8004160:	4602      	mov	r2, r0
 8004162:	4b06      	ldr	r3, [pc, #24]	@ (800417c <HAL_RCC_GetPCLK1Freq+0x24>)
 8004164:	689b      	ldr	r3, [r3, #8]
 8004166:	0a1b      	lsrs	r3, r3, #8
 8004168:	f003 0307 	and.w	r3, r3, #7
 800416c:	4904      	ldr	r1, [pc, #16]	@ (8004180 <HAL_RCC_GetPCLK1Freq+0x28>)
 800416e:	5ccb      	ldrb	r3, [r1, r3]
 8004170:	f003 031f 	and.w	r3, r3, #31
 8004174:	fa22 f303 	lsr.w	r3, r2, r3
 8004178:	4618      	mov	r0, r3
 800417a:	bd80      	pop	{r7, pc}
 800417c:	40021000 	.word	0x40021000
 8004180:	08006d54 	.word	0x08006d54

08004184 <HAL_RCC_GetPCLK2Freq>:
 8004184:	b580      	push	{r7, lr}
 8004186:	af00      	add	r7, sp, #0
 8004188:	f7ff ffda 	bl	8004140 <HAL_RCC_GetHCLKFreq>
 800418c:	4602      	mov	r2, r0
 800418e:	4b06      	ldr	r3, [pc, #24]	@ (80041a8 <HAL_RCC_GetPCLK2Freq+0x24>)
 8004190:	689b      	ldr	r3, [r3, #8]
 8004192:	0adb      	lsrs	r3, r3, #11
 8004194:	f003 0307 	and.w	r3, r3, #7
 8004198:	4904      	ldr	r1, [pc, #16]	@ (80041ac <HAL_RCC_GetPCLK2Freq+0x28>)
 800419a:	5ccb      	ldrb	r3, [r1, r3]
 800419c:	f003 031f 	and.w	r3, r3, #31
 80041a0:	fa22 f303 	lsr.w	r3, r2, r3
 80041a4:	4618      	mov	r0, r3
 80041a6:	bd80      	pop	{r7, pc}
 80041a8:	40021000 	.word	0x40021000
 80041ac:	08006d54 	.word	0x08006d54

080041b0 <RCC_GetSysClockFreqFromPLLSource>:
 80041b0:	b480      	push	{r7}
 80041b2:	b087      	sub	sp, #28
 80041b4:	af00      	add	r7, sp, #0
 80041b6:	4b1e      	ldr	r3, [pc, #120]	@ (8004230 <RCC_GetSysClockFreqFromPLLSource+0x80>)
 80041b8:	68db      	ldr	r3, [r3, #12]
 80041ba:	f003 0303 	and.w	r3, r3, #3
 80041be:	613b      	str	r3, [r7, #16]
 80041c0:	4b1b      	ldr	r3, [pc, #108]	@ (8004230 <RCC_GetSysClockFreqFromPLLSource+0x80>)
 80041c2:	68db      	ldr	r3, [r3, #12]
 80041c4:	091b      	lsrs	r3, r3, #4
 80041c6:	f003 030f 	and.w	r3, r3, #15
 80041ca:	3301      	adds	r3, #1
 80041cc:	60fb      	str	r3, [r7, #12]
 80041ce:	693b      	ldr	r3, [r7, #16]
 80041d0:	2b03      	cmp	r3, #3
 80041d2:	d10c      	bne.n	80041ee <RCC_GetSysClockFreqFromPLLSource+0x3e>
 80041d4:	4a17      	ldr	r2, [pc, #92]	@ (8004234 <RCC_GetSysClockFreqFromPLLSource+0x84>)
 80041d6:	68fb      	ldr	r3, [r7, #12]
 80041d8:	fbb2 f3f3 	udiv	r3, r2, r3
 80041dc:	4a14      	ldr	r2, [pc, #80]	@ (8004230 <RCC_GetSysClockFreqFromPLLSource+0x80>)
 80041de:	68d2      	ldr	r2, [r2, #12]
 80041e0:	0a12      	lsrs	r2, r2, #8
 80041e2:	f002 027f 	and.w	r2, r2, #127	@ 0x7f
 80041e6:	fb02 f303 	mul.w	r3, r2, r3
 80041ea:	617b      	str	r3, [r7, #20]
 80041ec:	e00c      	b.n	8004208 <RCC_GetSysClockFreqFromPLLSource+0x58>
 80041ee:	4a12      	ldr	r2, [pc, #72]	@ (8004238 <RCC_GetSysClockFreqFromPLLSource+0x88>)
 80041f0:	68fb      	ldr	r3, [r7, #12]
 80041f2:	fbb2 f3f3 	udiv	r3, r2, r3
 80041f6:	4a0e      	ldr	r2, [pc, #56]	@ (8004230 <RCC_GetSysClockFreqFromPLLSource+0x80>)
 80041f8:	68d2      	ldr	r2, [r2, #12]
 80041fa:	0a12      	lsrs	r2, r2, #8
 80041fc:	f002 027f 	and.w	r2, r2, #127	@ 0x7f
 8004200:	fb02 f303 	mul.w	r3, r2, r3
 8004204:	617b      	str	r3, [r7, #20]
 8004206:	bf00      	nop
 8004208:	4b09      	ldr	r3, [pc, #36]	@ (8004230 <RCC_GetSysClockFreqFromPLLSource+0x80>)
 800420a:	68db      	ldr	r3, [r3, #12]
 800420c:	0e5b      	lsrs	r3, r3, #25
 800420e:	f003 0303 	and.w	r3, r3, #3
 8004212:	3301      	adds	r3, #1
 8004214:	005b      	lsls	r3, r3, #1
 8004216:	60bb      	str	r3, [r7, #8]
 8004218:	697a      	ldr	r2, [r7, #20]
 800421a:	68bb      	ldr	r3, [r7, #8]
 800421c:	fbb2 f3f3 	udiv	r3, r2, r3
 8004220:	607b      	str	r3, [r7, #4]
 8004222:	687b      	ldr	r3, [r7, #4]
 8004224:	4618      	mov	r0, r3
 8004226:	371c      	adds	r7, #28
 8004228:	46bd      	mov	sp, r7
 800422a:	f85d 7b04 	ldr.w	r7, [sp], #4
 800422e:	4770      	bx	lr
 8004230:	40021000 	.word	0x40021000
 8004234:	007a1200 	.word	0x007a1200
 8004238:	00f42400 	.word	0x00f42400

0800423c <HAL_RCCEx_PeriphCLKConfig>:
 800423c:	b580      	push	{r7, lr}
 800423e:	b086      	sub	sp, #24
 8004240:	af00      	add	r7, sp, #0
 8004242:	6078      	str	r0, [r7, #4]
 8004244:	2300      	movs	r3, #0
 8004246:	74fb      	strb	r3, [r7, #19]
 8004248:	2300      	movs	r3, #0
 800424a:	74bb      	strb	r3, [r7, #18]
 800424c:	687b      	ldr	r3, [r7, #4]
 800424e:	681b      	ldr	r3, [r3, #0]
 8004250:	f403 2300 	and.w	r3, r3, #524288	@ 0x80000
 8004254:	2b00      	cmp	r3, #0
 8004256:	f000 8098 	beq.w	800438a <HAL_RCCEx_PeriphCLKConfig+0x14e>
 800425a:	2300      	movs	r3, #0
 800425c:	747b      	strb	r3, [r7, #17]
 800425e:	4b43      	ldr	r3, [pc, #268]	@ (800436c <HAL_RCCEx_PeriphCLKConfig+0x130>)
 8004260:	6d9b      	ldr	r3, [r3, #88]	@ 0x58
 8004262:	f003 5380 	and.w	r3, r3, #268435456	@ 0x10000000
 8004266:	2b00      	cmp	r3, #0
 8004268:	d10d      	bne.n	8004286 <HAL_RCCEx_PeriphCLKConfig+0x4a>
 800426a:	4b40      	ldr	r3, [pc, #256]	@ (800436c <HAL_RCCEx_PeriphCLKConfig+0x130>)
 800426c:	6d9b      	ldr	r3, [r3, #88]	@ 0x58
 800426e:	4a3f      	ldr	r2, [pc, #252]	@ (800436c <HAL_RCCEx_PeriphCLKConfig+0x130>)
 8004270:	f043 5380 	orr.w	r3, r3, #268435456	@ 0x10000000
 8004274:	6593      	str	r3, [r2, #88]	@ 0x58
 8004276:	4b3d      	ldr	r3, [pc, #244]	@ (800436c <HAL_RCCEx_PeriphCLKConfig+0x130>)
 8004278:	6d9b      	ldr	r3, [r3, #88]	@ 0x58
 800427a:	f003 5380 	and.w	r3, r3, #268435456	@ 0x10000000
 800427e:	60bb      	str	r3, [r7, #8]
 8004280:	68bb      	ldr	r3, [r7, #8]
 8004282:	2301      	movs	r3, #1
 8004284:	747b      	strb	r3, [r7, #17]
 8004286:	4b3a      	ldr	r3, [pc, #232]	@ (8004370 <HAL_RCCEx_PeriphCLKConfig+0x134>)
 8004288:	681b      	ldr	r3, [r3, #0]
 800428a:	4a39      	ldr	r2, [pc, #228]	@ (8004370 <HAL_RCCEx_PeriphCLKConfig+0x134>)
 800428c:	f443 7380 	orr.w	r3, r3, #256	@ 0x100
 8004290:	6013      	str	r3, [r2, #0]
 8004292:	f7fd fb53 	bl	800193c <HAL_GetTick>
 8004296:	60f8      	str	r0, [r7, #12]
 8004298:	e009      	b.n	80042ae <HAL_RCCEx_PeriphCLKConfig+0x72>
 800429a:	f7fd fb4f 	bl	800193c <HAL_GetTick>
 800429e:	4602      	mov	r2, r0
 80042a0:	68fb      	ldr	r3, [r7, #12]
 80042a2:	1ad3      	subs	r3, r2, r3
 80042a4:	2b02      	cmp	r3, #2
 80042a6:	d902      	bls.n	80042ae <HAL_RCCEx_PeriphCLKConfig+0x72>
 80042a8:	2303      	movs	r3, #3
 80042aa:	74fb      	strb	r3, [r7, #19]
 80042ac:	e005      	b.n	80042ba <HAL_RCCEx_PeriphCLKConfig+0x7e>
 80042ae:	4b30      	ldr	r3, [pc, #192]	@ (8004370 <HAL_RCCEx_PeriphCLKConfig+0x134>)
 80042b0:	681b      	ldr	r3, [r3, #0]
 80042b2:	f403 7380 	and.w	r3, r3, #256	@ 0x100
 80042b6:	2b00      	cmp	r3, #0
 80042b8:	d0ef      	beq.n	800429a <HAL_RCCEx_PeriphCLKConfig+0x5e>
 80042ba:	7cfb      	ldrb	r3, [r7, #19]
 80042bc:	2b00      	cmp	r3, #0
 80042be:	d159      	bne.n	8004374 <HAL_RCCEx_PeriphCLKConfig+0x138>
 80042c0:	4b2a      	ldr	r3, [pc, #168]	@ (800436c <HAL_RCCEx_PeriphCLKConfig+0x130>)
 80042c2:	f8d3 3090 	ldr.w	r3, [r3, #144]	@ 0x90
 80042c6:	f403 7340 	and.w	r3, r3, #768	@ 0x300
 80042ca:	617b      	str	r3, [r7, #20]
 80042cc:	697b      	ldr	r3, [r7, #20]
 80042ce:	2b00      	cmp	r3, #0
 80042d0:	d01e      	beq.n	8004310 <HAL_RCCEx_PeriphCLKConfig+0xd4>
 80042d2:	687b      	ldr	r3, [r7, #4]
 80042d4:	6cdb      	ldr	r3, [r3, #76]	@ 0x4c
 80042d6:	697a      	ldr	r2, [r7, #20]
 80042d8:	429a      	cmp	r2, r3
 80042da:	d019      	beq.n	8004310 <HAL_RCCEx_PeriphCLKConfig+0xd4>
 80042dc:	4b23      	ldr	r3, [pc, #140]	@ (800436c <HAL_RCCEx_PeriphCLKConfig+0x130>)
 80042de:	f8d3 3090 	ldr.w	r3, [r3, #144]	@ 0x90
 80042e2:	f423 7340 	bic.w	r3, r3, #768	@ 0x300
 80042e6:	617b      	str	r3, [r7, #20]
 80042e8:	4b20      	ldr	r3, [pc, #128]	@ (800436c <HAL_RCCEx_PeriphCLKConfig+0x130>)
 80042ea:	f8d3 3090 	ldr.w	r3, [r3, #144]	@ 0x90
 80042ee:	4a1f      	ldr	r2, [pc, #124]	@ (800436c <HAL_RCCEx_PeriphCLKConfig+0x130>)
 80042f0:	f443 3380 	orr.w	r3, r3, #65536	@ 0x10000
 80042f4:	f8c2 3090 	str.w	r3, [r2, #144]	@ 0x90
 80042f8:	4b1c      	ldr	r3, [pc, #112]	@ (800436c <HAL_RCCEx_PeriphCLKConfig+0x130>)
 80042fa:	f8d3 3090 	ldr.w	r3, [r3, #144]	@ 0x90
 80042fe:	4a1b      	ldr	r2, [pc, #108]	@ (800436c <HAL_RCCEx_PeriphCLKConfig+0x130>)
 8004300:	f423 3380 	bic.w	r3, r3, #65536	@ 0x10000
 8004304:	f8c2 3090 	str.w	r3, [r2, #144]	@ 0x90
 8004308:	4a18      	ldr	r2, [pc, #96]	@ (800436c <HAL_RCCEx_PeriphCLKConfig+0x130>)
 800430a:	697b      	ldr	r3, [r7, #20]
 800430c:	f8c2 3090 	str.w	r3, [r2, #144]	@ 0x90
 8004310:	697b      	ldr	r3, [r7, #20]
 8004312:	f003 0301 	and.w	r3, r3, #1
 8004316:	2b00      	cmp	r3, #0
 8004318:	d016      	beq.n	8004348 <HAL_RCCEx_PeriphCLKConfig+0x10c>
 800431a:	f7fd fb0f 	bl	800193c <HAL_GetTick>
 800431e:	60f8      	str	r0, [r7, #12]
 8004320:	e00b      	b.n	800433a <HAL_RCCEx_PeriphCLKConfig+0xfe>
 8004322:	f7fd fb0b 	bl	800193c <HAL_GetTick>
 8004326:	4602      	mov	r2, r0
 8004328:	68fb      	ldr	r3, [r7, #12]
 800432a:	1ad3      	subs	r3, r2, r3
 800432c:	f241 3288 	movw	r2, #5000	@ 0x1388
 8004330:	4293      	cmp	r3, r2
 8004332:	d902      	bls.n	800433a <HAL_RCCEx_PeriphCLKConfig+0xfe>
 8004334:	2303      	movs	r3, #3
 8004336:	74fb      	strb	r3, [r7, #19]
 8004338:	e006      	b.n	8004348 <HAL_RCCEx_PeriphCLKConfig+0x10c>
 800433a:	4b0c      	ldr	r3, [pc, #48]	@ (800436c <HAL_RCCEx_PeriphCLKConfig+0x130>)
 800433c:	f8d3 3090 	ldr.w	r3, [r3, #144]	@ 0x90
 8004340:	f003 0302 	and.w	r3, r3, #2
 8004344:	2b00      	cmp	r3, #0
 8004346:	d0ec      	beq.n	8004322 <HAL_RCCEx_PeriphCLKConfig+0xe6>
 8004348:	7cfb      	ldrb	r3, [r7, #19]
 800434a:	2b00      	cmp	r3, #0
 800434c:	d10b      	bne.n	8004366 <HAL_RCCEx_PeriphCLKConfig+0x12a>
 800434e:	4b07      	ldr	r3, [pc, #28]	@ (800436c <HAL_RCCEx_PeriphCLKConfig+0x130>)
 8004350:	f8d3 3090 	ldr.w	r3, [r3, #144]	@ 0x90
 8004354:	f423 7240 	bic.w	r2, r3, #768	@ 0x300
 8004358:	687b      	ldr	r3, [r7, #4]
 800435a:	6cdb      	ldr	r3, [r3, #76]	@ 0x4c
 800435c:	4903      	ldr	r1, [pc, #12]	@ (800436c <HAL_RCCEx_PeriphCLKConfig+0x130>)
 800435e:	4313      	orrs	r3, r2
 8004360:	f8c1 3090 	str.w	r3, [r1, #144]	@ 0x90
 8004364:	e008      	b.n	8004378 <HAL_RCCEx_PeriphCLKConfig+0x13c>
 8004366:	7cfb      	ldrb	r3, [r7, #19]
 8004368:	74bb      	strb	r3, [r7, #18]
 800436a:	e005      	b.n	8004378 <HAL_RCCEx_PeriphCLKConfig+0x13c>
 800436c:	40021000 	.word	0x40021000
 8004370:	40007000 	.word	0x40007000
 8004374:	7cfb      	ldrb	r3, [r7, #19]
 8004376:	74bb      	strb	r3, [r7, #18]
 8004378:	7c7b      	ldrb	r3, [r7, #17]
 800437a:	2b01      	cmp	r3, #1
 800437c:	d105      	bne.n	800438a <HAL_RCCEx_PeriphCLKConfig+0x14e>
 800437e:	4ba7      	ldr	r3, [pc, #668]	@ (800461c <HAL_RCCEx_PeriphCLKConfig+0x3e0>)
 8004380:	6d9b      	ldr	r3, [r3, #88]	@ 0x58
 8004382:	4aa6      	ldr	r2, [pc, #664]	@ (800461c <HAL_RCCEx_PeriphCLKConfig+0x3e0>)
 8004384:	f023 5380 	bic.w	r3, r3, #268435456	@ 0x10000000
 8004388:	6593      	str	r3, [r2, #88]	@ 0x58
 800438a:	687b      	ldr	r3, [r7, #4]
 800438c:	681b      	ldr	r3, [r3, #0]
 800438e:	f003 0301 	and.w	r3, r3, #1
 8004392:	2b00      	cmp	r3, #0
 8004394:	d00a      	beq.n	80043ac <HAL_RCCEx_PeriphCLKConfig+0x170>
 8004396:	4ba1      	ldr	r3, [pc, #644]	@ (800461c <HAL_RCCEx_PeriphCLKConfig+0x3e0>)
 8004398:	f8d3 3088 	ldr.w	r3, [r3, #136]	@ 0x88
 800439c:	f023 0203 	bic.w	r2, r3, #3
 80043a0:	687b      	ldr	r3, [r7, #4]
 80043a2:	685b      	ldr	r3, [r3, #4]
 80043a4:	499d      	ldr	r1, [pc, #628]	@ (800461c <HAL_RCCEx_PeriphCLKConfig+0x3e0>)
 80043a6:	4313      	orrs	r3, r2
 80043a8:	f8c1 3088 	str.w	r3, [r1, #136]	@ 0x88
 80043ac:	687b      	ldr	r3, [r7, #4]
 80043ae:	681b      	ldr	r3, [r3, #0]
 80043b0:	f003 0302 	and.w	r3, r3, #2
 80043b4:	2b00      	cmp	r3, #0
 80043b6:	d00a      	beq.n	80043ce <HAL_RCCEx_PeriphCLKConfig+0x192>
 80043b8:	4b98      	ldr	r3, [pc, #608]	@ (800461c <HAL_RCCEx_PeriphCLKConfig+0x3e0>)
 80043ba:	f8d3 3088 	ldr.w	r3, [r3, #136]	@ 0x88
 80043be:	f023 020c 	bic.w	r2, r3, #12
 80043c2:	687b      	ldr	r3, [r7, #4]
 80043c4:	689b      	ldr	r3, [r3, #8]
 80043c6:	4995      	ldr	r1, [pc, #596]	@ (800461c <HAL_RCCEx_PeriphCLKConfig+0x3e0>)
 80043c8:	4313      	orrs	r3, r2
 80043ca:	f8c1 3088 	str.w	r3, [r1, #136]	@ 0x88
 80043ce:	687b      	ldr	r3, [r7, #4]
 80043d0:	681b      	ldr	r3, [r3, #0]
 80043d2:	f003 0304 	and.w	r3, r3, #4
 80043d6:	2b00      	cmp	r3, #0
 80043d8:	d00a      	beq.n	80043f0 <HAL_RCCEx_PeriphCLKConfig+0x1b4>
 80043da:	4b90      	ldr	r3, [pc, #576]	@ (800461c <HAL_RCCEx_PeriphCLKConfig+0x3e0>)
 80043dc:	f8d3 3088 	ldr.w	r3, [r3, #136]	@ 0x88
 80043e0:	f023 0230 	bic.w	r2, r3, #48	@ 0x30
 80043e4:	687b      	ldr	r3, [r7, #4]
 80043e6:	68db      	ldr	r3, [r3, #12]
 80043e8:	498c      	ldr	r1, [pc, #560]	@ (800461c <HAL_RCCEx_PeriphCLKConfig+0x3e0>)
 80043ea:	4313      	orrs	r3, r2
 80043ec:	f8c1 3088 	str.w	r3, [r1, #136]	@ 0x88
 80043f0:	687b      	ldr	r3, [r7, #4]
 80043f2:	681b      	ldr	r3, [r3, #0]
 80043f4:	f003 0308 	and.w	r3, r3, #8
 80043f8:	2b00      	cmp	r3, #0
 80043fa:	d00a      	beq.n	8004412 <HAL_RCCEx_PeriphCLKConfig+0x1d6>
 80043fc:	4b87      	ldr	r3, [pc, #540]	@ (800461c <HAL_RCCEx_PeriphCLKConfig+0x3e0>)
 80043fe:	f8d3 3088 	ldr.w	r3, [r3, #136]	@ 0x88
 8004402:	f023 02c0 	bic.w	r2, r3, #192	@ 0xc0
 8004406:	687b      	ldr	r3, [r7, #4]
 8004408:	691b      	ldr	r3, [r3, #16]
 800440a:	4984      	ldr	r1, [pc, #528]	@ (800461c <HAL_RCCEx_PeriphCLKConfig+0x3e0>)
 800440c:	4313      	orrs	r3, r2
 800440e:	f8c1 3088 	str.w	r3, [r1, #136]	@ 0x88
 8004412:	687b      	ldr	r3, [r7, #4]
 8004414:	681b      	ldr	r3, [r3, #0]
 8004416:	f003 0310 	and.w	r3, r3, #16
 800441a:	2b00      	cmp	r3, #0
 800441c:	d00a      	beq.n	8004434 <HAL_RCCEx_PeriphCLKConfig+0x1f8>
 800441e:	4b7f      	ldr	r3, [pc, #508]	@ (800461c <HAL_RCCEx_PeriphCLKConfig+0x3e0>)
 8004420:	f8d3 3088 	ldr.w	r3, [r3, #136]	@ 0x88
 8004424:	f423 7240 	bic.w	r2, r3, #768	@ 0x300
 8004428:	687b      	ldr	r3, [r7, #4]
 800442a:	695b      	ldr	r3, [r3, #20]
 800442c:	497b      	ldr	r1, [pc, #492]	@ (800461c <HAL_RCCEx_PeriphCLKConfig+0x3e0>)
 800442e:	4313      	orrs	r3, r2
 8004430:	f8c1 3088 	str.w	r3, [r1, #136]	@ 0x88
 8004434:	687b      	ldr	r3, [r7, #4]
 8004436:	681b      	ldr	r3, [r3, #0]
 8004438:	f003 0320 	and.w	r3, r3, #32
 800443c:	2b00      	cmp	r3, #0
 800443e:	d00a      	beq.n	8004456 <HAL_RCCEx_PeriphCLKConfig+0x21a>
 8004440:	4b76      	ldr	r3, [pc, #472]	@ (800461c <HAL_RCCEx_PeriphCLKConfig+0x3e0>)
 8004442:	f8d3 3088 	ldr.w	r3, [r3, #136]	@ 0x88
 8004446:	f423 6240 	bic.w	r2, r3, #3072	@ 0xc00
 800444a:	687b      	ldr	r3, [r7, #4]
 800444c:	699b      	ldr	r3, [r3, #24]
 800444e:	4973      	ldr	r1, [pc, #460]	@ (800461c <HAL_RCCEx_PeriphCLKConfig+0x3e0>)
 8004450:	4313      	orrs	r3, r2
 8004452:	f8c1 3088 	str.w	r3, [r1, #136]	@ 0x88
 8004456:	687b      	ldr	r3, [r7, #4]
 8004458:	681b      	ldr	r3, [r3, #0]
 800445a:	f003 0340 	and.w	r3, r3, #64	@ 0x40
 800445e:	2b00      	cmp	r3, #0
 8004460:	d00a      	beq.n	8004478 <HAL_RCCEx_PeriphCLKConfig+0x23c>
 8004462:	4b6e      	ldr	r3, [pc, #440]	@ (800461c <HAL_RCCEx_PeriphCLKConfig+0x3e0>)
 8004464:	f8d3 3088 	ldr.w	r3, [r3, #136]	@ 0x88
 8004468:	f423 5240 	bic.w	r2, r3, #12288	@ 0x3000
 800446c:	687b      	ldr	r3, [r7, #4]
 800446e:	69db      	ldr	r3, [r3, #28]
 8004470:	496a      	ldr	r1, [pc, #424]	@ (800461c <HAL_RCCEx_PeriphCLKConfig+0x3e0>)
 8004472:	4313      	orrs	r3, r2
 8004474:	f8c1 3088 	str.w	r3, [r1, #136]	@ 0x88
 8004478:	687b      	ldr	r3, [r7, #4]
 800447a:	681b      	ldr	r3, [r3, #0]
 800447c:	f003 0380 	and.w	r3, r3, #128	@ 0x80
 8004480:	2b00      	cmp	r3, #0
 8004482:	d00a      	beq.n	800449a <HAL_RCCEx_PeriphCLKConfig+0x25e>
 8004484:	4b65      	ldr	r3, [pc, #404]	@ (800461c <HAL_RCCEx_PeriphCLKConfig+0x3e0>)
 8004486:	f8d3 3088 	ldr.w	r3, [r3, #136]	@ 0x88
 800448a:	f423 4240 	bic.w	r2, r3, #49152	@ 0xc000
 800448e:	687b      	ldr	r3, [r7, #4]
 8004490:	6a1b      	ldr	r3, [r3, #32]
 8004492:	4962      	ldr	r1, [pc, #392]	@ (800461c <HAL_RCCEx_PeriphCLKConfig+0x3e0>)
 8004494:	4313      	orrs	r3, r2
 8004496:	f8c1 3088 	str.w	r3, [r1, #136]	@ 0x88
 800449a:	687b      	ldr	r3, [r7, #4]
 800449c:	681b      	ldr	r3, [r3, #0]
 800449e:	f403 7380 	and.w	r3, r3, #256	@ 0x100
 80044a2:	2b00      	cmp	r3, #0
 80044a4:	d00a      	beq.n	80044bc <HAL_RCCEx_PeriphCLKConfig+0x280>
 80044a6:	4b5d      	ldr	r3, [pc, #372]	@ (800461c <HAL_RCCEx_PeriphCLKConfig+0x3e0>)
 80044a8:	f8d3 3088 	ldr.w	r3, [r3, #136]	@ 0x88
 80044ac:	f423 3240 	bic.w	r2, r3, #196608	@ 0x30000
 80044b0:	687b      	ldr	r3, [r7, #4]
 80044b2:	6a5b      	ldr	r3, [r3, #36]	@ 0x24
 80044b4:	4959      	ldr	r1, [pc, #356]	@ (800461c <HAL_RCCEx_PeriphCLKConfig+0x3e0>)
 80044b6:	4313      	orrs	r3, r2
 80044b8:	f8c1 3088 	str.w	r3, [r1, #136]	@ 0x88
 80044bc:	687b      	ldr	r3, [r7, #4]
 80044be:	681b      	ldr	r3, [r3, #0]
 80044c0:	f403 7300 	and.w	r3, r3, #512	@ 0x200
 80044c4:	2b00      	cmp	r3, #0
 80044c6:	d00a      	beq.n	80044de <HAL_RCCEx_PeriphCLKConfig+0x2a2>
 80044c8:	4b54      	ldr	r3, [pc, #336]	@ (800461c <HAL_RCCEx_PeriphCLKConfig+0x3e0>)
 80044ca:	f8d3 3088 	ldr.w	r3, [r3, #136]	@ 0x88
 80044ce:	f423 2240 	bic.w	r2, r3, #786432	@ 0xc0000
 80044d2:	687b      	ldr	r3, [r7, #4]
 80044d4:	6a9b      	ldr	r3, [r3, #40]	@ 0x28
 80044d6:	4951      	ldr	r1, [pc, #324]	@ (800461c <HAL_RCCEx_PeriphCLKConfig+0x3e0>)
 80044d8:	4313      	orrs	r3, r2
 80044da:	f8c1 3088 	str.w	r3, [r1, #136]	@ 0x88
 80044de:	687b      	ldr	r3, [r7, #4]
 80044e0:	681b      	ldr	r3, [r3, #0]
 80044e2:	f403 6380 	and.w	r3, r3, #1024	@ 0x400
 80044e6:	2b00      	cmp	r3, #0
 80044e8:	d015      	beq.n	8004516 <HAL_RCCEx_PeriphCLKConfig+0x2da>
 80044ea:	4b4c      	ldr	r3, [pc, #304]	@ (800461c <HAL_RCCEx_PeriphCLKConfig+0x3e0>)
 80044ec:	f8d3 3088 	ldr.w	r3, [r3, #136]	@ 0x88
 80044f0:	f423 1240 	bic.w	r2, r3, #3145728	@ 0x300000
 80044f4:	687b      	ldr	r3, [r7, #4]
 80044f6:	6adb      	ldr	r3, [r3, #44]	@ 0x2c
 80044f8:	4948      	ldr	r1, [pc, #288]	@ (800461c <HAL_RCCEx_PeriphCLKConfig+0x3e0>)
 80044fa:	4313      	orrs	r3, r2
 80044fc:	f8c1 3088 	str.w	r3, [r1, #136]	@ 0x88
 8004500:	687b      	ldr	r3, [r7, #4]
 8004502:	6adb      	ldr	r3, [r3, #44]	@ 0x2c
 8004504:	f5b3 1f80 	cmp.w	r3, #1048576	@ 0x100000
 8004508:	d105      	bne.n	8004516 <HAL_RCCEx_PeriphCLKConfig+0x2da>
 800450a:	4b44      	ldr	r3, [pc, #272]	@ (800461c <HAL_RCCEx_PeriphCLKConfig+0x3e0>)
 800450c:	68db      	ldr	r3, [r3, #12]
 800450e:	4a43      	ldr	r2, [pc, #268]	@ (800461c <HAL_RCCEx_PeriphCLKConfig+0x3e0>)
 8004510:	f443 1380 	orr.w	r3, r3, #1048576	@ 0x100000
 8004514:	60d3      	str	r3, [r2, #12]
 8004516:	687b      	ldr	r3, [r7, #4]
 8004518:	681b      	ldr	r3, [r3, #0]
 800451a:	f403 6300 	and.w	r3, r3, #2048	@ 0x800
 800451e:	2b00      	cmp	r3, #0
 8004520:	d015      	beq.n	800454e <HAL_RCCEx_PeriphCLKConfig+0x312>
 8004522:	4b3e      	ldr	r3, [pc, #248]	@ (800461c <HAL_RCCEx_PeriphCLKConfig+0x3e0>)
 8004524:	f8d3 3088 	ldr.w	r3, [r3, #136]	@ 0x88
 8004528:	f423 0240 	bic.w	r2, r3, #12582912	@ 0xc00000
 800452c:	687b      	ldr	r3, [r7, #4]
 800452e:	6b1b      	ldr	r3, [r3, #48]	@ 0x30
 8004530:	493a      	ldr	r1, [pc, #232]	@ (800461c <HAL_RCCEx_PeriphCLKConfig+0x3e0>)
 8004532:	4313      	orrs	r3, r2
 8004534:	f8c1 3088 	str.w	r3, [r1, #136]	@ 0x88
 8004538:	687b      	ldr	r3, [r7, #4]
 800453a:	6b1b      	ldr	r3, [r3, #48]	@ 0x30
 800453c:	f5b3 0f80 	cmp.w	r3, #4194304	@ 0x400000
 8004540:	d105      	bne.n	800454e <HAL_RCCEx_PeriphCLKConfig+0x312>
 8004542:	4b36      	ldr	r3, [pc, #216]	@ (800461c <HAL_RCCEx_PeriphCLKConfig+0x3e0>)
 8004544:	68db      	ldr	r3, [r3, #12]
 8004546:	4a35      	ldr	r2, [pc, #212]	@ (800461c <HAL_RCCEx_PeriphCLKConfig+0x3e0>)
 8004548:	f443 1380 	orr.w	r3, r3, #1048576	@ 0x100000
 800454c:	60d3      	str	r3, [r2, #12]
 800454e:	687b      	ldr	r3, [r7, #4]
 8004550:	681b      	ldr	r3, [r3, #0]
 8004552:	f403 5380 	and.w	r3, r3, #4096	@ 0x1000
 8004556:	2b00      	cmp	r3, #0
 8004558:	d015      	beq.n	8004586 <HAL_RCCEx_PeriphCLKConfig+0x34a>
 800455a:	4b30      	ldr	r3, [pc, #192]	@ (800461c <HAL_RCCEx_PeriphCLKConfig+0x3e0>)
 800455c:	f8d3 3088 	ldr.w	r3, [r3, #136]	@ 0x88
 8004560:	f023 7240 	bic.w	r2, r3, #50331648	@ 0x3000000
 8004564:	687b      	ldr	r3, [r7, #4]
 8004566:	6b5b      	ldr	r3, [r3, #52]	@ 0x34
 8004568:	492c      	ldr	r1, [pc, #176]	@ (800461c <HAL_RCCEx_PeriphCLKConfig+0x3e0>)
 800456a:	4313      	orrs	r3, r2
 800456c:	f8c1 3088 	str.w	r3, [r1, #136]	@ 0x88
 8004570:	687b      	ldr	r3, [r7, #4]
 8004572:	6b5b      	ldr	r3, [r3, #52]	@ 0x34
 8004574:	f1b3 7f80 	cmp.w	r3, #16777216	@ 0x1000000
 8004578:	d105      	bne.n	8004586 <HAL_RCCEx_PeriphCLKConfig+0x34a>
 800457a:	4b28      	ldr	r3, [pc, #160]	@ (800461c <HAL_RCCEx_PeriphCLKConfig+0x3e0>)
 800457c:	68db      	ldr	r3, [r3, #12]
 800457e:	4a27      	ldr	r2, [pc, #156]	@ (800461c <HAL_RCCEx_PeriphCLKConfig+0x3e0>)
 8004580:	f443 1380 	orr.w	r3, r3, #1048576	@ 0x100000
 8004584:	60d3      	str	r3, [r2, #12]
 8004586:	687b      	ldr	r3, [r7, #4]
 8004588:	681b      	ldr	r3, [r3, #0]
 800458a:	f403 5300 	and.w	r3, r3, #8192	@ 0x2000
 800458e:	2b00      	cmp	r3, #0
 8004590:	d015      	beq.n	80045be <HAL_RCCEx_PeriphCLKConfig+0x382>
 8004592:	4b22      	ldr	r3, [pc, #136]	@ (800461c <HAL_RCCEx_PeriphCLKConfig+0x3e0>)
 8004594:	f8d3 3088 	ldr.w	r3, [r3, #136]	@ 0x88
 8004598:	f023 6240 	bic.w	r2, r3, #201326592	@ 0xc000000
 800459c:	687b      	ldr	r3, [r7, #4]
 800459e:	6b9b      	ldr	r3, [r3, #56]	@ 0x38
 80045a0:	491e      	ldr	r1, [pc, #120]	@ (800461c <HAL_RCCEx_PeriphCLKConfig+0x3e0>)
 80045a2:	4313      	orrs	r3, r2
 80045a4:	f8c1 3088 	str.w	r3, [r1, #136]	@ 0x88
 80045a8:	687b      	ldr	r3, [r7, #4]
 80045aa:	6b9b      	ldr	r3, [r3, #56]	@ 0x38
 80045ac:	f1b3 6f00 	cmp.w	r3, #134217728	@ 0x8000000
 80045b0:	d105      	bne.n	80045be <HAL_RCCEx_PeriphCLKConfig+0x382>
 80045b2:	4b1a      	ldr	r3, [pc, #104]	@ (800461c <HAL_RCCEx_PeriphCLKConfig+0x3e0>)
 80045b4:	68db      	ldr	r3, [r3, #12]
 80045b6:	4a19      	ldr	r2, [pc, #100]	@ (800461c <HAL_RCCEx_PeriphCLKConfig+0x3e0>)
 80045b8:	f443 1380 	orr.w	r3, r3, #1048576	@ 0x100000
 80045bc:	60d3      	str	r3, [r2, #12]
 80045be:	687b      	ldr	r3, [r7, #4]
 80045c0:	681b      	ldr	r3, [r3, #0]
 80045c2:	f403 4380 	and.w	r3, r3, #16384	@ 0x4000
 80045c6:	2b00      	cmp	r3, #0
 80045c8:	d015      	beq.n	80045f6 <HAL_RCCEx_PeriphCLKConfig+0x3ba>
 80045ca:	4b14      	ldr	r3, [pc, #80]	@ (800461c <HAL_RCCEx_PeriphCLKConfig+0x3e0>)
 80045cc:	f8d3 3088 	ldr.w	r3, [r3, #136]	@ 0x88
 80045d0:	f023 6240 	bic.w	r2, r3, #201326592	@ 0xc000000
 80045d4:	687b      	ldr	r3, [r7, #4]
 80045d6:	6bdb      	ldr	r3, [r3, #60]	@ 0x3c
 80045d8:	4910      	ldr	r1, [pc, #64]	@ (800461c <HAL_RCCEx_PeriphCLKConfig+0x3e0>)
 80045da:	4313      	orrs	r3, r2
 80045dc:	f8c1 3088 	str.w	r3, [r1, #136]	@ 0x88
 80045e0:	687b      	ldr	r3, [r7, #4]
 80045e2:	6bdb      	ldr	r3, [r3, #60]	@ 0x3c
 80045e4:	f1b3 6f00 	cmp.w	r3, #134217728	@ 0x8000000
 80045e8:	d105      	bne.n	80045f6 <HAL_RCCEx_PeriphCLKConfig+0x3ba>
 80045ea:	4b0c      	ldr	r3, [pc, #48]	@ (800461c <HAL_RCCEx_PeriphCLKConfig+0x3e0>)
 80045ec:	68db      	ldr	r3, [r3, #12]
 80045ee:	4a0b      	ldr	r2, [pc, #44]	@ (800461c <HAL_RCCEx_PeriphCLKConfig+0x3e0>)
 80045f0:	f443 1380 	orr.w	r3, r3, #1048576	@ 0x100000
 80045f4:	60d3      	str	r3, [r2, #12]
 80045f6:	687b      	ldr	r3, [r7, #4]
 80045f8:	681b      	ldr	r3, [r3, #0]
 80045fa:	f403 4300 	and.w	r3, r3, #32768	@ 0x8000
 80045fe:	2b00      	cmp	r3, #0
 8004600:	d018      	beq.n	8004634 <HAL_RCCEx_PeriphCLKConfig+0x3f8>
 8004602:	4b06      	ldr	r3, [pc, #24]	@ (800461c <HAL_RCCEx_PeriphCLKConfig+0x3e0>)
 8004604:	f8d3 3088 	ldr.w	r3, [r3, #136]	@ 0x88
 8004608:	f023 5240 	bic.w	r2, r3, #805306368	@ 0x30000000
 800460c:	687b      	ldr	r3, [r7, #4]
 800460e:	6c1b      	ldr	r3, [r3, #64]	@ 0x40
 8004610:	4902      	ldr	r1, [pc, #8]	@ (800461c <HAL_RCCEx_PeriphCLKConfig+0x3e0>)
 8004612:	4313      	orrs	r3, r2
 8004614:	f8c1 3088 	str.w	r3, [r1, #136]	@ 0x88
 8004618:	687b      	ldr	r3, [r7, #4]
 800461a:	e001      	b.n	8004620 <HAL_RCCEx_PeriphCLKConfig+0x3e4>
 800461c:	40021000 	.word	0x40021000
 8004620:	6c1b      	ldr	r3, [r3, #64]	@ 0x40
 8004622:	f1b3 5f80 	cmp.w	r3, #268435456	@ 0x10000000
 8004626:	d105      	bne.n	8004634 <HAL_RCCEx_PeriphCLKConfig+0x3f8>
 8004628:	4b21      	ldr	r3, [pc, #132]	@ (80046b0 <HAL_RCCEx_PeriphCLKConfig+0x474>)
 800462a:	68db      	ldr	r3, [r3, #12]
 800462c:	4a20      	ldr	r2, [pc, #128]	@ (80046b0 <HAL_RCCEx_PeriphCLKConfig+0x474>)
 800462e:	f443 3380 	orr.w	r3, r3, #65536	@ 0x10000
 8004632:	60d3      	str	r3, [r2, #12]
 8004634:	687b      	ldr	r3, [r7, #4]
 8004636:	681b      	ldr	r3, [r3, #0]
 8004638:	f403 3380 	and.w	r3, r3, #65536	@ 0x10000
 800463c:	2b00      	cmp	r3, #0
 800463e:	d015      	beq.n	800466c <HAL_RCCEx_PeriphCLKConfig+0x430>
 8004640:	4b1b      	ldr	r3, [pc, #108]	@ (80046b0 <HAL_RCCEx_PeriphCLKConfig+0x474>)
 8004642:	f8d3 3088 	ldr.w	r3, [r3, #136]	@ 0x88
 8004646:	f023 4240 	bic.w	r2, r3, #3221225472	@ 0xc0000000
 800464a:	687b      	ldr	r3, [r7, #4]
 800464c:	6c5b      	ldr	r3, [r3, #68]	@ 0x44
 800464e:	4918      	ldr	r1, [pc, #96]	@ (80046b0 <HAL_RCCEx_PeriphCLKConfig+0x474>)
 8004650:	4313      	orrs	r3, r2
 8004652:	f8c1 3088 	str.w	r3, [r1, #136]	@ 0x88
 8004656:	687b      	ldr	r3, [r7, #4]
 8004658:	6c5b      	ldr	r3, [r3, #68]	@ 0x44
 800465a:	f1b3 4f80 	cmp.w	r3, #1073741824	@ 0x40000000
 800465e:	d105      	bne.n	800466c <HAL_RCCEx_PeriphCLKConfig+0x430>
 8004660:	4b13      	ldr	r3, [pc, #76]	@ (80046b0 <HAL_RCCEx_PeriphCLKConfig+0x474>)
 8004662:	68db      	ldr	r3, [r3, #12]
 8004664:	4a12      	ldr	r2, [pc, #72]	@ (80046b0 <HAL_RCCEx_PeriphCLKConfig+0x474>)
 8004666:	f443 3380 	orr.w	r3, r3, #65536	@ 0x10000
 800466a:	60d3      	str	r3, [r2, #12]
 800466c:	687b      	ldr	r3, [r7, #4]
 800466e:	681b      	ldr	r3, [r3, #0]
 8004670:	f403 2380 	and.w	r3, r3, #262144	@ 0x40000
 8004674:	2b00      	cmp	r3, #0
 8004676:	d015      	beq.n	80046a4 <HAL_RCCEx_PeriphCLKConfig+0x468>
 8004678:	4b0d      	ldr	r3, [pc, #52]	@ (80046b0 <HAL_RCCEx_PeriphCLKConfig+0x474>)
 800467a:	f8d3 309c 	ldr.w	r3, [r3, #156]	@ 0x9c
 800467e:	f423 1240 	bic.w	r2, r3, #3145728	@ 0x300000
 8004682:	687b      	ldr	r3, [r7, #4]
 8004684:	6c9b      	ldr	r3, [r3, #72]	@ 0x48
 8004686:	490a      	ldr	r1, [pc, #40]	@ (80046b0 <HAL_RCCEx_PeriphCLKConfig+0x474>)
 8004688:	4313      	orrs	r3, r2
 800468a:	f8c1 309c 	str.w	r3, [r1, #156]	@ 0x9c
 800468e:	687b      	ldr	r3, [r7, #4]
 8004690:	6c9b      	ldr	r3, [r3, #72]	@ 0x48
 8004692:	f5b3 1f00 	cmp.w	r3, #2097152	@ 0x200000
 8004696:	d105      	bne.n	80046a4 <HAL_RCCEx_PeriphCLKConfig+0x468>
 8004698:	4b05      	ldr	r3, [pc, #20]	@ (80046b0 <HAL_RCCEx_PeriphCLKConfig+0x474>)
 800469a:	68db      	ldr	r3, [r3, #12]
 800469c:	4a04      	ldr	r2, [pc, #16]	@ (80046b0 <HAL_RCCEx_PeriphCLKConfig+0x474>)
 800469e:	f443 1380 	orr.w	r3, r3, #1048576	@ 0x100000
 80046a2:	60d3      	str	r3, [r2, #12]
 80046a4:	7cbb      	ldrb	r3, [r7, #18]
 80046a6:	4618      	mov	r0, r3
 80046a8:	3718      	adds	r7, #24
 80046aa:	46bd      	mov	sp, r7
 80046ac:	bd80      	pop	{r7, pc}
 80046ae:	bf00      	nop
 80046b0:	40021000 	.word	0x40021000

080046b4 <HAL_UART_Init>:
 80046b4:	b580      	push	{r7, lr}
 80046b6:	b082      	sub	sp, #8
 80046b8:	af00      	add	r7, sp, #0
 80046ba:	6078      	str	r0, [r7, #4]
 80046bc:	687b      	ldr	r3, [r7, #4]
 80046be:	2b00      	cmp	r3, #0
 80046c0:	d101      	bne.n	80046c6 <HAL_UART_Init+0x12>
 80046c2:	2301      	movs	r3, #1
 80046c4:	e042      	b.n	800474c <HAL_UART_Init+0x98>
 80046c6:	687b      	ldr	r3, [r7, #4]
 80046c8:	f8d3 3088 	ldr.w	r3, [r3, #136]	@ 0x88
 80046cc:	2b00      	cmp	r3, #0
 80046ce:	d106      	bne.n	80046de <HAL_UART_Init+0x2a>
 80046d0:	687b      	ldr	r3, [r7, #4]
 80046d2:	2200      	movs	r2, #0
 80046d4:	f883 2084 	strb.w	r2, [r3, #132]	@ 0x84
 80046d8:	6878      	ldr	r0, [r7, #4]
 80046da:	f7fc ff2d 	bl	8001538 <HAL_UART_MspInit>
 80046de:	687b      	ldr	r3, [r7, #4]
 80046e0:	2224      	movs	r2, #36	@ 0x24
 80046e2:	f8c3 2088 	str.w	r2, [r3, #136]	@ 0x88
 80046e6:	687b      	ldr	r3, [r7, #4]
 80046e8:	681b      	ldr	r3, [r3, #0]
 80046ea:	681a      	ldr	r2, [r3, #0]
 80046ec:	687b      	ldr	r3, [r7, #4]
 80046ee:	681b      	ldr	r3, [r3, #0]
 80046f0:	f022 0201 	bic.w	r2, r2, #1
 80046f4:	601a      	str	r2, [r3, #0]
 80046f6:	687b      	ldr	r3, [r7, #4]
 80046f8:	6a9b      	ldr	r3, [r3, #40]	@ 0x28
 80046fa:	2b00      	cmp	r3, #0
 80046fc:	d002      	beq.n	8004704 <HAL_UART_Init+0x50>
 80046fe:	6878      	ldr	r0, [r7, #4]
 8004700:	f000 fbbe 	bl	8004e80 <UART_AdvFeatureConfig>
 8004704:	6878      	ldr	r0, [r7, #4]
 8004706:	f000 f8bf 	bl	8004888 <UART_SetConfig>
 800470a:	4603      	mov	r3, r0
 800470c:	2b01      	cmp	r3, #1
 800470e:	d101      	bne.n	8004714 <HAL_UART_Init+0x60>
 8004710:	2301      	movs	r3, #1
 8004712:	e01b      	b.n	800474c <HAL_UART_Init+0x98>
 8004714:	687b      	ldr	r3, [r7, #4]
 8004716:	681b      	ldr	r3, [r3, #0]
 8004718:	685a      	ldr	r2, [r3, #4]
 800471a:	687b      	ldr	r3, [r7, #4]
 800471c:	681b      	ldr	r3, [r3, #0]
 800471e:	f422 4290 	bic.w	r2, r2, #18432	@ 0x4800
 8004722:	605a      	str	r2, [r3, #4]
 8004724:	687b      	ldr	r3, [r7, #4]
 8004726:	681b      	ldr	r3, [r3, #0]
 8004728:	689a      	ldr	r2, [r3, #8]
 800472a:	687b      	ldr	r3, [r7, #4]
 800472c:	681b      	ldr	r3, [r3, #0]
 800472e:	f022 022a 	bic.w	r2, r2, #42	@ 0x2a
 8004732:	609a      	str	r2, [r3, #8]
 8004734:	687b      	ldr	r3, [r7, #4]
 8004736:	681b      	ldr	r3, [r3, #0]
 8004738:	681a      	ldr	r2, [r3, #0]
 800473a:	687b      	ldr	r3, [r7, #4]
 800473c:	681b      	ldr	r3, [r3, #0]
 800473e:	f042 0201 	orr.w	r2, r2, #1
 8004742:	601a      	str	r2, [r3, #0]
 8004744:	6878      	ldr	r0, [r7, #4]
 8004746:	f000 fc3d 	bl	8004fc4 <UART_CheckIdleState>
 800474a:	4603      	mov	r3, r0
 800474c:	4618      	mov	r0, r3
 800474e:	3708      	adds	r7, #8
 8004750:	46bd      	mov	sp, r7
 8004752:	bd80      	pop	{r7, pc}

08004754 <HAL_UART_Transmit>:
 8004754:	b580      	push	{r7, lr}
 8004756:	b08a      	sub	sp, #40	@ 0x28
 8004758:	af02      	add	r7, sp, #8
 800475a:	60f8      	str	r0, [r7, #12]
 800475c:	60b9      	str	r1, [r7, #8]
 800475e:	603b      	str	r3, [r7, #0]
 8004760:	4613      	mov	r3, r2
 8004762:	80fb      	strh	r3, [r7, #6]
 8004764:	68fb      	ldr	r3, [r7, #12]
 8004766:	f8d3 3088 	ldr.w	r3, [r3, #136]	@ 0x88
 800476a:	2b20      	cmp	r3, #32
 800476c:	f040 8086 	bne.w	800487c <HAL_UART_Transmit+0x128>
 8004770:	68bb      	ldr	r3, [r7, #8]
 8004772:	2b00      	cmp	r3, #0
 8004774:	d002      	beq.n	800477c <HAL_UART_Transmit+0x28>
 8004776:	88fb      	ldrh	r3, [r7, #6]
 8004778:	2b00      	cmp	r3, #0
 800477a:	d101      	bne.n	8004780 <HAL_UART_Transmit+0x2c>
 800477c:	2301      	movs	r3, #1
 800477e:	e07e      	b.n	800487e <HAL_UART_Transmit+0x12a>
 8004780:	68fb      	ldr	r3, [r7, #12]
 8004782:	2200      	movs	r2, #0
 8004784:	f8c3 2090 	str.w	r2, [r3, #144]	@ 0x90
 8004788:	68fb      	ldr	r3, [r7, #12]
 800478a:	2221      	movs	r2, #33	@ 0x21
 800478c:	f8c3 2088 	str.w	r2, [r3, #136]	@ 0x88
 8004790:	f7fd f8d4 	bl	800193c <HAL_GetTick>
 8004794:	6178      	str	r0, [r7, #20]
 8004796:	68fb      	ldr	r3, [r7, #12]
 8004798:	88fa      	ldrh	r2, [r7, #6]
 800479a:	f8a3 2054 	strh.w	r2, [r3, #84]	@ 0x54
 800479e:	68fb      	ldr	r3, [r7, #12]
 80047a0:	88fa      	ldrh	r2, [r7, #6]
 80047a2:	f8a3 2056 	strh.w	r2, [r3, #86]	@ 0x56
 80047a6:	68fb      	ldr	r3, [r7, #12]
 80047a8:	689b      	ldr	r3, [r3, #8]
 80047aa:	f5b3 5f80 	cmp.w	r3, #4096	@ 0x1000
 80047ae:	d108      	bne.n	80047c2 <HAL_UART_Transmit+0x6e>
 80047b0:	68fb      	ldr	r3, [r7, #12]
 80047b2:	691b      	ldr	r3, [r3, #16]
 80047b4:	2b00      	cmp	r3, #0
 80047b6:	d104      	bne.n	80047c2 <HAL_UART_Transmit+0x6e>
 80047b8:	2300      	movs	r3, #0
 80047ba:	61fb      	str	r3, [r7, #28]
 80047bc:	68bb      	ldr	r3, [r7, #8]
 80047be:	61bb      	str	r3, [r7, #24]
 80047c0:	e003      	b.n	80047ca <HAL_UART_Transmit+0x76>
 80047c2:	68bb      	ldr	r3, [r7, #8]
 80047c4:	61fb      	str	r3, [r7, #28]
 80047c6:	2300      	movs	r3, #0
 80047c8:	61bb      	str	r3, [r7, #24]
 80047ca:	e03a      	b.n	8004842 <HAL_UART_Transmit+0xee>
 80047cc:	683b      	ldr	r3, [r7, #0]
 80047ce:	9300      	str	r3, [sp, #0]
 80047d0:	697b      	ldr	r3, [r7, #20]
 80047d2:	2200      	movs	r2, #0
 80047d4:	2180      	movs	r1, #128	@ 0x80
 80047d6:	68f8      	ldr	r0, [r7, #12]
 80047d8:	f000 fc9e 	bl	8005118 <UART_WaitOnFlagUntilTimeout>
 80047dc:	4603      	mov	r3, r0
 80047de:	2b00      	cmp	r3, #0
 80047e0:	d005      	beq.n	80047ee <HAL_UART_Transmit+0x9a>
 80047e2:	68fb      	ldr	r3, [r7, #12]
 80047e4:	2220      	movs	r2, #32
 80047e6:	f8c3 2088 	str.w	r2, [r3, #136]	@ 0x88
 80047ea:	2303      	movs	r3, #3
 80047ec:	e047      	b.n	800487e <HAL_UART_Transmit+0x12a>
 80047ee:	69fb      	ldr	r3, [r7, #28]
 80047f0:	2b00      	cmp	r3, #0
 80047f2:	d10b      	bne.n	800480c <HAL_UART_Transmit+0xb8>
 80047f4:	69bb      	ldr	r3, [r7, #24]
 80047f6:	881b      	ldrh	r3, [r3, #0]
 80047f8:	461a      	mov	r2, r3
 80047fa:	68fb      	ldr	r3, [r7, #12]
 80047fc:	681b      	ldr	r3, [r3, #0]
 80047fe:	f3c2 0208 	ubfx	r2, r2, #0, #9
 8004802:	629a      	str	r2, [r3, #40]	@ 0x28
 8004804:	69bb      	ldr	r3, [r7, #24]
 8004806:	3302      	adds	r3, #2
 8004808:	61bb      	str	r3, [r7, #24]
 800480a:	e007      	b.n	800481c <HAL_UART_Transmit+0xc8>
 800480c:	69fb      	ldr	r3, [r7, #28]
 800480e:	781a      	ldrb	r2, [r3, #0]
 8004810:	68fb      	ldr	r3, [r7, #12]
 8004812:	681b      	ldr	r3, [r3, #0]
 8004814:	629a      	str	r2, [r3, #40]	@ 0x28
 8004816:	69fb      	ldr	r3, [r7, #28]
 8004818:	3301      	adds	r3, #1
 800481a:	61fb      	str	r3, [r7, #28]
 800481c:	68fb      	ldr	r3, [r7, #12]
 800481e:	f8d3 3088 	ldr.w	r3, [r3, #136]	@ 0x88
 8004822:	f003 0321 	and.w	r3, r3, #33	@ 0x21
 8004826:	2b21      	cmp	r3, #33	@ 0x21
 8004828:	d109      	bne.n	800483e <HAL_UART_Transmit+0xea>
 800482a:	68fb      	ldr	r3, [r7, #12]
 800482c:	f8b3 3056 	ldrh.w	r3, [r3, #86]	@ 0x56
 8004830:	b29b      	uxth	r3, r3
 8004832:	3b01      	subs	r3, #1
 8004834:	b29a      	uxth	r2, r3
 8004836:	68fb      	ldr	r3, [r7, #12]
 8004838:	f8a3 2056 	strh.w	r2, [r3, #86]	@ 0x56
 800483c:	e001      	b.n	8004842 <HAL_UART_Transmit+0xee>
 800483e:	2301      	movs	r3, #1
 8004840:	e01d      	b.n	800487e <HAL_UART_Transmit+0x12a>
 8004842:	68fb      	ldr	r3, [r7, #12]
 8004844:	f8b3 3056 	ldrh.w	r3, [r3, #86]	@ 0x56
 8004848:	b29b      	uxth	r3, r3
 800484a:	2b00      	cmp	r3, #0
 800484c:	d1be      	bne.n	80047cc <HAL_UART_Transmit+0x78>
 800484e:	683b      	ldr	r3, [r7, #0]
 8004850:	9300      	str	r3, [sp, #0]
 8004852:	697b      	ldr	r3, [r7, #20]
 8004854:	2200      	movs	r2, #0
 8004856:	2140      	movs	r1, #64	@ 0x40
 8004858:	68f8      	ldr	r0, [r7, #12]
 800485a:	f000 fc5d 	bl	8005118 <UART_WaitOnFlagUntilTimeout>
 800485e:	4603      	mov	r3, r0
 8004860:	2b00      	cmp	r3, #0
 8004862:	d005      	beq.n	8004870 <HAL_UART_Transmit+0x11c>
 8004864:	68fb      	ldr	r3, [r7, #12]
 8004866:	2220      	movs	r2, #32
 8004868:	f8c3 2088 	str.w	r2, [r3, #136]	@ 0x88
 800486c:	2303      	movs	r3, #3
 800486e:	e006      	b.n	800487e <HAL_UART_Transmit+0x12a>
 8004870:	68fb      	ldr	r3, [r7, #12]
 8004872:	2220      	movs	r2, #32
 8004874:	f8c3 2088 	str.w	r2, [r3, #136]	@ 0x88
 8004878:	2300      	movs	r3, #0
 800487a:	e000      	b.n	800487e <HAL_UART_Transmit+0x12a>
 800487c:	2302      	movs	r3, #2
 800487e:	4618      	mov	r0, r3
 8004880:	3720      	adds	r7, #32
 8004882:	46bd      	mov	sp, r7
 8004884:	bd80      	pop	{r7, pc}
	...

08004888 <UART_SetConfig>:
 8004888:	e92d 4fb0 	stmdb	sp!, {r4, r5, r7, r8, r9, sl, fp, lr}
 800488c:	b08c      	sub	sp, #48	@ 0x30
 800488e:	af00      	add	r7, sp, #0
 8004890:	6178      	str	r0, [r7, #20]
 8004892:	2300      	movs	r3, #0
 8004894:	f887 302a 	strb.w	r3, [r7, #42]	@ 0x2a
 8004898:	697b      	ldr	r3, [r7, #20]
 800489a:	689a      	ldr	r2, [r3, #8]
 800489c:	697b      	ldr	r3, [r7, #20]
 800489e:	691b      	ldr	r3, [r3, #16]
 80048a0:	431a      	orrs	r2, r3
 80048a2:	697b      	ldr	r3, [r7, #20]
 80048a4:	695b      	ldr	r3, [r3, #20]
 80048a6:	431a      	orrs	r2, r3
 80048a8:	697b      	ldr	r3, [r7, #20]
 80048aa:	69db      	ldr	r3, [r3, #28]
 80048ac:	4313      	orrs	r3, r2
 80048ae:	62fb      	str	r3, [r7, #44]	@ 0x2c
 80048b0:	697b      	ldr	r3, [r7, #20]
 80048b2:	681b      	ldr	r3, [r3, #0]
 80048b4:	681a      	ldr	r2, [r3, #0]
 80048b6:	4baa      	ldr	r3, [pc, #680]	@ (8004b60 <UART_SetConfig+0x2d8>)
 80048b8:	4013      	ands	r3, r2
 80048ba:	697a      	ldr	r2, [r7, #20]
 80048bc:	6812      	ldr	r2, [r2, #0]
 80048be:	6af9      	ldr	r1, [r7, #44]	@ 0x2c
 80048c0:	430b      	orrs	r3, r1
 80048c2:	6013      	str	r3, [r2, #0]
 80048c4:	697b      	ldr	r3, [r7, #20]
 80048c6:	681b      	ldr	r3, [r3, #0]
 80048c8:	685b      	ldr	r3, [r3, #4]
 80048ca:	f423 5140 	bic.w	r1, r3, #12288	@ 0x3000
 80048ce:	697b      	ldr	r3, [r7, #20]
 80048d0:	68da      	ldr	r2, [r3, #12]
 80048d2:	697b      	ldr	r3, [r7, #20]
 80048d4:	681b      	ldr	r3, [r3, #0]
 80048d6:	430a      	orrs	r2, r1
 80048d8:	605a      	str	r2, [r3, #4]
 80048da:	697b      	ldr	r3, [r7, #20]
 80048dc:	699b      	ldr	r3, [r3, #24]
 80048de:	62fb      	str	r3, [r7, #44]	@ 0x2c
 80048e0:	697b      	ldr	r3, [r7, #20]
 80048e2:	681b      	ldr	r3, [r3, #0]
 80048e4:	4a9f      	ldr	r2, [pc, #636]	@ (8004b64 <UART_SetConfig+0x2dc>)
 80048e6:	4293      	cmp	r3, r2
 80048e8:	d004      	beq.n	80048f4 <UART_SetConfig+0x6c>
 80048ea:	697b      	ldr	r3, [r7, #20]
 80048ec:	6a1b      	ldr	r3, [r3, #32]
 80048ee:	6afa      	ldr	r2, [r7, #44]	@ 0x2c
 80048f0:	4313      	orrs	r3, r2
 80048f2:	62fb      	str	r3, [r7, #44]	@ 0x2c
 80048f4:	697b      	ldr	r3, [r7, #20]
 80048f6:	681b      	ldr	r3, [r3, #0]
 80048f8:	689b      	ldr	r3, [r3, #8]
 80048fa:	f023 436e 	bic.w	r3, r3, #3992977408	@ 0xee000000
 80048fe:	f423 6330 	bic.w	r3, r3, #2816	@ 0xb00
 8004902:	697a      	ldr	r2, [r7, #20]
 8004904:	6812      	ldr	r2, [r2, #0]
 8004906:	6af9      	ldr	r1, [r7, #44]	@ 0x2c
 8004908:	430b      	orrs	r3, r1
 800490a:	6093      	str	r3, [r2, #8]
 800490c:	697b      	ldr	r3, [r7, #20]
 800490e:	681b      	ldr	r3, [r3, #0]
 8004910:	6adb      	ldr	r3, [r3, #44]	@ 0x2c
 8004912:	f023 010f 	bic.w	r1, r3, #15
 8004916:	697b      	ldr	r3, [r7, #20]
 8004918:	6a5a      	ldr	r2, [r3, #36]	@ 0x24
 800491a:	697b      	ldr	r3, [r7, #20]
 800491c:	681b      	ldr	r3, [r3, #0]
 800491e:	430a      	orrs	r2, r1
 8004920:	62da      	str	r2, [r3, #44]	@ 0x2c
 8004922:	697b      	ldr	r3, [r7, #20]
 8004924:	681b      	ldr	r3, [r3, #0]
 8004926:	4a90      	ldr	r2, [pc, #576]	@ (8004b68 <UART_SetConfig+0x2e0>)
 8004928:	4293      	cmp	r3, r2
 800492a:	d125      	bne.n	8004978 <UART_SetConfig+0xf0>
 800492c:	4b8f      	ldr	r3, [pc, #572]	@ (8004b6c <UART_SetConfig+0x2e4>)
 800492e:	f8d3 3088 	ldr.w	r3, [r3, #136]	@ 0x88
 8004932:	f003 0303 	and.w	r3, r3, #3
 8004936:	2b03      	cmp	r3, #3
 8004938:	d81a      	bhi.n	8004970 <UART_SetConfig+0xe8>
 800493a:	a201      	add	r2, pc, #4	@ (adr r2, 8004940 <UART_SetConfig+0xb8>)
 800493c:	f852 f023 	ldr.w	pc, [r2, r3, lsl #2]
 8004940:	08004951 	.word	0x08004951
 8004944:	08004961 	.word	0x08004961
 8004948:	08004959 	.word	0x08004959
 800494c:	08004969 	.word	0x08004969
 8004950:	2301      	movs	r3, #1
 8004952:	f887 302b 	strb.w	r3, [r7, #43]	@ 0x2b
 8004956:	e116      	b.n	8004b86 <UART_SetConfig+0x2fe>
 8004958:	2302      	movs	r3, #2
 800495a:	f887 302b 	strb.w	r3, [r7, #43]	@ 0x2b
 800495e:	e112      	b.n	8004b86 <UART_SetConfig+0x2fe>
 8004960:	2304      	movs	r3, #4
 8004962:	f887 302b 	strb.w	r3, [r7, #43]	@ 0x2b
 8004966:	e10e      	b.n	8004b86 <UART_SetConfig+0x2fe>
 8004968:	2308      	movs	r3, #8
 800496a:	f887 302b 	strb.w	r3, [r7, #43]	@ 0x2b
 800496e:	e10a      	b.n	8004b86 <UART_SetConfig+0x2fe>
 8004970:	2310      	movs	r3, #16
 8004972:	f887 302b 	strb.w	r3, [r7, #43]	@ 0x2b
 8004976:	e106      	b.n	8004b86 <UART_SetConfig+0x2fe>
 8004978:	697b      	ldr	r3, [r7, #20]
 800497a:	681b      	ldr	r3, [r3, #0]
 800497c:	4a7c      	ldr	r2, [pc, #496]	@ (8004b70 <UART_SetConfig+0x2e8>)
 800497e:	4293      	cmp	r3, r2
 8004980:	d138      	bne.n	80049f4 <UART_SetConfig+0x16c>
 8004982:	4b7a      	ldr	r3, [pc, #488]	@ (8004b6c <UART_SetConfig+0x2e4>)
 8004984:	f8d3 3088 	ldr.w	r3, [r3, #136]	@ 0x88
 8004988:	f003 030c 	and.w	r3, r3, #12
 800498c:	2b0c      	cmp	r3, #12
 800498e:	d82d      	bhi.n	80049ec <UART_SetConfig+0x164>
 8004990:	a201      	add	r2, pc, #4	@ (adr r2, 8004998 <UART_SetConfig+0x110>)
 8004992:	f852 f023 	ldr.w	pc, [r2, r3, lsl #2]
 8004996:	bf00      	nop
 8004998:	080049cd 	.word	0x080049cd
 800499c:	080049ed 	.word	0x080049ed
 80049a0:	080049ed 	.word	0x080049ed
 80049a4:	080049ed 	.word	0x080049ed
 80049a8:	080049dd 	.word	0x080049dd
 80049ac:	080049ed 	.word	0x080049ed
 80049b0:	080049ed 	.word	0x080049ed
 80049b4:	080049ed 	.word	0x080049ed
 80049b8:	080049d5 	.word	0x080049d5
 80049bc:	080049ed 	.word	0x080049ed
 80049c0:	080049ed 	.word	0x080049ed
 80049c4:	080049ed 	.word	0x080049ed
 80049c8:	080049e5 	.word	0x080049e5
 80049cc:	2300      	movs	r3, #0
 80049ce:	f887 302b 	strb.w	r3, [r7, #43]	@ 0x2b
 80049d2:	e0d8      	b.n	8004b86 <UART_SetConfig+0x2fe>
 80049d4:	2302      	movs	r3, #2
 80049d6:	f887 302b 	strb.w	r3, [r7, #43]	@ 0x2b
 80049da:	e0d4      	b.n	8004b86 <UART_SetConfig+0x2fe>
 80049dc:	2304      	movs	r3, #4
 80049de:	f887 302b 	strb.w	r3, [r7, #43]	@ 0x2b
 80049e2:	e0d0      	b.n	8004b86 <UART_SetConfig+0x2fe>
 80049e4:	2308      	movs	r3, #8
 80049e6:	f887 302b 	strb.w	r3, [r7, #43]	@ 0x2b
 80049ea:	e0cc      	b.n	8004b86 <UART_SetConfig+0x2fe>
 80049ec:	2310      	movs	r3, #16
 80049ee:	f887 302b 	strb.w	r3, [r7, #43]	@ 0x2b
 80049f2:	e0c8      	b.n	8004b86 <UART_SetConfig+0x2fe>
 80049f4:	697b      	ldr	r3, [r7, #20]
 80049f6:	681b      	ldr	r3, [r3, #0]
 80049f8:	4a5e      	ldr	r2, [pc, #376]	@ (8004b74 <UART_SetConfig+0x2ec>)
 80049fa:	4293      	cmp	r3, r2
 80049fc:	d125      	bne.n	8004a4a <UART_SetConfig+0x1c2>
 80049fe:	4b5b      	ldr	r3, [pc, #364]	@ (8004b6c <UART_SetConfig+0x2e4>)
 8004a00:	f8d3 3088 	ldr.w	r3, [r3, #136]	@ 0x88
 8004a04:	f003 0330 	and.w	r3, r3, #48	@ 0x30
 8004a08:	2b30      	cmp	r3, #48	@ 0x30
 8004a0a:	d016      	beq.n	8004a3a <UART_SetConfig+0x1b2>
 8004a0c:	2b30      	cmp	r3, #48	@ 0x30
 8004a0e:	d818      	bhi.n	8004a42 <UART_SetConfig+0x1ba>
 8004a10:	2b20      	cmp	r3, #32
 8004a12:	d00a      	beq.n	8004a2a <UART_SetConfig+0x1a2>
 8004a14:	2b20      	cmp	r3, #32
 8004a16:	d814      	bhi.n	8004a42 <UART_SetConfig+0x1ba>
 8004a18:	2b00      	cmp	r3, #0
 8004a1a:	d002      	beq.n	8004a22 <UART_SetConfig+0x19a>
 8004a1c:	2b10      	cmp	r3, #16
 8004a1e:	d008      	beq.n	8004a32 <UART_SetConfig+0x1aa>
 8004a20:	e00f      	b.n	8004a42 <UART_SetConfig+0x1ba>
 8004a22:	2300      	movs	r3, #0
 8004a24:	f887 302b 	strb.w	r3, [r7, #43]	@ 0x2b
 8004a28:	e0ad      	b.n	8004b86 <UART_SetConfig+0x2fe>
 8004a2a:	2302      	movs	r3, #2
 8004a2c:	f887 302b 	strb.w	r3, [r7, #43]	@ 0x2b
 8004a30:	e0a9      	b.n	8004b86 <UART_SetConfig+0x2fe>
 8004a32:	2304      	movs	r3, #4
 8004a34:	f887 302b 	strb.w	r3, [r7, #43]	@ 0x2b
 8004a38:	e0a5      	b.n	8004b86 <UART_SetConfig+0x2fe>
 8004a3a:	2308      	movs	r3, #8
 8004a3c:	f887 302b 	strb.w	r3, [r7, #43]	@ 0x2b
 8004a40:	e0a1      	b.n	8004b86 <UART_SetConfig+0x2fe>
 8004a42:	2310      	movs	r3, #16
 8004a44:	f887 302b 	strb.w	r3, [r7, #43]	@ 0x2b
 8004a48:	e09d      	b.n	8004b86 <UART_SetConfig+0x2fe>
 8004a4a:	697b      	ldr	r3, [r7, #20]
 8004a4c:	681b      	ldr	r3, [r3, #0]
 8004a4e:	4a4a      	ldr	r2, [pc, #296]	@ (8004b78 <UART_SetConfig+0x2f0>)
 8004a50:	4293      	cmp	r3, r2
 8004a52:	d125      	bne.n	8004aa0 <UART_SetConfig+0x218>
 8004a54:	4b45      	ldr	r3, [pc, #276]	@ (8004b6c <UART_SetConfig+0x2e4>)
 8004a56:	f8d3 3088 	ldr.w	r3, [r3, #136]	@ 0x88
 8004a5a:	f003 03c0 	and.w	r3, r3, #192	@ 0xc0
 8004a5e:	2bc0      	cmp	r3, #192	@ 0xc0
 8004a60:	d016      	beq.n	8004a90 <UART_SetConfig+0x208>
 8004a62:	2bc0      	cmp	r3, #192	@ 0xc0
 8004a64:	d818      	bhi.n	8004a98 <UART_SetConfig+0x210>
 8004a66:	2b80      	cmp	r3, #128	@ 0x80
 8004a68:	d00a      	beq.n	8004a80 <UART_SetConfig+0x1f8>
 8004a6a:	2b80      	cmp	r3, #128	@ 0x80
 8004a6c:	d814      	bhi.n	8004a98 <UART_SetConfig+0x210>
 8004a6e:	2b00      	cmp	r3, #0
 8004a70:	d002      	beq.n	8004a78 <UART_SetConfig+0x1f0>
 8004a72:	2b40      	cmp	r3, #64	@ 0x40
 8004a74:	d008      	beq.n	8004a88 <UART_SetConfig+0x200>
 8004a76:	e00f      	b.n	8004a98 <UART_SetConfig+0x210>
 8004a78:	2300      	movs	r3, #0
 8004a7a:	f887 302b 	strb.w	r3, [r7, #43]	@ 0x2b
 8004a7e:	e082      	b.n	8004b86 <UART_SetConfig+0x2fe>
 8004a80:	2302      	movs	r3, #2
 8004a82:	f887 302b 	strb.w	r3, [r7, #43]	@ 0x2b
 8004a86:	e07e      	b.n	8004b86 <UART_SetConfig+0x2fe>
 8004a88:	2304      	movs	r3, #4
 8004a8a:	f887 302b 	strb.w	r3, [r7, #43]	@ 0x2b
 8004a8e:	e07a      	b.n	8004b86 <UART_SetConfig+0x2fe>
 8004a90:	2308      	movs	r3, #8
 8004a92:	f887 302b 	strb.w	r3, [r7, #43]	@ 0x2b
 8004a96:	e076      	b.n	8004b86 <UART_SetConfig+0x2fe>
 8004a98:	2310      	movs	r3, #16
 8004a9a:	f887 302b 	strb.w	r3, [r7, #43]	@ 0x2b
 8004a9e:	e072      	b.n	8004b86 <UART_SetConfig+0x2fe>
 8004aa0:	697b      	ldr	r3, [r7, #20]
 8004aa2:	681b      	ldr	r3, [r3, #0]
 8004aa4:	4a35      	ldr	r2, [pc, #212]	@ (8004b7c <UART_SetConfig+0x2f4>)
 8004aa6:	4293      	cmp	r3, r2
 8004aa8:	d12a      	bne.n	8004b00 <UART_SetConfig+0x278>
 8004aaa:	4b30      	ldr	r3, [pc, #192]	@ (8004b6c <UART_SetConfig+0x2e4>)
 8004aac:	f8d3 3088 	ldr.w	r3, [r3, #136]	@ 0x88
 8004ab0:	f403 7340 	and.w	r3, r3, #768	@ 0x300
 8004ab4:	f5b3 7f40 	cmp.w	r3, #768	@ 0x300
 8004ab8:	d01a      	beq.n	8004af0 <UART_SetConfig+0x268>
 8004aba:	f5b3 7f40 	cmp.w	r3, #768	@ 0x300
 8004abe:	d81b      	bhi.n	8004af8 <UART_SetConfig+0x270>
 8004ac0:	f5b3 7f00 	cmp.w	r3, #512	@ 0x200
 8004ac4:	d00c      	beq.n	8004ae0 <UART_SetConfig+0x258>
 8004ac6:	f5b3 7f00 	cmp.w	r3, #512	@ 0x200
 8004aca:	d815      	bhi.n	8004af8 <UART_SetConfig+0x270>
 8004acc:	2b00      	cmp	r3, #0
 8004ace:	d003      	beq.n	8004ad8 <UART_SetConfig+0x250>
 8004ad0:	f5b3 7f80 	cmp.w	r3, #256	@ 0x100
 8004ad4:	d008      	beq.n	8004ae8 <UART_SetConfig+0x260>
 8004ad6:	e00f      	b.n	8004af8 <UART_SetConfig+0x270>
 8004ad8:	2300      	movs	r3, #0
 8004ada:	f887 302b 	strb.w	r3, [r7, #43]	@ 0x2b
 8004ade:	e052      	b.n	8004b86 <UART_SetConfig+0x2fe>
 8004ae0:	2302      	movs	r3, #2
 8004ae2:	f887 302b 	strb.w	r3, [r7, #43]	@ 0x2b
 8004ae6:	e04e      	b.n	8004b86 <UART_SetConfig+0x2fe>
 8004ae8:	2304      	movs	r3, #4
 8004aea:	f887 302b 	strb.w	r3, [r7, #43]	@ 0x2b
 8004aee:	e04a      	b.n	8004b86 <UART_SetConfig+0x2fe>
 8004af0:	2308      	movs	r3, #8
 8004af2:	f887 302b 	strb.w	r3, [r7, #43]	@ 0x2b
 8004af6:	e046      	b.n	8004b86 <UART_SetConfig+0x2fe>
 8004af8:	2310      	movs	r3, #16
 8004afa:	f887 302b 	strb.w	r3, [r7, #43]	@ 0x2b
 8004afe:	e042      	b.n	8004b86 <UART_SetConfig+0x2fe>
 8004b00:	697b      	ldr	r3, [r7, #20]
 8004b02:	681b      	ldr	r3, [r3, #0]
 8004b04:	4a17      	ldr	r2, [pc, #92]	@ (8004b64 <UART_SetConfig+0x2dc>)
 8004b06:	4293      	cmp	r3, r2
 8004b08:	d13a      	bne.n	8004b80 <UART_SetConfig+0x2f8>
 8004b0a:	4b18      	ldr	r3, [pc, #96]	@ (8004b6c <UART_SetConfig+0x2e4>)
 8004b0c:	f8d3 3088 	ldr.w	r3, [r3, #136]	@ 0x88
 8004b10:	f403 6340 	and.w	r3, r3, #3072	@ 0xc00
 8004b14:	f5b3 6f40 	cmp.w	r3, #3072	@ 0xc00
 8004b18:	d01a      	beq.n	8004b50 <UART_SetConfig+0x2c8>
 8004b1a:	f5b3 6f40 	cmp.w	r3, #3072	@ 0xc00
 8004b1e:	d81b      	bhi.n	8004b58 <UART_SetConfig+0x2d0>
 8004b20:	f5b3 6f00 	cmp.w	r3, #2048	@ 0x800
 8004b24:	d00c      	beq.n	8004b40 <UART_SetConfig+0x2b8>
 8004b26:	f5b3 6f00 	cmp.w	r3, #2048	@ 0x800
 8004b2a:	d815      	bhi.n	8004b58 <UART_SetConfig+0x2d0>
 8004b2c:	2b00      	cmp	r3, #0
 8004b2e:	d003      	beq.n	8004b38 <UART_SetConfig+0x2b0>
 8004b30:	f5b3 6f80 	cmp.w	r3, #1024	@ 0x400
 8004b34:	d008      	beq.n	8004b48 <UART_SetConfig+0x2c0>
 8004b36:	e00f      	b.n	8004b58 <UART_SetConfig+0x2d0>
 8004b38:	2300      	movs	r3, #0
 8004b3a:	f887 302b 	strb.w	r3, [r7, #43]	@ 0x2b
 8004b3e:	e022      	b.n	8004b86 <UART_SetConfig+0x2fe>
 8004b40:	2302      	movs	r3, #2
 8004b42:	f887 302b 	strb.w	r3, [r7, #43]	@ 0x2b
 8004b46:	e01e      	b.n	8004b86 <UART_SetConfig+0x2fe>
 8004b48:	2304      	movs	r3, #4
 8004b4a:	f887 302b 	strb.w	r3, [r7, #43]	@ 0x2b
 8004b4e:	e01a      	b.n	8004b86 <UART_SetConfig+0x2fe>
 8004b50:	2308      	movs	r3, #8
 8004b52:	f887 302b 	strb.w	r3, [r7, #43]	@ 0x2b
 8004b56:	e016      	b.n	8004b86 <UART_SetConfig+0x2fe>
 8004b58:	2310      	movs	r3, #16
 8004b5a:	f887 302b 	strb.w	r3, [r7, #43]	@ 0x2b
 8004b5e:	e012      	b.n	8004b86 <UART_SetConfig+0x2fe>
 8004b60:	cfff69f3 	.word	0xcfff69f3
 8004b64:	40008000 	.word	0x40008000
 8004b68:	40013800 	.word	0x40013800
 8004b6c:	40021000 	.word	0x40021000
 8004b70:	40004400 	.word	0x40004400
 8004b74:	40004800 	.word	0x40004800
 8004b78:	40004c00 	.word	0x40004c00
 8004b7c:	40005000 	.word	0x40005000
 8004b80:	2310      	movs	r3, #16
 8004b82:	f887 302b 	strb.w	r3, [r7, #43]	@ 0x2b
 8004b86:	697b      	ldr	r3, [r7, #20]
 8004b88:	681b      	ldr	r3, [r3, #0]
 8004b8a:	4aae      	ldr	r2, [pc, #696]	@ (8004e44 <UART_SetConfig+0x5bc>)
 8004b8c:	4293      	cmp	r3, r2
 8004b8e:	f040 8097 	bne.w	8004cc0 <UART_SetConfig+0x438>
 8004b92:	f897 302b 	ldrb.w	r3, [r7, #43]	@ 0x2b
 8004b96:	2b08      	cmp	r3, #8
 8004b98:	d823      	bhi.n	8004be2 <UART_SetConfig+0x35a>
 8004b9a:	a201      	add	r2, pc, #4	@ (adr r2, 8004ba0 <UART_SetConfig+0x318>)
 8004b9c:	f852 f023 	ldr.w	pc, [r2, r3, lsl #2]
 8004ba0:	08004bc5 	.word	0x08004bc5
 8004ba4:	08004be3 	.word	0x08004be3
 8004ba8:	08004bcd 	.word	0x08004bcd
 8004bac:	08004be3 	.word	0x08004be3
 8004bb0:	08004bd3 	.word	0x08004bd3
 8004bb4:	08004be3 	.word	0x08004be3
 8004bb8:	08004be3 	.word	0x08004be3
 8004bbc:	08004be3 	.word	0x08004be3
 8004bc0:	08004bdb 	.word	0x08004bdb
 8004bc4:	f7ff fac8 	bl	8004158 <HAL_RCC_GetPCLK1Freq>
 8004bc8:	6278      	str	r0, [r7, #36]	@ 0x24
 8004bca:	e010      	b.n	8004bee <UART_SetConfig+0x366>
 8004bcc:	4b9e      	ldr	r3, [pc, #632]	@ (8004e48 <UART_SetConfig+0x5c0>)
 8004bce:	627b      	str	r3, [r7, #36]	@ 0x24
 8004bd0:	e00d      	b.n	8004bee <UART_SetConfig+0x366>
 8004bd2:	f7ff fa53 	bl	800407c <HAL_RCC_GetSysClockFreq>
 8004bd6:	6278      	str	r0, [r7, #36]	@ 0x24
 8004bd8:	e009      	b.n	8004bee <UART_SetConfig+0x366>
 8004bda:	f44f 4300 	mov.w	r3, #32768	@ 0x8000
 8004bde:	627b      	str	r3, [r7, #36]	@ 0x24
 8004be0:	e005      	b.n	8004bee <UART_SetConfig+0x366>
 8004be2:	2300      	movs	r3, #0
 8004be4:	627b      	str	r3, [r7, #36]	@ 0x24
 8004be6:	2301      	movs	r3, #1
 8004be8:	f887 302a 	strb.w	r3, [r7, #42]	@ 0x2a
 8004bec:	bf00      	nop
 8004bee:	6a7b      	ldr	r3, [r7, #36]	@ 0x24
 8004bf0:	2b00      	cmp	r3, #0
 8004bf2:	f000 8130 	beq.w	8004e56 <UART_SetConfig+0x5ce>
 8004bf6:	697b      	ldr	r3, [r7, #20]
 8004bf8:	6a5b      	ldr	r3, [r3, #36]	@ 0x24
 8004bfa:	4a94      	ldr	r2, [pc, #592]	@ (8004e4c <UART_SetConfig+0x5c4>)
 8004bfc:	f832 3013 	ldrh.w	r3, [r2, r3, lsl #1]
 8004c00:	461a      	mov	r2, r3
 8004c02:	6a7b      	ldr	r3, [r7, #36]	@ 0x24
 8004c04:	fbb3 f3f2 	udiv	r3, r3, r2
 8004c08:	61bb      	str	r3, [r7, #24]
 8004c0a:	697b      	ldr	r3, [r7, #20]
 8004c0c:	685a      	ldr	r2, [r3, #4]
 8004c0e:	4613      	mov	r3, r2
 8004c10:	005b      	lsls	r3, r3, #1
 8004c12:	4413      	add	r3, r2
 8004c14:	69ba      	ldr	r2, [r7, #24]
 8004c16:	429a      	cmp	r2, r3
 8004c18:	d305      	bcc.n	8004c26 <UART_SetConfig+0x39e>
 8004c1a:	697b      	ldr	r3, [r7, #20]
 8004c1c:	685b      	ldr	r3, [r3, #4]
 8004c1e:	031b      	lsls	r3, r3, #12
 8004c20:	69ba      	ldr	r2, [r7, #24]
 8004c22:	429a      	cmp	r2, r3
 8004c24:	d903      	bls.n	8004c2e <UART_SetConfig+0x3a6>
 8004c26:	2301      	movs	r3, #1
 8004c28:	f887 302a 	strb.w	r3, [r7, #42]	@ 0x2a
 8004c2c:	e113      	b.n	8004e56 <UART_SetConfig+0x5ce>
 8004c2e:	6a7b      	ldr	r3, [r7, #36]	@ 0x24
 8004c30:	2200      	movs	r2, #0
 8004c32:	60bb      	str	r3, [r7, #8]
 8004c34:	60fa      	str	r2, [r7, #12]
 8004c36:	697b      	ldr	r3, [r7, #20]
 8004c38:	6a5b      	ldr	r3, [r3, #36]	@ 0x24
 8004c3a:	4a84      	ldr	r2, [pc, #528]	@ (8004e4c <UART_SetConfig+0x5c4>)
 8004c3c:	f832 3013 	ldrh.w	r3, [r2, r3, lsl #1]
 8004c40:	b29b      	uxth	r3, r3
 8004c42:	2200      	movs	r2, #0
 8004c44:	603b      	str	r3, [r7, #0]
 8004c46:	607a      	str	r2, [r7, #4]
 8004c48:	e9d7 2300 	ldrd	r2, r3, [r7]
 8004c4c:	e9d7 0102 	ldrd	r0, r1, [r7, #8]
 8004c50:	f7fb fb36 	bl	80002c0 <__aeabi_uldivmod>
 8004c54:	4602      	mov	r2, r0
 8004c56:	460b      	mov	r3, r1
 8004c58:	4610      	mov	r0, r2
 8004c5a:	4619      	mov	r1, r3
 8004c5c:	f04f 0200 	mov.w	r2, #0
 8004c60:	f04f 0300 	mov.w	r3, #0
 8004c64:	020b      	lsls	r3, r1, #8
 8004c66:	ea43 6310 	orr.w	r3, r3, r0, lsr #24
 8004c6a:	0202      	lsls	r2, r0, #8
 8004c6c:	6979      	ldr	r1, [r7, #20]
 8004c6e:	6849      	ldr	r1, [r1, #4]
 8004c70:	0849      	lsrs	r1, r1, #1
 8004c72:	2000      	movs	r0, #0
 8004c74:	460c      	mov	r4, r1
 8004c76:	4605      	mov	r5, r0
 8004c78:	eb12 0804 	adds.w	r8, r2, r4
 8004c7c:	eb43 0905 	adc.w	r9, r3, r5
 8004c80:	697b      	ldr	r3, [r7, #20]
 8004c82:	685b      	ldr	r3, [r3, #4]
 8004c84:	2200      	movs	r2, #0
 8004c86:	469a      	mov	sl, r3
 8004c88:	4693      	mov	fp, r2
 8004c8a:	4652      	mov	r2, sl
 8004c8c:	465b      	mov	r3, fp
 8004c8e:	4640      	mov	r0, r8
 8004c90:	4649      	mov	r1, r9
 8004c92:	f7fb fb15 	bl	80002c0 <__aeabi_uldivmod>
 8004c96:	4602      	mov	r2, r0
 8004c98:	460b      	mov	r3, r1
 8004c9a:	4613      	mov	r3, r2
 8004c9c:	623b      	str	r3, [r7, #32]
 8004c9e:	6a3b      	ldr	r3, [r7, #32]
 8004ca0:	f5b3 7f40 	cmp.w	r3, #768	@ 0x300
 8004ca4:	d308      	bcc.n	8004cb8 <UART_SetConfig+0x430>
 8004ca6:	6a3b      	ldr	r3, [r7, #32]
 8004ca8:	f5b3 1f80 	cmp.w	r3, #1048576	@ 0x100000
 8004cac:	d204      	bcs.n	8004cb8 <UART_SetConfig+0x430>
 8004cae:	697b      	ldr	r3, [r7, #20]
 8004cb0:	681b      	ldr	r3, [r3, #0]
 8004cb2:	6a3a      	ldr	r2, [r7, #32]
 8004cb4:	60da      	str	r2, [r3, #12]
 8004cb6:	e0ce      	b.n	8004e56 <UART_SetConfig+0x5ce>
 8004cb8:	2301      	movs	r3, #1
 8004cba:	f887 302a 	strb.w	r3, [r7, #42]	@ 0x2a
 8004cbe:	e0ca      	b.n	8004e56 <UART_SetConfig+0x5ce>
 8004cc0:	697b      	ldr	r3, [r7, #20]
 8004cc2:	69db      	ldr	r3, [r3, #28]
 8004cc4:	f5b3 4f00 	cmp.w	r3, #32768	@ 0x8000
 8004cc8:	d166      	bne.n	8004d98 <UART_SetConfig+0x510>
 8004cca:	f897 302b 	ldrb.w	r3, [r7, #43]	@ 0x2b
 8004cce:	2b08      	cmp	r3, #8
 8004cd0:	d827      	bhi.n	8004d22 <UART_SetConfig+0x49a>
 8004cd2:	a201      	add	r2, pc, #4	@ (adr r2, 8004cd8 <UART_SetConfig+0x450>)
 8004cd4:	f852 f023 	ldr.w	pc, [r2, r3, lsl #2]
 8004cd8:	08004cfd 	.word	0x08004cfd
 8004cdc:	08004d05 	.word	0x08004d05
 8004ce0:	08004d0d 	.word	0x08004d0d
 8004ce4:	08004d23 	.word	0x08004d23
 8004ce8:	08004d13 	.word	0x08004d13
 8004cec:	08004d23 	.word	0x08004d23
 8004cf0:	08004d23 	.word	0x08004d23
 8004cf4:	08004d23 	.word	0x08004d23
 8004cf8:	08004d1b 	.word	0x08004d1b
 8004cfc:	f7ff fa2c 	bl	8004158 <HAL_RCC_GetPCLK1Freq>
 8004d00:	6278      	str	r0, [r7, #36]	@ 0x24
 8004d02:	e014      	b.n	8004d2e <UART_SetConfig+0x4a6>
 8004d04:	f7ff fa3e 	bl	8004184 <HAL_RCC_GetPCLK2Freq>
 8004d08:	6278      	str	r0, [r7, #36]	@ 0x24
 8004d0a:	e010      	b.n	8004d2e <UART_SetConfig+0x4a6>
 8004d0c:	4b4e      	ldr	r3, [pc, #312]	@ (8004e48 <UART_SetConfig+0x5c0>)
 8004d0e:	627b      	str	r3, [r7, #36]	@ 0x24
 8004d10:	e00d      	b.n	8004d2e <UART_SetConfig+0x4a6>
 8004d12:	f7ff f9b3 	bl	800407c <HAL_RCC_GetSysClockFreq>
 8004d16:	6278      	str	r0, [r7, #36]	@ 0x24
 8004d18:	e009      	b.n	8004d2e <UART_SetConfig+0x4a6>
 8004d1a:	f44f 4300 	mov.w	r3, #32768	@ 0x8000
 8004d1e:	627b      	str	r3, [r7, #36]	@ 0x24
 8004d20:	e005      	b.n	8004d2e <UART_SetConfig+0x4a6>
 8004d22:	2300      	movs	r3, #0
 8004d24:	627b      	str	r3, [r7, #36]	@ 0x24
 8004d26:	2301      	movs	r3, #1
 8004d28:	f887 302a 	strb.w	r3, [r7, #42]	@ 0x2a
 8004d2c:	bf00      	nop
 8004d2e:	6a7b      	ldr	r3, [r7, #36]	@ 0x24
 8004d30:	2b00      	cmp	r3, #0
 8004d32:	f000 8090 	beq.w	8004e56 <UART_SetConfig+0x5ce>
 8004d36:	697b      	ldr	r3, [r7, #20]
 8004d38:	6a5b      	ldr	r3, [r3, #36]	@ 0x24
 8004d3a:	4a44      	ldr	r2, [pc, #272]	@ (8004e4c <UART_SetConfig+0x5c4>)
 8004d3c:	f832 3013 	ldrh.w	r3, [r2, r3, lsl #1]
 8004d40:	461a      	mov	r2, r3
 8004d42:	6a7b      	ldr	r3, [r7, #36]	@ 0x24
 8004d44:	fbb3 f3f2 	udiv	r3, r3, r2
 8004d48:	005a      	lsls	r2, r3, #1
 8004d4a:	697b      	ldr	r3, [r7, #20]
 8004d4c:	685b      	ldr	r3, [r3, #4]
 8004d4e:	085b      	lsrs	r3, r3, #1
 8004d50:	441a      	add	r2, r3
 8004d52:	697b      	ldr	r3, [r7, #20]
 8004d54:	685b      	ldr	r3, [r3, #4]
 8004d56:	fbb2 f3f3 	udiv	r3, r2, r3
 8004d5a:	623b      	str	r3, [r7, #32]
 8004d5c:	6a3b      	ldr	r3, [r7, #32]
 8004d5e:	2b0f      	cmp	r3, #15
 8004d60:	d916      	bls.n	8004d90 <UART_SetConfig+0x508>
 8004d62:	6a3b      	ldr	r3, [r7, #32]
 8004d64:	f5b3 3f80 	cmp.w	r3, #65536	@ 0x10000
 8004d68:	d212      	bcs.n	8004d90 <UART_SetConfig+0x508>
 8004d6a:	6a3b      	ldr	r3, [r7, #32]
 8004d6c:	b29b      	uxth	r3, r3
 8004d6e:	f023 030f 	bic.w	r3, r3, #15
 8004d72:	83fb      	strh	r3, [r7, #30]
 8004d74:	6a3b      	ldr	r3, [r7, #32]
 8004d76:	085b      	lsrs	r3, r3, #1
 8004d78:	b29b      	uxth	r3, r3
 8004d7a:	f003 0307 	and.w	r3, r3, #7
 8004d7e:	b29a      	uxth	r2, r3
 8004d80:	8bfb      	ldrh	r3, [r7, #30]
 8004d82:	4313      	orrs	r3, r2
 8004d84:	83fb      	strh	r3, [r7, #30]
 8004d86:	697b      	ldr	r3, [r7, #20]
 8004d88:	681b      	ldr	r3, [r3, #0]
 8004d8a:	8bfa      	ldrh	r2, [r7, #30]
 8004d8c:	60da      	str	r2, [r3, #12]
 8004d8e:	e062      	b.n	8004e56 <UART_SetConfig+0x5ce>
 8004d90:	2301      	movs	r3, #1
 8004d92:	f887 302a 	strb.w	r3, [r7, #42]	@ 0x2a
 8004d96:	e05e      	b.n	8004e56 <UART_SetConfig+0x5ce>
 8004d98:	f897 302b 	ldrb.w	r3, [r7, #43]	@ 0x2b
 8004d9c:	2b08      	cmp	r3, #8
 8004d9e:	d828      	bhi.n	8004df2 <UART_SetConfig+0x56a>
 8004da0:	a201      	add	r2, pc, #4	@ (adr r2, 8004da8 <UART_SetConfig+0x520>)
 8004da2:	f852 f023 	ldr.w	pc, [r2, r3, lsl #2]
 8004da6:	bf00      	nop
 8004da8:	08004dcd 	.word	0x08004dcd
 8004dac:	08004dd5 	.word	0x08004dd5
 8004db0:	08004ddd 	.word	0x08004ddd
 8004db4:	08004df3 	.word	0x08004df3
 8004db8:	08004de3 	.word	0x08004de3
 8004dbc:	08004df3 	.word	0x08004df3
 8004dc0:	08004df3 	.word	0x08004df3
 8004dc4:	08004df3 	.word	0x08004df3
 8004dc8:	08004deb 	.word	0x08004deb
 8004dcc:	f7ff f9c4 	bl	8004158 <HAL_RCC_GetPCLK1Freq>
 8004dd0:	6278      	str	r0, [r7, #36]	@ 0x24
 8004dd2:	e014      	b.n	8004dfe <UART_SetConfig+0x576>
 8004dd4:	f7ff f9d6 	bl	8004184 <HAL_RCC_GetPCLK2Freq>
 8004dd8:	6278      	str	r0, [r7, #36]	@ 0x24
 8004dda:	e010      	b.n	8004dfe <UART_SetConfig+0x576>
 8004ddc:	4b1a      	ldr	r3, [pc, #104]	@ (8004e48 <UART_SetConfig+0x5c0>)
 8004dde:	627b      	str	r3, [r7, #36]	@ 0x24
 8004de0:	e00d      	b.n	8004dfe <UART_SetConfig+0x576>
 8004de2:	f7ff f94b 	bl	800407c <HAL_RCC_GetSysClockFreq>
 8004de6:	6278      	str	r0, [r7, #36]	@ 0x24
 8004de8:	e009      	b.n	8004dfe <UART_SetConfig+0x576>
 8004dea:	f44f 4300 	mov.w	r3, #32768	@ 0x8000
 8004dee:	627b      	str	r3, [r7, #36]	@ 0x24
 8004df0:	e005      	b.n	8004dfe <UART_SetConfig+0x576>
 8004df2:	2300      	movs	r3, #0
 8004df4:	627b      	str	r3, [r7, #36]	@ 0x24
 8004df6:	2301      	movs	r3, #1
 8004df8:	f887 302a 	strb.w	r3, [r7, #42]	@ 0x2a
 8004dfc:	bf00      	nop
 8004dfe:	6a7b      	ldr	r3, [r7, #36]	@ 0x24
 8004e00:	2b00      	cmp	r3, #0
 8004e02:	d028      	beq.n	8004e56 <UART_SetConfig+0x5ce>
 8004e04:	697b      	ldr	r3, [r7, #20]
 8004e06:	6a5b      	ldr	r3, [r3, #36]	@ 0x24
 8004e08:	4a10      	ldr	r2, [pc, #64]	@ (8004e4c <UART_SetConfig+0x5c4>)
 8004e0a:	f832 3013 	ldrh.w	r3, [r2, r3, lsl #1]
 8004e0e:	461a      	mov	r2, r3
 8004e10:	6a7b      	ldr	r3, [r7, #36]	@ 0x24
 8004e12:	fbb3 f2f2 	udiv	r2, r3, r2
 8004e16:	697b      	ldr	r3, [r7, #20]
 8004e18:	685b      	ldr	r3, [r3, #4]
 8004e1a:	085b      	lsrs	r3, r3, #1
 8004e1c:	441a      	add	r2, r3
 8004e1e:	697b      	ldr	r3, [r7, #20]
 8004e20:	685b      	ldr	r3, [r3, #4]
 8004e22:	fbb2 f3f3 	udiv	r3, r2, r3
 8004e26:	623b      	str	r3, [r7, #32]
 8004e28:	6a3b      	ldr	r3, [r7, #32]
 8004e2a:	2b0f      	cmp	r3, #15
 8004e2c:	d910      	bls.n	8004e50 <UART_SetConfig+0x5c8>
 8004e2e:	6a3b      	ldr	r3, [r7, #32]
 8004e30:	f5b3 3f80 	cmp.w	r3, #65536	@ 0x10000
 8004e34:	d20c      	bcs.n	8004e50 <UART_SetConfig+0x5c8>
 8004e36:	6a3b      	ldr	r3, [r7, #32]
 8004e38:	b29a      	uxth	r2, r3
 8004e3a:	697b      	ldr	r3, [r7, #20]
 8004e3c:	681b      	ldr	r3, [r3, #0]
 8004e3e:	60da      	str	r2, [r3, #12]
 8004e40:	e009      	b.n	8004e56 <UART_SetConfig+0x5ce>
 8004e42:	bf00      	nop
 8004e44:	40008000 	.word	0x40008000
 8004e48:	00f42400 	.word	0x00f42400
 8004e4c:	08006d6c 	.word	0x08006d6c
 8004e50:	2301      	movs	r3, #1
 8004e52:	f887 302a 	strb.w	r3, [r7, #42]	@ 0x2a
 8004e56:	697b      	ldr	r3, [r7, #20]
 8004e58:	2201      	movs	r2, #1
 8004e5a:	f8a3 206a 	strh.w	r2, [r3, #106]	@ 0x6a
 8004e5e:	697b      	ldr	r3, [r7, #20]
 8004e60:	2201      	movs	r2, #1
 8004e62:	f8a3 2068 	strh.w	r2, [r3, #104]	@ 0x68
 8004e66:	697b      	ldr	r3, [r7, #20]
 8004e68:	2200      	movs	r2, #0
 8004e6a:	675a      	str	r2, [r3, #116]	@ 0x74
 8004e6c:	697b      	ldr	r3, [r7, #20]
 8004e6e:	2200      	movs	r2, #0
 8004e70:	679a      	str	r2, [r3, #120]	@ 0x78
 8004e72:	f897 302a 	ldrb.w	r3, [r7, #42]	@ 0x2a
 8004e76:	4618      	mov	r0, r3
 8004e78:	3730      	adds	r7, #48	@ 0x30
 8004e7a:	46bd      	mov	sp, r7
 8004e7c:	e8bd 8fb0 	ldmia.w	sp!, {r4, r5, r7, r8, r9, sl, fp, pc}

08004e80 <UART_AdvFeatureConfig>:
 8004e80:	b480      	push	{r7}
 8004e82:	b083      	sub	sp, #12
 8004e84:	af00      	add	r7, sp, #0
 8004e86:	6078      	str	r0, [r7, #4]
 8004e88:	687b      	ldr	r3, [r7, #4]
 8004e8a:	6a9b      	ldr	r3, [r3, #40]	@ 0x28
 8004e8c:	f003 0308 	and.w	r3, r3, #8
 8004e90:	2b00      	cmp	r3, #0
 8004e92:	d00a      	beq.n	8004eaa <UART_AdvFeatureConfig+0x2a>
 8004e94:	687b      	ldr	r3, [r7, #4]
 8004e96:	681b      	ldr	r3, [r3, #0]
 8004e98:	685b      	ldr	r3, [r3, #4]
 8004e9a:	f423 4100 	bic.w	r1, r3, #32768	@ 0x8000
 8004e9e:	687b      	ldr	r3, [r7, #4]
 8004ea0:	6b9a      	ldr	r2, [r3, #56]	@ 0x38
 8004ea2:	687b      	ldr	r3, [r7, #4]
 8004ea4:	681b      	ldr	r3, [r3, #0]
 8004ea6:	430a      	orrs	r2, r1
 8004ea8:	605a      	str	r2, [r3, #4]
 8004eaa:	687b      	ldr	r3, [r7, #4]
 8004eac:	6a9b      	ldr	r3, [r3, #40]	@ 0x28
 8004eae:	f003 0301 	and.w	r3, r3, #1
 8004eb2:	2b00      	cmp	r3, #0
 8004eb4:	d00a      	beq.n	8004ecc <UART_AdvFeatureConfig+0x4c>
 8004eb6:	687b      	ldr	r3, [r7, #4]
 8004eb8:	681b      	ldr	r3, [r3, #0]
 8004eba:	685b      	ldr	r3, [r3, #4]
 8004ebc:	f423 3100 	bic.w	r1, r3, #131072	@ 0x20000
 8004ec0:	687b      	ldr	r3, [r7, #4]
 8004ec2:	6ada      	ldr	r2, [r3, #44]	@ 0x2c
 8004ec4:	687b      	ldr	r3, [r7, #4]
 8004ec6:	681b      	ldr	r3, [r3, #0]
 8004ec8:	430a      	orrs	r2, r1
 8004eca:	605a      	str	r2, [r3, #4]
 8004ecc:	687b      	ldr	r3, [r7, #4]
 8004ece:	6a9b      	ldr	r3, [r3, #40]	@ 0x28
 8004ed0:	f003 0302 	and.w	r3, r3, #2
 8004ed4:	2b00      	cmp	r3, #0
 8004ed6:	d00a      	beq.n	8004eee <UART_AdvFeatureConfig+0x6e>
 8004ed8:	687b      	ldr	r3, [r7, #4]
 8004eda:	681b      	ldr	r3, [r3, #0]
 8004edc:	685b      	ldr	r3, [r3, #4]
 8004ede:	f423 3180 	bic.w	r1, r3, #65536	@ 0x10000
 8004ee2:	687b      	ldr	r3, [r7, #4]
 8004ee4:	6b1a      	ldr	r2, [r3, #48]	@ 0x30
 8004ee6:	687b      	ldr	r3, [r7, #4]
 8004ee8:	681b      	ldr	r3, [r3, #0]
 8004eea:	430a      	orrs	r2, r1
 8004eec:	605a      	str	r2, [r3, #4]
 8004eee:	687b      	ldr	r3, [r7, #4]
 8004ef0:	6a9b      	ldr	r3, [r3, #40]	@ 0x28
 8004ef2:	f003 0304 	and.w	r3, r3, #4
 8004ef6:	2b00      	cmp	r3, #0
 8004ef8:	d00a      	beq.n	8004f10 <UART_AdvFeatureConfig+0x90>
 8004efa:	687b      	ldr	r3, [r7, #4]
 8004efc:	681b      	ldr	r3, [r3, #0]
 8004efe:	685b      	ldr	r3, [r3, #4]
 8004f00:	f423 2180 	bic.w	r1, r3, #262144	@ 0x40000
 8004f04:	687b      	ldr	r3, [r7, #4]
 8004f06:	6b5a      	ldr	r2, [r3, #52]	@ 0x34
 8004f08:	687b      	ldr	r3, [r7, #4]
 8004f0a:	681b      	ldr	r3, [r3, #0]
 8004f0c:	430a      	orrs	r2, r1
 8004f0e:	605a      	str	r2, [r3, #4]
 8004f10:	687b      	ldr	r3, [r7, #4]
 8004f12:	6a9b      	ldr	r3, [r3, #40]	@ 0x28
 8004f14:	f003 0310 	and.w	r3, r3, #16
 8004f18:	2b00      	cmp	r3, #0
 8004f1a:	d00a      	beq.n	8004f32 <UART_AdvFeatureConfig+0xb2>
 8004f1c:	687b      	ldr	r3, [r7, #4]
 8004f1e:	681b      	ldr	r3, [r3, #0]
 8004f20:	689b      	ldr	r3, [r3, #8]
 8004f22:	f423 5180 	bic.w	r1, r3, #4096	@ 0x1000
 8004f26:	687b      	ldr	r3, [r7, #4]
 8004f28:	6bda      	ldr	r2, [r3, #60]	@ 0x3c
 8004f2a:	687b      	ldr	r3, [r7, #4]
 8004f2c:	681b      	ldr	r3, [r3, #0]
 8004f2e:	430a      	orrs	r2, r1
 8004f30:	609a      	str	r2, [r3, #8]
 8004f32:	687b      	ldr	r3, [r7, #4]
 8004f34:	6a9b      	ldr	r3, [r3, #40]	@ 0x28
 8004f36:	f003 0320 	and.w	r3, r3, #32
 8004f3a:	2b00      	cmp	r3, #0
 8004f3c:	d00a      	beq.n	8004f54 <UART_AdvFeatureConfig+0xd4>
 8004f3e:	687b      	ldr	r3, [r7, #4]
 8004f40:	681b      	ldr	r3, [r3, #0]
 8004f42:	689b      	ldr	r3, [r3, #8]
 8004f44:	f423 5100 	bic.w	r1, r3, #8192	@ 0x2000
 8004f48:	687b      	ldr	r3, [r7, #4]
 8004f4a:	6c1a      	ldr	r2, [r3, #64]	@ 0x40
 8004f4c:	687b      	ldr	r3, [r7, #4]
 8004f4e:	681b      	ldr	r3, [r3, #0]
 8004f50:	430a      	orrs	r2, r1
 8004f52:	609a      	str	r2, [r3, #8]
 8004f54:	687b      	ldr	r3, [r7, #4]
 8004f56:	6a9b      	ldr	r3, [r3, #40]	@ 0x28
 8004f58:	f003 0340 	and.w	r3, r3, #64	@ 0x40
 8004f5c:	2b00      	cmp	r3, #0
 8004f5e:	d01a      	beq.n	8004f96 <UART_AdvFeatureConfig+0x116>
 8004f60:	687b      	ldr	r3, [r7, #4]
 8004f62:	681b      	ldr	r3, [r3, #0]
 8004f64:	685b      	ldr	r3, [r3, #4]
 8004f66:	f423 1180 	bic.w	r1, r3, #1048576	@ 0x100000
 8004f6a:	687b      	ldr	r3, [r7, #4]
 8004f6c:	6c5a      	ldr	r2, [r3, #68]	@ 0x44
 8004f6e:	687b      	ldr	r3, [r7, #4]
 8004f70:	681b      	ldr	r3, [r3, #0]
 8004f72:	430a      	orrs	r2, r1
 8004f74:	605a      	str	r2, [r3, #4]
 8004f76:	687b      	ldr	r3, [r7, #4]
 8004f78:	6c5b      	ldr	r3, [r3, #68]	@ 0x44
 8004f7a:	f5b3 1f80 	cmp.w	r3, #1048576	@ 0x100000
 8004f7e:	d10a      	bne.n	8004f96 <UART_AdvFeatureConfig+0x116>
 8004f80:	687b      	ldr	r3, [r7, #4]
 8004f82:	681b      	ldr	r3, [r3, #0]
 8004f84:	685b      	ldr	r3, [r3, #4]
 8004f86:	f423 01c0 	bic.w	r1, r3, #6291456	@ 0x600000
 8004f8a:	687b      	ldr	r3, [r7, #4]
 8004f8c:	6c9a      	ldr	r2, [r3, #72]	@ 0x48
 8004f8e:	687b      	ldr	r3, [r7, #4]
 8004f90:	681b      	ldr	r3, [r3, #0]
 8004f92:	430a      	orrs	r2, r1
 8004f94:	605a      	str	r2, [r3, #4]
 8004f96:	687b      	ldr	r3, [r7, #4]
 8004f98:	6a9b      	ldr	r3, [r3, #40]	@ 0x28
 8004f9a:	f003 0380 	and.w	r3, r3, #128	@ 0x80
 8004f9e:	2b00      	cmp	r3, #0
 8004fa0:	d00a      	beq.n	8004fb8 <UART_AdvFeatureConfig+0x138>
 8004fa2:	687b      	ldr	r3, [r7, #4]
 8004fa4:	681b      	ldr	r3, [r3, #0]
 8004fa6:	685b      	ldr	r3, [r3, #4]
 8004fa8:	f423 2100 	bic.w	r1, r3, #524288	@ 0x80000
 8004fac:	687b      	ldr	r3, [r7, #4]
 8004fae:	6cda      	ldr	r2, [r3, #76]	@ 0x4c
 8004fb0:	687b      	ldr	r3, [r7, #4]
 8004fb2:	681b      	ldr	r3, [r3, #0]
 8004fb4:	430a      	orrs	r2, r1
 8004fb6:	605a      	str	r2, [r3, #4]
 8004fb8:	bf00      	nop
 8004fba:	370c      	adds	r7, #12
 8004fbc:	46bd      	mov	sp, r7
 8004fbe:	f85d 7b04 	ldr.w	r7, [sp], #4
 8004fc2:	4770      	bx	lr

08004fc4 <UART_CheckIdleState>:
 8004fc4:	b580      	push	{r7, lr}
 8004fc6:	b098      	sub	sp, #96	@ 0x60
 8004fc8:	af02      	add	r7, sp, #8
 8004fca:	6078      	str	r0, [r7, #4]
 8004fcc:	687b      	ldr	r3, [r7, #4]
 8004fce:	2200      	movs	r2, #0
 8004fd0:	f8c3 2090 	str.w	r2, [r3, #144]	@ 0x90
 8004fd4:	f7fc fcb2 	bl	800193c <HAL_GetTick>
 8004fd8:	6578      	str	r0, [r7, #84]	@ 0x54
 8004fda:	687b      	ldr	r3, [r7, #4]
 8004fdc:	681b      	ldr	r3, [r3, #0]
 8004fde:	681b      	ldr	r3, [r3, #0]
 8004fe0:	f003 0308 	and.w	r3, r3, #8
 8004fe4:	2b08      	cmp	r3, #8
 8004fe6:	d12f      	bne.n	8005048 <UART_CheckIdleState+0x84>
 8004fe8:	f06f 437e 	mvn.w	r3, #4261412864	@ 0xfe000000
 8004fec:	9300      	str	r3, [sp, #0]
 8004fee:	6d7b      	ldr	r3, [r7, #84]	@ 0x54
 8004ff0:	2200      	movs	r2, #0
 8004ff2:	f44f 1100 	mov.w	r1, #2097152	@ 0x200000
 8004ff6:	6878      	ldr	r0, [r7, #4]
 8004ff8:	f000 f88e 	bl	8005118 <UART_WaitOnFlagUntilTimeout>
 8004ffc:	4603      	mov	r3, r0
 8004ffe:	2b00      	cmp	r3, #0
 8005000:	d022      	beq.n	8005048 <UART_CheckIdleState+0x84>
 8005002:	687b      	ldr	r3, [r7, #4]
 8005004:	681b      	ldr	r3, [r3, #0]
 8005006:	63bb      	str	r3, [r7, #56]	@ 0x38
 8005008:	6bbb      	ldr	r3, [r7, #56]	@ 0x38
 800500a:	e853 3f00 	ldrex	r3, [r3]
 800500e:	637b      	str	r3, [r7, #52]	@ 0x34
 8005010:	6b7b      	ldr	r3, [r7, #52]	@ 0x34
 8005012:	f023 0380 	bic.w	r3, r3, #128	@ 0x80
 8005016:	653b      	str	r3, [r7, #80]	@ 0x50
 8005018:	687b      	ldr	r3, [r7, #4]
 800501a:	681b      	ldr	r3, [r3, #0]
 800501c:	461a      	mov	r2, r3
 800501e:	6d3b      	ldr	r3, [r7, #80]	@ 0x50
 8005020:	647b      	str	r3, [r7, #68]	@ 0x44
 8005022:	643a      	str	r2, [r7, #64]	@ 0x40
 8005024:	6c39      	ldr	r1, [r7, #64]	@ 0x40
 8005026:	6c7a      	ldr	r2, [r7, #68]	@ 0x44
 8005028:	e841 2300 	strex	r3, r2, [r1]
 800502c:	63fb      	str	r3, [r7, #60]	@ 0x3c
 800502e:	6bfb      	ldr	r3, [r7, #60]	@ 0x3c
 8005030:	2b00      	cmp	r3, #0
 8005032:	d1e6      	bne.n	8005002 <UART_CheckIdleState+0x3e>
 8005034:	687b      	ldr	r3, [r7, #4]
 8005036:	2220      	movs	r2, #32
 8005038:	f8c3 2088 	str.w	r2, [r3, #136]	@ 0x88
 800503c:	687b      	ldr	r3, [r7, #4]
 800503e:	2200      	movs	r2, #0
 8005040:	f883 2084 	strb.w	r2, [r3, #132]	@ 0x84
 8005044:	2303      	movs	r3, #3
 8005046:	e063      	b.n	8005110 <UART_CheckIdleState+0x14c>
 8005048:	687b      	ldr	r3, [r7, #4]
 800504a:	681b      	ldr	r3, [r3, #0]
 800504c:	681b      	ldr	r3, [r3, #0]
 800504e:	f003 0304 	and.w	r3, r3, #4
 8005052:	2b04      	cmp	r3, #4
 8005054:	d149      	bne.n	80050ea <UART_CheckIdleState+0x126>
 8005056:	f06f 437e 	mvn.w	r3, #4261412864	@ 0xfe000000
 800505a:	9300      	str	r3, [sp, #0]
 800505c:	6d7b      	ldr	r3, [r7, #84]	@ 0x54
 800505e:	2200      	movs	r2, #0
 8005060:	f44f 0180 	mov.w	r1, #4194304	@ 0x400000
 8005064:	6878      	ldr	r0, [r7, #4]
 8005066:	f000 f857 	bl	8005118 <UART_WaitOnFlagUntilTimeout>
 800506a:	4603      	mov	r3, r0
 800506c:	2b00      	cmp	r3, #0
 800506e:	d03c      	beq.n	80050ea <UART_CheckIdleState+0x126>
 8005070:	687b      	ldr	r3, [r7, #4]
 8005072:	681b      	ldr	r3, [r3, #0]
 8005074:	627b      	str	r3, [r7, #36]	@ 0x24
 8005076:	6a7b      	ldr	r3, [r7, #36]	@ 0x24
 8005078:	e853 3f00 	ldrex	r3, [r3]
 800507c:	623b      	str	r3, [r7, #32]
 800507e:	6a3b      	ldr	r3, [r7, #32]
 8005080:	f423 7390 	bic.w	r3, r3, #288	@ 0x120
 8005084:	64fb      	str	r3, [r7, #76]	@ 0x4c
 8005086:	687b      	ldr	r3, [r7, #4]
 8005088:	681b      	ldr	r3, [r3, #0]
 800508a:	461a      	mov	r2, r3
 800508c:	6cfb      	ldr	r3, [r7, #76]	@ 0x4c
 800508e:	633b      	str	r3, [r7, #48]	@ 0x30
 8005090:	62fa      	str	r2, [r7, #44]	@ 0x2c
 8005092:	6af9      	ldr	r1, [r7, #44]	@ 0x2c
 8005094:	6b3a      	ldr	r2, [r7, #48]	@ 0x30
 8005096:	e841 2300 	strex	r3, r2, [r1]
 800509a:	62bb      	str	r3, [r7, #40]	@ 0x28
 800509c:	6abb      	ldr	r3, [r7, #40]	@ 0x28
 800509e:	2b00      	cmp	r3, #0
 80050a0:	d1e6      	bne.n	8005070 <UART_CheckIdleState+0xac>
 80050a2:	687b      	ldr	r3, [r7, #4]
 80050a4:	681b      	ldr	r3, [r3, #0]
 80050a6:	3308      	adds	r3, #8
 80050a8:	613b      	str	r3, [r7, #16]
 80050aa:	693b      	ldr	r3, [r7, #16]
 80050ac:	e853 3f00 	ldrex	r3, [r3]
 80050b0:	60fb      	str	r3, [r7, #12]
 80050b2:	68fb      	ldr	r3, [r7, #12]
 80050b4:	f023 0301 	bic.w	r3, r3, #1
 80050b8:	64bb      	str	r3, [r7, #72]	@ 0x48
 80050ba:	687b      	ldr	r3, [r7, #4]
 80050bc:	681b      	ldr	r3, [r3, #0]
 80050be:	3308      	adds	r3, #8
 80050c0:	6cba      	ldr	r2, [r7, #72]	@ 0x48
 80050c2:	61fa      	str	r2, [r7, #28]
 80050c4:	61bb      	str	r3, [r7, #24]
 80050c6:	69b9      	ldr	r1, [r7, #24]
 80050c8:	69fa      	ldr	r2, [r7, #28]
 80050ca:	e841 2300 	strex	r3, r2, [r1]
 80050ce:	617b      	str	r3, [r7, #20]
 80050d0:	697b      	ldr	r3, [r7, #20]
 80050d2:	2b00      	cmp	r3, #0
 80050d4:	d1e5      	bne.n	80050a2 <UART_CheckIdleState+0xde>
 80050d6:	687b      	ldr	r3, [r7, #4]
 80050d8:	2220      	movs	r2, #32
 80050da:	f8c3 208c 	str.w	r2, [r3, #140]	@ 0x8c
 80050de:	687b      	ldr	r3, [r7, #4]
 80050e0:	2200      	movs	r2, #0
 80050e2:	f883 2084 	strb.w	r2, [r3, #132]	@ 0x84
 80050e6:	2303      	movs	r3, #3
 80050e8:	e012      	b.n	8005110 <UART_CheckIdleState+0x14c>
 80050ea:	687b      	ldr	r3, [r7, #4]
 80050ec:	2220      	movs	r2, #32
 80050ee:	f8c3 2088 	str.w	r2, [r3, #136]	@ 0x88
 80050f2:	687b      	ldr	r3, [r7, #4]
 80050f4:	2220      	movs	r2, #32
 80050f6:	f8c3 208c 	str.w	r2, [r3, #140]	@ 0x8c
 80050fa:	687b      	ldr	r3, [r7, #4]
 80050fc:	2200      	movs	r2, #0
 80050fe:	66da      	str	r2, [r3, #108]	@ 0x6c
 8005100:	687b      	ldr	r3, [r7, #4]
 8005102:	2200      	movs	r2, #0
 8005104:	671a      	str	r2, [r3, #112]	@ 0x70
 8005106:	687b      	ldr	r3, [r7, #4]
 8005108:	2200      	movs	r2, #0
 800510a:	f883 2084 	strb.w	r2, [r3, #132]	@ 0x84
 800510e:	2300      	movs	r3, #0
 8005110:	4618      	mov	r0, r3
 8005112:	3758      	adds	r7, #88	@ 0x58
 8005114:	46bd      	mov	sp, r7
 8005116:	bd80      	pop	{r7, pc}

08005118 <UART_WaitOnFlagUntilTimeout>:
 8005118:	b580      	push	{r7, lr}
 800511a:	b084      	sub	sp, #16
 800511c:	af00      	add	r7, sp, #0
 800511e:	60f8      	str	r0, [r7, #12]
 8005120:	60b9      	str	r1, [r7, #8]
 8005122:	603b      	str	r3, [r7, #0]
 8005124:	4613      	mov	r3, r2
 8005126:	71fb      	strb	r3, [r7, #7]
 8005128:	e04f      	b.n	80051ca <UART_WaitOnFlagUntilTimeout+0xb2>
 800512a:	69bb      	ldr	r3, [r7, #24]
 800512c:	f1b3 3fff 	cmp.w	r3, #4294967295
 8005130:	d04b      	beq.n	80051ca <UART_WaitOnFlagUntilTimeout+0xb2>
 8005132:	f7fc fc03 	bl	800193c <HAL_GetTick>
 8005136:	4602      	mov	r2, r0
 8005138:	683b      	ldr	r3, [r7, #0]
 800513a:	1ad3      	subs	r3, r2, r3
 800513c:	69ba      	ldr	r2, [r7, #24]
 800513e:	429a      	cmp	r2, r3
 8005140:	d302      	bcc.n	8005148 <UART_WaitOnFlagUntilTimeout+0x30>
 8005142:	69bb      	ldr	r3, [r7, #24]
 8005144:	2b00      	cmp	r3, #0
 8005146:	d101      	bne.n	800514c <UART_WaitOnFlagUntilTimeout+0x34>
 8005148:	2303      	movs	r3, #3
 800514a:	e04e      	b.n	80051ea <UART_WaitOnFlagUntilTimeout+0xd2>
 800514c:	68fb      	ldr	r3, [r7, #12]
 800514e:	681b      	ldr	r3, [r3, #0]
 8005150:	681b      	ldr	r3, [r3, #0]
 8005152:	f003 0304 	and.w	r3, r3, #4
 8005156:	2b00      	cmp	r3, #0
 8005158:	d037      	beq.n	80051ca <UART_WaitOnFlagUntilTimeout+0xb2>
 800515a:	68bb      	ldr	r3, [r7, #8]
 800515c:	2b80      	cmp	r3, #128	@ 0x80
 800515e:	d034      	beq.n	80051ca <UART_WaitOnFlagUntilTimeout+0xb2>
 8005160:	68bb      	ldr	r3, [r7, #8]
 8005162:	2b40      	cmp	r3, #64	@ 0x40
 8005164:	d031      	beq.n	80051ca <UART_WaitOnFlagUntilTimeout+0xb2>
 8005166:	68fb      	ldr	r3, [r7, #12]
 8005168:	681b      	ldr	r3, [r3, #0]
 800516a:	69db      	ldr	r3, [r3, #28]
 800516c:	f003 0308 	and.w	r3, r3, #8
 8005170:	2b08      	cmp	r3, #8
 8005172:	d110      	bne.n	8005196 <UART_WaitOnFlagUntilTimeout+0x7e>
 8005174:	68fb      	ldr	r3, [r7, #12]
 8005176:	681b      	ldr	r3, [r3, #0]
 8005178:	2208      	movs	r2, #8
 800517a:	621a      	str	r2, [r3, #32]
 800517c:	68f8      	ldr	r0, [r7, #12]
 800517e:	f000 f838 	bl	80051f2 <UART_EndRxTransfer>
 8005182:	68fb      	ldr	r3, [r7, #12]
 8005184:	2208      	movs	r2, #8
 8005186:	f8c3 2090 	str.w	r2, [r3, #144]	@ 0x90
 800518a:	68fb      	ldr	r3, [r7, #12]
 800518c:	2200      	movs	r2, #0
 800518e:	f883 2084 	strb.w	r2, [r3, #132]	@ 0x84
 8005192:	2301      	movs	r3, #1
 8005194:	e029      	b.n	80051ea <UART_WaitOnFlagUntilTimeout+0xd2>
 8005196:	68fb      	ldr	r3, [r7, #12]
 8005198:	681b      	ldr	r3, [r3, #0]
 800519a:	69db      	ldr	r3, [r3, #28]
 800519c:	f403 6300 	and.w	r3, r3, #2048	@ 0x800
 80051a0:	f5b3 6f00 	cmp.w	r3, #2048	@ 0x800
 80051a4:	d111      	bne.n	80051ca <UART_WaitOnFlagUntilTimeout+0xb2>
 80051a6:	68fb      	ldr	r3, [r7, #12]
 80051a8:	681b      	ldr	r3, [r3, #0]
 80051aa:	f44f 6200 	mov.w	r2, #2048	@ 0x800
 80051ae:	621a      	str	r2, [r3, #32]
 80051b0:	68f8      	ldr	r0, [r7, #12]
 80051b2:	f000 f81e 	bl	80051f2 <UART_EndRxTransfer>
 80051b6:	68fb      	ldr	r3, [r7, #12]
 80051b8:	2220      	movs	r2, #32
 80051ba:	f8c3 2090 	str.w	r2, [r3, #144]	@ 0x90
 80051be:	68fb      	ldr	r3, [r7, #12]
 80051c0:	2200      	movs	r2, #0
 80051c2:	f883 2084 	strb.w	r2, [r3, #132]	@ 0x84
 80051c6:	2303      	movs	r3, #3
 80051c8:	e00f      	b.n	80051ea <UART_WaitOnFlagUntilTimeout+0xd2>
 80051ca:	68fb      	ldr	r3, [r7, #12]
 80051cc:	681b      	ldr	r3, [r3, #0]
 80051ce:	69da      	ldr	r2, [r3, #28]
 80051d0:	68bb      	ldr	r3, [r7, #8]
 80051d2:	4013      	ands	r3, r2
 80051d4:	68ba      	ldr	r2, [r7, #8]
 80051d6:	429a      	cmp	r2, r3
 80051d8:	bf0c      	ite	eq
 80051da:	2301      	moveq	r3, #1
 80051dc:	2300      	movne	r3, #0
 80051de:	b2db      	uxtb	r3, r3
 80051e0:	461a      	mov	r2, r3
 80051e2:	79fb      	ldrb	r3, [r7, #7]
 80051e4:	429a      	cmp	r2, r3
 80051e6:	d0a0      	beq.n	800512a <UART_WaitOnFlagUntilTimeout+0x12>
 80051e8:	2300      	movs	r3, #0
 80051ea:	4618      	mov	r0, r3
 80051ec:	3710      	adds	r7, #16
 80051ee:	46bd      	mov	sp, r7
 80051f0:	bd80      	pop	{r7, pc}

080051f2 <UART_EndRxTransfer>:
 80051f2:	b480      	push	{r7}
 80051f4:	b095      	sub	sp, #84	@ 0x54
 80051f6:	af00      	add	r7, sp, #0
 80051f8:	6078      	str	r0, [r7, #4]
 80051fa:	687b      	ldr	r3, [r7, #4]
 80051fc:	681b      	ldr	r3, [r3, #0]
 80051fe:	637b      	str	r3, [r7, #52]	@ 0x34
 8005200:	6b7b      	ldr	r3, [r7, #52]	@ 0x34
 8005202:	e853 3f00 	ldrex	r3, [r3]
 8005206:	633b      	str	r3, [r7, #48]	@ 0x30
 8005208:	6b3b      	ldr	r3, [r7, #48]	@ 0x30
 800520a:	f423 7390 	bic.w	r3, r3, #288	@ 0x120
 800520e:	64fb      	str	r3, [r7, #76]	@ 0x4c
 8005210:	687b      	ldr	r3, [r7, #4]
 8005212:	681b      	ldr	r3, [r3, #0]
 8005214:	461a      	mov	r2, r3
 8005216:	6cfb      	ldr	r3, [r7, #76]	@ 0x4c
 8005218:	643b      	str	r3, [r7, #64]	@ 0x40
 800521a:	63fa      	str	r2, [r7, #60]	@ 0x3c
 800521c:	6bf9      	ldr	r1, [r7, #60]	@ 0x3c
 800521e:	6c3a      	ldr	r2, [r7, #64]	@ 0x40
 8005220:	e841 2300 	strex	r3, r2, [r1]
 8005224:	63bb      	str	r3, [r7, #56]	@ 0x38
 8005226:	6bbb      	ldr	r3, [r7, #56]	@ 0x38
 8005228:	2b00      	cmp	r3, #0
 800522a:	d1e6      	bne.n	80051fa <UART_EndRxTransfer+0x8>
 800522c:	687b      	ldr	r3, [r7, #4]
 800522e:	681b      	ldr	r3, [r3, #0]
 8005230:	3308      	adds	r3, #8
 8005232:	623b      	str	r3, [r7, #32]
 8005234:	6a3b      	ldr	r3, [r7, #32]
 8005236:	e853 3f00 	ldrex	r3, [r3]
 800523a:	61fb      	str	r3, [r7, #28]
 800523c:	69fb      	ldr	r3, [r7, #28]
 800523e:	f023 5380 	bic.w	r3, r3, #268435456	@ 0x10000000
 8005242:	f023 0301 	bic.w	r3, r3, #1
 8005246:	64bb      	str	r3, [r7, #72]	@ 0x48
 8005248:	687b      	ldr	r3, [r7, #4]
 800524a:	681b      	ldr	r3, [r3, #0]
 800524c:	3308      	adds	r3, #8
 800524e:	6cba      	ldr	r2, [r7, #72]	@ 0x48
 8005250:	62fa      	str	r2, [r7, #44]	@ 0x2c
 8005252:	62bb      	str	r3, [r7, #40]	@ 0x28
 8005254:	6ab9      	ldr	r1, [r7, #40]	@ 0x28
 8005256:	6afa      	ldr	r2, [r7, #44]	@ 0x2c
 8005258:	e841 2300 	strex	r3, r2, [r1]
 800525c:	627b      	str	r3, [r7, #36]	@ 0x24
 800525e:	6a7b      	ldr	r3, [r7, #36]	@ 0x24
 8005260:	2b00      	cmp	r3, #0
 8005262:	d1e3      	bne.n	800522c <UART_EndRxTransfer+0x3a>
 8005264:	687b      	ldr	r3, [r7, #4]
 8005266:	6edb      	ldr	r3, [r3, #108]	@ 0x6c
 8005268:	2b01      	cmp	r3, #1
 800526a:	d118      	bne.n	800529e <UART_EndRxTransfer+0xac>
 800526c:	687b      	ldr	r3, [r7, #4]
 800526e:	681b      	ldr	r3, [r3, #0]
 8005270:	60fb      	str	r3, [r7, #12]
 8005272:	68fb      	ldr	r3, [r7, #12]
 8005274:	e853 3f00 	ldrex	r3, [r3]
 8005278:	60bb      	str	r3, [r7, #8]
 800527a:	68bb      	ldr	r3, [r7, #8]
 800527c:	f023 0310 	bic.w	r3, r3, #16
 8005280:	647b      	str	r3, [r7, #68]	@ 0x44
 8005282:	687b      	ldr	r3, [r7, #4]
 8005284:	681b      	ldr	r3, [r3, #0]
 8005286:	461a      	mov	r2, r3
 8005288:	6c7b      	ldr	r3, [r7, #68]	@ 0x44
 800528a:	61bb      	str	r3, [r7, #24]
 800528c:	617a      	str	r2, [r7, #20]
 800528e:	6979      	ldr	r1, [r7, #20]
 8005290:	69ba      	ldr	r2, [r7, #24]
 8005292:	e841 2300 	strex	r3, r2, [r1]
 8005296:	613b      	str	r3, [r7, #16]
 8005298:	693b      	ldr	r3, [r7, #16]
 800529a:	2b00      	cmp	r3, #0
 800529c:	d1e6      	bne.n	800526c <UART_EndRxTransfer+0x7a>
 800529e:	687b      	ldr	r3, [r7, #4]
 80052a0:	2220      	movs	r2, #32
 80052a2:	f8c3 208c 	str.w	r2, [r3, #140]	@ 0x8c
 80052a6:	687b      	ldr	r3, [r7, #4]
 80052a8:	2200      	movs	r2, #0
 80052aa:	66da      	str	r2, [r3, #108]	@ 0x6c
 80052ac:	687b      	ldr	r3, [r7, #4]
 80052ae:	2200      	movs	r2, #0
 80052b0:	675a      	str	r2, [r3, #116]	@ 0x74
 80052b2:	bf00      	nop
 80052b4:	3754      	adds	r7, #84	@ 0x54
 80052b6:	46bd      	mov	sp, r7
 80052b8:	f85d 7b04 	ldr.w	r7, [sp], #4
 80052bc:	4770      	bx	lr

080052be <HAL_UARTEx_DisableFifoMode>:
 80052be:	b480      	push	{r7}
 80052c0:	b085      	sub	sp, #20
 80052c2:	af00      	add	r7, sp, #0
 80052c4:	6078      	str	r0, [r7, #4]
 80052c6:	687b      	ldr	r3, [r7, #4]
 80052c8:	f893 3084 	ldrb.w	r3, [r3, #132]	@ 0x84
 80052cc:	2b01      	cmp	r3, #1
 80052ce:	d101      	bne.n	80052d4 <HAL_UARTEx_DisableFifoMode+0x16>
 80052d0:	2302      	movs	r3, #2
 80052d2:	e027      	b.n	8005324 <HAL_UARTEx_DisableFifoMode+0x66>
 80052d4:	687b      	ldr	r3, [r7, #4]
 80052d6:	2201      	movs	r2, #1
 80052d8:	f883 2084 	strb.w	r2, [r3, #132]	@ 0x84
 80052dc:	687b      	ldr	r3, [r7, #4]
 80052de:	2224      	movs	r2, #36	@ 0x24
 80052e0:	f8c3 2088 	str.w	r2, [r3, #136]	@ 0x88
 80052e4:	687b      	ldr	r3, [r7, #4]
 80052e6:	681b      	ldr	r3, [r3, #0]
 80052e8:	681b      	ldr	r3, [r3, #0]
 80052ea:	60fb      	str	r3, [r7, #12]
 80052ec:	687b      	ldr	r3, [r7, #4]
 80052ee:	681b      	ldr	r3, [r3, #0]
 80052f0:	681a      	ldr	r2, [r3, #0]
 80052f2:	687b      	ldr	r3, [r7, #4]
 80052f4:	681b      	ldr	r3, [r3, #0]
 80052f6:	f022 0201 	bic.w	r2, r2, #1
 80052fa:	601a      	str	r2, [r3, #0]
 80052fc:	68fb      	ldr	r3, [r7, #12]
 80052fe:	f023 5300 	bic.w	r3, r3, #536870912	@ 0x20000000
 8005302:	60fb      	str	r3, [r7, #12]
 8005304:	687b      	ldr	r3, [r7, #4]
 8005306:	2200      	movs	r2, #0
 8005308:	665a      	str	r2, [r3, #100]	@ 0x64
 800530a:	687b      	ldr	r3, [r7, #4]
 800530c:	681b      	ldr	r3, [r3, #0]
 800530e:	68fa      	ldr	r2, [r7, #12]
 8005310:	601a      	str	r2, [r3, #0]
 8005312:	687b      	ldr	r3, [r7, #4]
 8005314:	2220      	movs	r2, #32
 8005316:	f8c3 2088 	str.w	r2, [r3, #136]	@ 0x88
 800531a:	687b      	ldr	r3, [r7, #4]
 800531c:	2200      	movs	r2, #0
 800531e:	f883 2084 	strb.w	r2, [r3, #132]	@ 0x84
 8005322:	2300      	movs	r3, #0
 8005324:	4618      	mov	r0, r3
 8005326:	3714      	adds	r7, #20
 8005328:	46bd      	mov	sp, r7
 800532a:	f85d 7b04 	ldr.w	r7, [sp], #4
 800532e:	4770      	bx	lr

08005330 <HAL_UARTEx_SetTxFifoThreshold>:
 8005330:	b580      	push	{r7, lr}
 8005332:	b084      	sub	sp, #16
 8005334:	af00      	add	r7, sp, #0
 8005336:	6078      	str	r0, [r7, #4]
 8005338:	6039      	str	r1, [r7, #0]
 800533a:	687b      	ldr	r3, [r7, #4]
 800533c:	f893 3084 	ldrb.w	r3, [r3, #132]	@ 0x84
 8005340:	2b01      	cmp	r3, #1
 8005342:	d101      	bne.n	8005348 <HAL_UARTEx_SetTxFifoThreshold+0x18>
 8005344:	2302      	movs	r3, #2
 8005346:	e02d      	b.n	80053a4 <HAL_UARTEx_SetTxFifoThreshold+0x74>
 8005348:	687b      	ldr	r3, [r7, #4]
 800534a:	2201      	movs	r2, #1
 800534c:	f883 2084 	strb.w	r2, [r3, #132]	@ 0x84
 8005350:	687b      	ldr	r3, [r7, #4]
 8005352:	2224      	movs	r2, #36	@ 0x24
 8005354:	f8c3 2088 	str.w	r2, [r3, #136]	@ 0x88
 8005358:	687b      	ldr	r3, [r7, #4]
 800535a:	681b      	ldr	r3, [r3, #0]
 800535c:	681b      	ldr	r3, [r3, #0]
 800535e:	60fb      	str	r3, [r7, #12]
 8005360:	687b      	ldr	r3, [r7, #4]
 8005362:	681b      	ldr	r3, [r3, #0]
 8005364:	681a      	ldr	r2, [r3, #0]
 8005366:	687b      	ldr	r3, [r7, #4]
 8005368:	681b      	ldr	r3, [r3, #0]
 800536a:	f022 0201 	bic.w	r2, r2, #1
 800536e:	601a      	str	r2, [r3, #0]
 8005370:	687b      	ldr	r3, [r7, #4]
 8005372:	681b      	ldr	r3, [r3, #0]
 8005374:	689b      	ldr	r3, [r3, #8]
 8005376:	f023 4160 	bic.w	r1, r3, #3758096384	@ 0xe0000000
 800537a:	687b      	ldr	r3, [r7, #4]
 800537c:	681b      	ldr	r3, [r3, #0]
 800537e:	683a      	ldr	r2, [r7, #0]
 8005380:	430a      	orrs	r2, r1
 8005382:	609a      	str	r2, [r3, #8]
 8005384:	6878      	ldr	r0, [r7, #4]
 8005386:	f000 f84f 	bl	8005428 <UARTEx_SetNbDataToProcess>
 800538a:	687b      	ldr	r3, [r7, #4]
 800538c:	681b      	ldr	r3, [r3, #0]
 800538e:	68fa      	ldr	r2, [r7, #12]
 8005390:	601a      	str	r2, [r3, #0]
 8005392:	687b      	ldr	r3, [r7, #4]
 8005394:	2220      	movs	r2, #32
 8005396:	f8c3 2088 	str.w	r2, [r3, #136]	@ 0x88
 800539a:	687b      	ldr	r3, [r7, #4]
 800539c:	2200      	movs	r2, #0
 800539e:	f883 2084 	strb.w	r2, [r3, #132]	@ 0x84
 80053a2:	2300      	movs	r3, #0
 80053a4:	4618      	mov	r0, r3
 80053a6:	3710      	adds	r7, #16
 80053a8:	46bd      	mov	sp, r7
 80053aa:	bd80      	pop	{r7, pc}

080053ac <HAL_UARTEx_SetRxFifoThreshold>:
 80053ac:	b580      	push	{r7, lr}
 80053ae:	b084      	sub	sp, #16
 80053b0:	af00      	add	r7, sp, #0
 80053b2:	6078      	str	r0, [r7, #4]
 80053b4:	6039      	str	r1, [r7, #0]
 80053b6:	687b      	ldr	r3, [r7, #4]
 80053b8:	f893 3084 	ldrb.w	r3, [r3, #132]	@ 0x84
 80053bc:	2b01      	cmp	r3, #1
 80053be:	d101      	bne.n	80053c4 <HAL_UARTEx_SetRxFifoThreshold+0x18>
 80053c0:	2302      	movs	r3, #2
 80053c2:	e02d      	b.n	8005420 <HAL_UARTEx_SetRxFifoThreshold+0x74>
 80053c4:	687b      	ldr	r3, [r7, #4]
 80053c6:	2201      	movs	r2, #1
 80053c8:	f883 2084 	strb.w	r2, [r3, #132]	@ 0x84
 80053cc:	687b      	ldr	r3, [r7, #4]
 80053ce:	2224      	movs	r2, #36	@ 0x24
 80053d0:	f8c3 2088 	str.w	r2, [r3, #136]	@ 0x88
 80053d4:	687b      	ldr	r3, [r7, #4]
 80053d6:	681b      	ldr	r3, [r3, #0]
 80053d8:	681b      	ldr	r3, [r3, #0]
 80053da:	60fb      	str	r3, [r7, #12]
 80053dc:	687b      	ldr	r3, [r7, #4]
 80053de:	681b      	ldr	r3, [r3, #0]
 80053e0:	681a      	ldr	r2, [r3, #0]
 80053e2:	687b      	ldr	r3, [r7, #4]
 80053e4:	681b      	ldr	r3, [r3, #0]
 80053e6:	f022 0201 	bic.w	r2, r2, #1
 80053ea:	601a      	str	r2, [r3, #0]
 80053ec:	687b      	ldr	r3, [r7, #4]
 80053ee:	681b      	ldr	r3, [r3, #0]
 80053f0:	689b      	ldr	r3, [r3, #8]
 80053f2:	f023 6160 	bic.w	r1, r3, #234881024	@ 0xe000000
 80053f6:	687b      	ldr	r3, [r7, #4]
 80053f8:	681b      	ldr	r3, [r3, #0]
 80053fa:	683a      	ldr	r2, [r7, #0]
 80053fc:	430a      	orrs	r2, r1
 80053fe:	609a      	str	r2, [r3, #8]
 8005400:	6878      	ldr	r0, [r7, #4]
 8005402:	f000 f811 	bl	8005428 <UARTEx_SetNbDataToProcess>
 8005406:	687b      	ldr	r3, [r7, #4]
 8005408:	681b      	ldr	r3, [r3, #0]
 800540a:	68fa      	ldr	r2, [r7, #12]
 800540c:	601a      	str	r2, [r3, #0]
 800540e:	687b      	ldr	r3, [r7, #4]
 8005410:	2220      	movs	r2, #32
 8005412:	f8c3 2088 	str.w	r2, [r3, #136]	@ 0x88
 8005416:	687b      	ldr	r3, [r7, #4]
 8005418:	2200      	movs	r2, #0
 800541a:	f883 2084 	strb.w	r2, [r3, #132]	@ 0x84
 800541e:	2300      	movs	r3, #0
 8005420:	4618      	mov	r0, r3
 8005422:	3710      	adds	r7, #16
 8005424:	46bd      	mov	sp, r7
 8005426:	bd80      	pop	{r7, pc}

08005428 <UARTEx_SetNbDataToProcess>:
 8005428:	b480      	push	{r7}
 800542a:	b085      	sub	sp, #20
 800542c:	af00      	add	r7, sp, #0
 800542e:	6078      	str	r0, [r7, #4]
 8005430:	687b      	ldr	r3, [r7, #4]
 8005432:	6e5b      	ldr	r3, [r3, #100]	@ 0x64
 8005434:	2b00      	cmp	r3, #0
 8005436:	d108      	bne.n	800544a <UARTEx_SetNbDataToProcess+0x22>
 8005438:	687b      	ldr	r3, [r7, #4]
 800543a:	2201      	movs	r2, #1
 800543c:	f8a3 206a 	strh.w	r2, [r3, #106]	@ 0x6a
 8005440:	687b      	ldr	r3, [r7, #4]
 8005442:	2201      	movs	r2, #1
 8005444:	f8a3 2068 	strh.w	r2, [r3, #104]	@ 0x68
 8005448:	e031      	b.n	80054ae <UARTEx_SetNbDataToProcess+0x86>
 800544a:	2308      	movs	r3, #8
 800544c:	73fb      	strb	r3, [r7, #15]
 800544e:	2308      	movs	r3, #8
 8005450:	73bb      	strb	r3, [r7, #14]
 8005452:	687b      	ldr	r3, [r7, #4]
 8005454:	681b      	ldr	r3, [r3, #0]
 8005456:	689b      	ldr	r3, [r3, #8]
 8005458:	0e5b      	lsrs	r3, r3, #25
 800545a:	b2db      	uxtb	r3, r3
 800545c:	f003 0307 	and.w	r3, r3, #7
 8005460:	737b      	strb	r3, [r7, #13]
 8005462:	687b      	ldr	r3, [r7, #4]
 8005464:	681b      	ldr	r3, [r3, #0]
 8005466:	689b      	ldr	r3, [r3, #8]
 8005468:	0f5b      	lsrs	r3, r3, #29
 800546a:	b2db      	uxtb	r3, r3
 800546c:	f003 0307 	and.w	r3, r3, #7
 8005470:	733b      	strb	r3, [r7, #12]
 8005472:	7bbb      	ldrb	r3, [r7, #14]
 8005474:	7b3a      	ldrb	r2, [r7, #12]
 8005476:	4911      	ldr	r1, [pc, #68]	@ (80054bc <UARTEx_SetNbDataToProcess+0x94>)
 8005478:	5c8a      	ldrb	r2, [r1, r2]
 800547a:	fb02 f303 	mul.w	r3, r2, r3
 800547e:	7b3a      	ldrb	r2, [r7, #12]
 8005480:	490f      	ldr	r1, [pc, #60]	@ (80054c0 <UARTEx_SetNbDataToProcess+0x98>)
 8005482:	5c8a      	ldrb	r2, [r1, r2]
 8005484:	fb93 f3f2 	sdiv	r3, r3, r2
 8005488:	b29a      	uxth	r2, r3
 800548a:	687b      	ldr	r3, [r7, #4]
 800548c:	f8a3 206a 	strh.w	r2, [r3, #106]	@ 0x6a
 8005490:	7bfb      	ldrb	r3, [r7, #15]
 8005492:	7b7a      	ldrb	r2, [r7, #13]
 8005494:	4909      	ldr	r1, [pc, #36]	@ (80054bc <UARTEx_SetNbDataToProcess+0x94>)
 8005496:	5c8a      	ldrb	r2, [r1, r2]
 8005498:	fb02 f303 	mul.w	r3, r2, r3
 800549c:	7b7a      	ldrb	r2, [r7, #13]
 800549e:	4908      	ldr	r1, [pc, #32]	@ (80054c0 <UARTEx_SetNbDataToProcess+0x98>)
 80054a0:	5c8a      	ldrb	r2, [r1, r2]
 80054a2:	fb93 f3f2 	sdiv	r3, r3, r2
 80054a6:	b29a      	uxth	r2, r3
 80054a8:	687b      	ldr	r3, [r7, #4]
 80054aa:	f8a3 2068 	strh.w	r2, [r3, #104]	@ 0x68
 80054ae:	bf00      	nop
 80054b0:	3714      	adds	r7, #20
 80054b2:	46bd      	mov	sp, r7
 80054b4:	f85d 7b04 	ldr.w	r7, [sp], #4
 80054b8:	4770      	bx	lr
 80054ba:	bf00      	nop
 80054bc:	08006d84 	.word	0x08006d84
 80054c0:	08006d8c 	.word	0x08006d8c

080054c4 <VL53L4CD_SensorInit>:
 80054c4:	b580      	push	{r7, lr}
 80054c6:	b084      	sub	sp, #16
 80054c8:	af00      	add	r7, sp, #0
 80054ca:	4603      	mov	r3, r0
 80054cc:	80fb      	strh	r3, [r7, #6]
 80054ce:	2300      	movs	r3, #0
 80054d0:	73fb      	strb	r3, [r7, #15]
 80054d2:	2301      	movs	r3, #1
 80054d4:	737b      	strb	r3, [r7, #13]
 80054d6:	2300      	movs	r3, #0
 80054d8:	817b      	strh	r3, [r7, #10]
 80054da:	f107 0209 	add.w	r2, r7, #9
 80054de:	88fb      	ldrh	r3, [r7, #6]
 80054e0:	21e5      	movs	r1, #229	@ 0xe5
 80054e2:	4618      	mov	r0, r3
 80054e4:	f7fc f90c 	bl	8001700 <VL53L4CD_RdByte>
 80054e8:	4603      	mov	r3, r0
 80054ea:	461a      	mov	r2, r3
 80054ec:	7bfb      	ldrb	r3, [r7, #15]
 80054ee:	4313      	orrs	r3, r2
 80054f0:	73fb      	strb	r3, [r7, #15]
 80054f2:	7a7b      	ldrb	r3, [r7, #9]
 80054f4:	2b03      	cmp	r3, #3
 80054f6:	d102      	bne.n	80054fe <VL53L4CD_SensorInit+0x3a>
 80054f8:	2300      	movs	r3, #0
 80054fa:	737b      	strb	r3, [r7, #13]
 80054fc:	e00b      	b.n	8005516 <VL53L4CD_SensorInit+0x52>
 80054fe:	897b      	ldrh	r3, [r7, #10]
 8005500:	f5b3 7f7a 	cmp.w	r3, #1000	@ 0x3e8
 8005504:	d203      	bcs.n	800550e <VL53L4CD_SensorInit+0x4a>
 8005506:	897b      	ldrh	r3, [r7, #10]
 8005508:	3301      	adds	r3, #1
 800550a:	817b      	strh	r3, [r7, #10]
 800550c:	e003      	b.n	8005516 <VL53L4CD_SensorInit+0x52>
 800550e:	2300      	movs	r3, #0
 8005510:	737b      	strb	r3, [r7, #13]
 8005512:	23ff      	movs	r3, #255	@ 0xff
 8005514:	73fb      	strb	r3, [r7, #15]
 8005516:	88fb      	ldrh	r3, [r7, #6]
 8005518:	2101      	movs	r1, #1
 800551a:	4618      	mov	r0, r3
 800551c:	f7fc f99c 	bl	8001858 <VL53L4CD_WaitMs>
 8005520:	7b7b      	ldrb	r3, [r7, #13]
 8005522:	2b01      	cmp	r3, #1
 8005524:	d0d9      	beq.n	80054da <VL53L4CD_SensorInit+0x16>
 8005526:	232d      	movs	r3, #45	@ 0x2d
 8005528:	73bb      	strb	r3, [r7, #14]
 800552a:	e011      	b.n	8005550 <VL53L4CD_SensorInit+0x8c>
 800552c:	7bbb      	ldrb	r3, [r7, #14]
 800552e:	b299      	uxth	r1, r3
 8005530:	7bbb      	ldrb	r3, [r7, #14]
 8005532:	3b2d      	subs	r3, #45	@ 0x2d
 8005534:	4a44      	ldr	r2, [pc, #272]	@ (8005648 <VL53L4CD_SensorInit+0x184>)
 8005536:	5cd2      	ldrb	r2, [r2, r3]
 8005538:	88fb      	ldrh	r3, [r7, #6]
 800553a:	4618      	mov	r0, r3
 800553c:	f7fc f904 	bl	8001748 <VL53L4CD_WrByte>
 8005540:	4603      	mov	r3, r0
 8005542:	461a      	mov	r2, r3
 8005544:	7bfb      	ldrb	r3, [r7, #15]
 8005546:	4313      	orrs	r3, r2
 8005548:	73fb      	strb	r3, [r7, #15]
 800554a:	7bbb      	ldrb	r3, [r7, #14]
 800554c:	3301      	adds	r3, #1
 800554e:	73bb      	strb	r3, [r7, #14]
 8005550:	7bbb      	ldrb	r3, [r7, #14]
 8005552:	2b87      	cmp	r3, #135	@ 0x87
 8005554:	d9ea      	bls.n	800552c <VL53L4CD_SensorInit+0x68>
 8005556:	88fb      	ldrh	r3, [r7, #6]
 8005558:	2240      	movs	r2, #64	@ 0x40
 800555a:	2187      	movs	r1, #135	@ 0x87
 800555c:	4618      	mov	r0, r3
 800555e:	f7fc f8f3 	bl	8001748 <VL53L4CD_WrByte>
 8005562:	4603      	mov	r3, r0
 8005564:	461a      	mov	r2, r3
 8005566:	7bfb      	ldrb	r3, [r7, #15]
 8005568:	4313      	orrs	r3, r2
 800556a:	73fb      	strb	r3, [r7, #15]
 800556c:	2300      	movs	r3, #0
 800556e:	817b      	strh	r3, [r7, #10]
 8005570:	2301      	movs	r3, #1
 8005572:	737b      	strb	r3, [r7, #13]
 8005574:	f107 0209 	add.w	r2, r7, #9
 8005578:	88fb      	ldrh	r3, [r7, #6]
 800557a:	4611      	mov	r1, r2
 800557c:	4618      	mov	r0, r3
 800557e:	f000 f8c5 	bl	800570c <VL53L4CD_CheckForDataReady>
 8005582:	4603      	mov	r3, r0
 8005584:	461a      	mov	r2, r3
 8005586:	7bfb      	ldrb	r3, [r7, #15]
 8005588:	4313      	orrs	r3, r2
 800558a:	73fb      	strb	r3, [r7, #15]
 800558c:	7a7b      	ldrb	r3, [r7, #9]
 800558e:	2b01      	cmp	r3, #1
 8005590:	d102      	bne.n	8005598 <VL53L4CD_SensorInit+0xd4>
 8005592:	2300      	movs	r3, #0
 8005594:	737b      	strb	r3, [r7, #13]
 8005596:	e00b      	b.n	80055b0 <VL53L4CD_SensorInit+0xec>
 8005598:	897b      	ldrh	r3, [r7, #10]
 800559a:	f5b3 7f7a 	cmp.w	r3, #1000	@ 0x3e8
 800559e:	d203      	bcs.n	80055a8 <VL53L4CD_SensorInit+0xe4>
 80055a0:	897b      	ldrh	r3, [r7, #10]
 80055a2:	3301      	adds	r3, #1
 80055a4:	817b      	strh	r3, [r7, #10]
 80055a6:	e003      	b.n	80055b0 <VL53L4CD_SensorInit+0xec>
 80055a8:	2300      	movs	r3, #0
 80055aa:	737b      	strb	r3, [r7, #13]
 80055ac:	23ff      	movs	r3, #255	@ 0xff
 80055ae:	73fb      	strb	r3, [r7, #15]
 80055b0:	88fb      	ldrh	r3, [r7, #6]
 80055b2:	2101      	movs	r1, #1
 80055b4:	4618      	mov	r0, r3
 80055b6:	f7fc f94f 	bl	8001858 <VL53L4CD_WaitMs>
 80055ba:	7b7b      	ldrb	r3, [r7, #13]
 80055bc:	2b01      	cmp	r3, #1
 80055be:	d0d9      	beq.n	8005574 <VL53L4CD_SensorInit+0xb0>
 80055c0:	88fb      	ldrh	r3, [r7, #6]
 80055c2:	4618      	mov	r0, r3
 80055c4:	f000 f842 	bl	800564c <VL53L4CD_ClearInterrupt>
 80055c8:	4603      	mov	r3, r0
 80055ca:	461a      	mov	r2, r3
 80055cc:	7bfb      	ldrb	r3, [r7, #15]
 80055ce:	4313      	orrs	r3, r2
 80055d0:	73fb      	strb	r3, [r7, #15]
 80055d2:	88fb      	ldrh	r3, [r7, #6]
 80055d4:	4618      	mov	r0, r3
 80055d6:	f000 f882 	bl	80056de <VL53L4CD_StopRanging>
 80055da:	4603      	mov	r3, r0
 80055dc:	461a      	mov	r2, r3
 80055de:	7bfb      	ldrb	r3, [r7, #15]
 80055e0:	4313      	orrs	r3, r2
 80055e2:	73fb      	strb	r3, [r7, #15]
 80055e4:	88fb      	ldrh	r3, [r7, #6]
 80055e6:	2209      	movs	r2, #9
 80055e8:	2108      	movs	r1, #8
 80055ea:	4618      	mov	r0, r3
 80055ec:	f7fc f8ac 	bl	8001748 <VL53L4CD_WrByte>
 80055f0:	4603      	mov	r3, r0
 80055f2:	461a      	mov	r2, r3
 80055f4:	7bfb      	ldrb	r3, [r7, #15]
 80055f6:	4313      	orrs	r3, r2
 80055f8:	73fb      	strb	r3, [r7, #15]
 80055fa:	88fb      	ldrh	r3, [r7, #6]
 80055fc:	2200      	movs	r2, #0
 80055fe:	210b      	movs	r1, #11
 8005600:	4618      	mov	r0, r3
 8005602:	f7fc f8a1 	bl	8001748 <VL53L4CD_WrByte>
 8005606:	4603      	mov	r3, r0
 8005608:	461a      	mov	r2, r3
 800560a:	7bfb      	ldrb	r3, [r7, #15]
 800560c:	4313      	orrs	r3, r2
 800560e:	73fb      	strb	r3, [r7, #15]
 8005610:	88fb      	ldrh	r3, [r7, #6]
 8005612:	f44f 62a0 	mov.w	r2, #1280	@ 0x500
 8005616:	2124      	movs	r1, #36	@ 0x24
 8005618:	4618      	mov	r0, r3
 800561a:	f7fc f8bb 	bl	8001794 <VL53L4CD_WrWord>
 800561e:	4603      	mov	r3, r0
 8005620:	461a      	mov	r2, r3
 8005622:	7bfb      	ldrb	r3, [r7, #15]
 8005624:	4313      	orrs	r3, r2
 8005626:	73fb      	strb	r3, [r7, #15]
 8005628:	88fb      	ldrh	r3, [r7, #6]
 800562a:	2200      	movs	r2, #0
 800562c:	2132      	movs	r1, #50	@ 0x32
 800562e:	4618      	mov	r0, r3
 8005630:	f000 f8b0 	bl	8005794 <VL53L4CD_SetRangeTiming>
 8005634:	4603      	mov	r3, r0
 8005636:	461a      	mov	r2, r3
 8005638:	7bfb      	ldrb	r3, [r7, #15]
 800563a:	4313      	orrs	r3, r2
 800563c:	73fb      	strb	r3, [r7, #15]
 800563e:	7bfb      	ldrb	r3, [r7, #15]
 8005640:	4618      	mov	r0, r3
 8005642:	3710      	adds	r7, #16
 8005644:	46bd      	mov	sp, r7
 8005646:	bd80      	pop	{r7, pc}
 8005648:	08006d94 	.word	0x08006d94

0800564c <VL53L4CD_ClearInterrupt>:
 800564c:	b580      	push	{r7, lr}
 800564e:	b084      	sub	sp, #16
 8005650:	af00      	add	r7, sp, #0
 8005652:	4603      	mov	r3, r0
 8005654:	80fb      	strh	r3, [r7, #6]
 8005656:	2300      	movs	r3, #0
 8005658:	73fb      	strb	r3, [r7, #15]
 800565a:	88fb      	ldrh	r3, [r7, #6]
 800565c:	2201      	movs	r2, #1
 800565e:	2186      	movs	r1, #134	@ 0x86
 8005660:	4618      	mov	r0, r3
 8005662:	f7fc f871 	bl	8001748 <VL53L4CD_WrByte>
 8005666:	4603      	mov	r3, r0
 8005668:	461a      	mov	r2, r3
 800566a:	7bfb      	ldrb	r3, [r7, #15]
 800566c:	4313      	orrs	r3, r2
 800566e:	73fb      	strb	r3, [r7, #15]
 8005670:	7bfb      	ldrb	r3, [r7, #15]
 8005672:	4618      	mov	r0, r3
 8005674:	3710      	adds	r7, #16
 8005676:	46bd      	mov	sp, r7
 8005678:	bd80      	pop	{r7, pc}

0800567a <VL53L4CD_StartRanging>:
 800567a:	b580      	push	{r7, lr}
 800567c:	b084      	sub	sp, #16
 800567e:	af00      	add	r7, sp, #0
 8005680:	4603      	mov	r3, r0
 8005682:	80fb      	strh	r3, [r7, #6]
 8005684:	2300      	movs	r3, #0
 8005686:	73fb      	strb	r3, [r7, #15]
 8005688:	f107 0208 	add.w	r2, r7, #8
 800568c:	88fb      	ldrh	r3, [r7, #6]
 800568e:	216c      	movs	r1, #108	@ 0x6c
 8005690:	4618      	mov	r0, r3
 8005692:	f7fb ffd3 	bl	800163c <VL53L4CD_RdDWord>
 8005696:	4603      	mov	r3, r0
 8005698:	461a      	mov	r2, r3
 800569a:	7bfb      	ldrb	r3, [r7, #15]
 800569c:	4313      	orrs	r3, r2
 800569e:	73fb      	strb	r3, [r7, #15]
 80056a0:	68bb      	ldr	r3, [r7, #8]
 80056a2:	2b00      	cmp	r3, #0
 80056a4:	d10b      	bne.n	80056be <VL53L4CD_StartRanging+0x44>
 80056a6:	88fb      	ldrh	r3, [r7, #6]
 80056a8:	2221      	movs	r2, #33	@ 0x21
 80056aa:	2187      	movs	r1, #135	@ 0x87
 80056ac:	4618      	mov	r0, r3
 80056ae:	f7fc f84b 	bl	8001748 <VL53L4CD_WrByte>
 80056b2:	4603      	mov	r3, r0
 80056b4:	461a      	mov	r2, r3
 80056b6:	7bfb      	ldrb	r3, [r7, #15]
 80056b8:	4313      	orrs	r3, r2
 80056ba:	73fb      	strb	r3, [r7, #15]
 80056bc:	e00a      	b.n	80056d4 <VL53L4CD_StartRanging+0x5a>
 80056be:	88fb      	ldrh	r3, [r7, #6]
 80056c0:	2240      	movs	r2, #64	@ 0x40
 80056c2:	2187      	movs	r1, #135	@ 0x87
 80056c4:	4618      	mov	r0, r3
 80056c6:	f7fc f83f 	bl	8001748 <VL53L4CD_WrByte>
 80056ca:	4603      	mov	r3, r0
 80056cc:	461a      	mov	r2, r3
 80056ce:	7bfb      	ldrb	r3, [r7, #15]
 80056d0:	4313      	orrs	r3, r2
 80056d2:	73fb      	strb	r3, [r7, #15]
 80056d4:	7bfb      	ldrb	r3, [r7, #15]
 80056d6:	4618      	mov	r0, r3
 80056d8:	3710      	adds	r7, #16
 80056da:	46bd      	mov	sp, r7
 80056dc:	bd80      	pop	{r7, pc}

080056de <VL53L4CD_StopRanging>:
 80056de:	b580      	push	{r7, lr}
 80056e0:	b084      	sub	sp, #16
 80056e2:	af00      	add	r7, sp, #0
 80056e4:	4603      	mov	r3, r0
 80056e6:	80fb      	strh	r3, [r7, #6]
 80056e8:	2300      	movs	r3, #0
 80056ea:	73fb      	strb	r3, [r7, #15]
 80056ec:	88fb      	ldrh	r3, [r7, #6]
 80056ee:	2280      	movs	r2, #128	@ 0x80
 80056f0:	2187      	movs	r1, #135	@ 0x87
 80056f2:	4618      	mov	r0, r3
 80056f4:	f7fc f828 	bl	8001748 <VL53L4CD_WrByte>
 80056f8:	4603      	mov	r3, r0
 80056fa:	461a      	mov	r2, r3
 80056fc:	7bfb      	ldrb	r3, [r7, #15]
 80056fe:	4313      	orrs	r3, r2
 8005700:	73fb      	strb	r3, [r7, #15]
 8005702:	7bfb      	ldrb	r3, [r7, #15]
 8005704:	4618      	mov	r0, r3
 8005706:	3710      	adds	r7, #16
 8005708:	46bd      	mov	sp, r7
 800570a:	bd80      	pop	{r7, pc}

0800570c <VL53L4CD_CheckForDataReady>:
 800570c:	b580      	push	{r7, lr}
 800570e:	b084      	sub	sp, #16
 8005710:	af00      	add	r7, sp, #0
 8005712:	4603      	mov	r3, r0
 8005714:	6039      	str	r1, [r7, #0]
 8005716:	80fb      	strh	r3, [r7, #6]
 8005718:	2300      	movs	r3, #0
 800571a:	73bb      	strb	r3, [r7, #14]
 800571c:	f107 020d 	add.w	r2, r7, #13
 8005720:	88fb      	ldrh	r3, [r7, #6]
 8005722:	2130      	movs	r1, #48	@ 0x30
 8005724:	4618      	mov	r0, r3
 8005726:	f7fb ffeb 	bl	8001700 <VL53L4CD_RdByte>
 800572a:	4603      	mov	r3, r0
 800572c:	461a      	mov	r2, r3
 800572e:	7bbb      	ldrb	r3, [r7, #14]
 8005730:	4313      	orrs	r3, r2
 8005732:	73bb      	strb	r3, [r7, #14]
 8005734:	7b7b      	ldrb	r3, [r7, #13]
 8005736:	f003 0310 	and.w	r3, r3, #16
 800573a:	b2db      	uxtb	r3, r3
 800573c:	737b      	strb	r3, [r7, #13]
 800573e:	7b7b      	ldrb	r3, [r7, #13]
 8005740:	091b      	lsrs	r3, r3, #4
 8005742:	b2db      	uxtb	r3, r3
 8005744:	737b      	strb	r3, [r7, #13]
 8005746:	7b7b      	ldrb	r3, [r7, #13]
 8005748:	2b01      	cmp	r3, #1
 800574a:	d102      	bne.n	8005752 <VL53L4CD_CheckForDataReady+0x46>
 800574c:	2300      	movs	r3, #0
 800574e:	73fb      	strb	r3, [r7, #15]
 8005750:	e001      	b.n	8005756 <VL53L4CD_CheckForDataReady+0x4a>
 8005752:	2301      	movs	r3, #1
 8005754:	73fb      	strb	r3, [r7, #15]
 8005756:	f107 020d 	add.w	r2, r7, #13
 800575a:	88fb      	ldrh	r3, [r7, #6]
 800575c:	2131      	movs	r1, #49	@ 0x31
 800575e:	4618      	mov	r0, r3
 8005760:	f7fb ffce 	bl	8001700 <VL53L4CD_RdByte>
 8005764:	4603      	mov	r3, r0
 8005766:	461a      	mov	r2, r3
 8005768:	7bbb      	ldrb	r3, [r7, #14]
 800576a:	4313      	orrs	r3, r2
 800576c:	73bb      	strb	r3, [r7, #14]
 800576e:	7b7b      	ldrb	r3, [r7, #13]
 8005770:	f003 0201 	and.w	r2, r3, #1
 8005774:	7bfb      	ldrb	r3, [r7, #15]
 8005776:	429a      	cmp	r2, r3
 8005778:	d103      	bne.n	8005782 <VL53L4CD_CheckForDataReady+0x76>
 800577a:	683b      	ldr	r3, [r7, #0]
 800577c:	2201      	movs	r2, #1
 800577e:	701a      	strb	r2, [r3, #0]
 8005780:	e002      	b.n	8005788 <VL53L4CD_CheckForDataReady+0x7c>
 8005782:	683b      	ldr	r3, [r7, #0]
 8005784:	2200      	movs	r2, #0
 8005786:	701a      	strb	r2, [r3, #0]
 8005788:	7bbb      	ldrb	r3, [r7, #14]
 800578a:	4618      	mov	r0, r3
 800578c:	3710      	adds	r7, #16
 800578e:	46bd      	mov	sp, r7
 8005790:	bd80      	pop	{r7, pc}
	...

08005794 <VL53L4CD_SetRangeTiming>:
 8005794:	b580      	push	{r7, lr}
 8005796:	b08c      	sub	sp, #48	@ 0x30
 8005798:	af00      	add	r7, sp, #0
 800579a:	4603      	mov	r3, r0
 800579c:	60b9      	str	r1, [r7, #8]
 800579e:	607a      	str	r2, [r7, #4]
 80057a0:	81fb      	strh	r3, [r7, #14]
 80057a2:	2300      	movs	r3, #0
 80057a4:	f887 302f 	strb.w	r3, [r7, #47]	@ 0x2f
 80057a8:	2300      	movs	r3, #0
 80057aa:	62bb      	str	r3, [r7, #40]	@ 0x28
 80057ac:	2300      	movs	r3, #0
 80057ae:	627b      	str	r3, [r7, #36]	@ 0x24
 80057b0:	4b84      	ldr	r3, [pc, #528]	@ (80059c4 <VL53L4CD_SetRangeTiming+0x230>)
 80057b2:	61fb      	str	r3, [r7, #28]
 80057b4:	f107 0214 	add.w	r2, r7, #20
 80057b8:	89fb      	ldrh	r3, [r7, #14]
 80057ba:	2106      	movs	r1, #6
 80057bc:	4618      	mov	r0, r3
 80057be:	f7fb ff6f 	bl	80016a0 <VL53L4CD_RdWord>
 80057c2:	4603      	mov	r3, r0
 80057c4:	461a      	mov	r2, r3
 80057c6:	f897 302f 	ldrb.w	r3, [r7, #47]	@ 0x2f
 80057ca:	4313      	orrs	r3, r2
 80057cc:	f887 302f 	strb.w	r3, [r7, #47]	@ 0x2f
 80057d0:	8abb      	ldrh	r3, [r7, #20]
 80057d2:	2b00      	cmp	r3, #0
 80057d4:	d012      	beq.n	80057fc <VL53L4CD_SetRangeTiming+0x68>
 80057d6:	68bb      	ldr	r3, [r7, #8]
 80057d8:	f44f 727a 	mov.w	r2, #1000	@ 0x3e8
 80057dc:	fb02 f303 	mul.w	r3, r2, r3
 80057e0:	627b      	str	r3, [r7, #36]	@ 0x24
 80057e2:	8abb      	ldrh	r3, [r7, #20]
 80057e4:	461a      	mov	r2, r3
 80057e6:	f04f 4380 	mov.w	r3, #1073741824	@ 0x40000000
 80057ea:	fbb3 f2f2 	udiv	r2, r3, r2
 80057ee:	4613      	mov	r3, r2
 80057f0:	00db      	lsls	r3, r3, #3
 80057f2:	4413      	add	r3, r2
 80057f4:	021b      	lsls	r3, r3, #8
 80057f6:	099b      	lsrs	r3, r3, #6
 80057f8:	62bb      	str	r3, [r7, #40]	@ 0x28
 80057fa:	e005      	b.n	8005808 <VL53L4CD_SetRangeTiming+0x74>
 80057fc:	f897 302f 	ldrb.w	r3, [r7, #47]	@ 0x2f
 8005800:	f063 0301 	orn	r3, r3, #1
 8005804:	f887 302f 	strb.w	r3, [r7, #47]	@ 0x2f
 8005808:	68bb      	ldr	r3, [r7, #8]
 800580a:	2b09      	cmp	r3, #9
 800580c:	d906      	bls.n	800581c <VL53L4CD_SetRangeTiming+0x88>
 800580e:	68bb      	ldr	r3, [r7, #8]
 8005810:	2bc8      	cmp	r3, #200	@ 0xc8
 8005812:	d803      	bhi.n	800581c <VL53L4CD_SetRangeTiming+0x88>
 8005814:	f897 302f 	ldrb.w	r3, [r7, #47]	@ 0x2f
 8005818:	2b00      	cmp	r3, #0
 800581a:	d006      	beq.n	800582a <VL53L4CD_SetRangeTiming+0x96>
 800581c:	f897 302f 	ldrb.w	r3, [r7, #47]	@ 0x2f
 8005820:	f063 0301 	orn	r3, r3, #1
 8005824:	f887 302f 	strb.w	r3, [r7, #47]	@ 0x2f
 8005828:	e05e      	b.n	80058e8 <VL53L4CD_SetRangeTiming+0x154>
 800582a:	687b      	ldr	r3, [r7, #4]
 800582c:	2b00      	cmp	r3, #0
 800582e:	d111      	bne.n	8005854 <VL53L4CD_SetRangeTiming+0xc0>
 8005830:	89fb      	ldrh	r3, [r7, #14]
 8005832:	2200      	movs	r2, #0
 8005834:	216c      	movs	r1, #108	@ 0x6c
 8005836:	4618      	mov	r0, r3
 8005838:	f7fb ffda 	bl	80017f0 <VL53L4CD_WrDWord>
 800583c:	4603      	mov	r3, r0
 800583e:	461a      	mov	r2, r3
 8005840:	f897 302f 	ldrb.w	r3, [r7, #47]	@ 0x2f
 8005844:	4313      	orrs	r3, r2
 8005846:	f887 302f 	strb.w	r3, [r7, #47]	@ 0x2f
 800584a:	6a7b      	ldr	r3, [r7, #36]	@ 0x24
 800584c:	f6a3 13c4 	subw	r3, r3, #2500	@ 0x9c4
 8005850:	627b      	str	r3, [r7, #36]	@ 0x24
 8005852:	e049      	b.n	80058e8 <VL53L4CD_SetRangeTiming+0x154>
 8005854:	687a      	ldr	r2, [r7, #4]
 8005856:	68bb      	ldr	r3, [r7, #8]
 8005858:	429a      	cmp	r2, r3
 800585a:	d93f      	bls.n	80058dc <VL53L4CD_SetRangeTiming+0x148>
 800585c:	f107 0216 	add.w	r2, r7, #22
 8005860:	89fb      	ldrh	r3, [r7, #14]
 8005862:	21de      	movs	r1, #222	@ 0xde
 8005864:	4618      	mov	r0, r3
 8005866:	f7fb ff1b 	bl	80016a0 <VL53L4CD_RdWord>
 800586a:	4603      	mov	r3, r0
 800586c:	461a      	mov	r2, r3
 800586e:	f897 302f 	ldrb.w	r3, [r7, #47]	@ 0x2f
 8005872:	4313      	orrs	r3, r2
 8005874:	f887 302f 	strb.w	r3, [r7, #47]	@ 0x2f
 8005878:	8afb      	ldrh	r3, [r7, #22]
 800587a:	f3c3 0309 	ubfx	r3, r3, #0, #10
 800587e:	b29b      	uxth	r3, r3
 8005880:	82fb      	strh	r3, [r7, #22]
 8005882:	687b      	ldr	r3, [r7, #4]
 8005884:	ee07 3a90 	vmov	s15, r3
 8005888:	eeb8 7a67 	vcvt.f32.u32	s14, s15
 800588c:	edd7 7a07 	vldr	s15, [r7, #28]
 8005890:	ee27 7a27 	vmul.f32	s14, s14, s15
 8005894:	8afb      	ldrh	r3, [r7, #22]
 8005896:	ee07 3a90 	vmov	s15, r3
 800589a:	eef8 7a67 	vcvt.f32.u32	s15, s15
 800589e:	ee67 7a27 	vmul.f32	s15, s14, s15
 80058a2:	edc7 7a07 	vstr	s15, [r7, #28]
 80058a6:	edd7 7a07 	vldr	s15, [r7, #28]
 80058aa:	eefc 7ae7 	vcvt.u32.f32	s15, s15
 80058ae:	89fb      	ldrh	r3, [r7, #14]
 80058b0:	ee17 2a90 	vmov	r2, s15
 80058b4:	216c      	movs	r1, #108	@ 0x6c
 80058b6:	4618      	mov	r0, r3
 80058b8:	f7fb ff9a 	bl	80017f0 <VL53L4CD_WrDWord>
 80058bc:	4603      	mov	r3, r0
 80058be:	461a      	mov	r2, r3
 80058c0:	f897 302f 	ldrb.w	r3, [r7, #47]	@ 0x2f
 80058c4:	4313      	orrs	r3, r2
 80058c6:	f887 302f 	strb.w	r3, [r7, #47]	@ 0x2f
 80058ca:	6a7b      	ldr	r3, [r7, #36]	@ 0x24
 80058cc:	f5a3 5386 	sub.w	r3, r3, #4288	@ 0x10c0
 80058d0:	3b0c      	subs	r3, #12
 80058d2:	627b      	str	r3, [r7, #36]	@ 0x24
 80058d4:	6a7b      	ldr	r3, [r7, #36]	@ 0x24
 80058d6:	085b      	lsrs	r3, r3, #1
 80058d8:	627b      	str	r3, [r7, #36]	@ 0x24
 80058da:	e005      	b.n	80058e8 <VL53L4CD_SetRangeTiming+0x154>
 80058dc:	f897 302f 	ldrb.w	r3, [r7, #47]	@ 0x2f
 80058e0:	f063 0301 	orn	r3, r3, #1
 80058e4:	f887 302f 	strb.w	r3, [r7, #47]	@ 0x2f
 80058e8:	f897 302f 	ldrb.w	r3, [r7, #47]	@ 0x2f
 80058ec:	2bfe      	cmp	r3, #254	@ 0xfe
 80058ee:	d063      	beq.n	80059b8 <VL53L4CD_SetRangeTiming+0x224>
 80058f0:	2300      	movs	r3, #0
 80058f2:	85bb      	strh	r3, [r7, #44]	@ 0x2c
 80058f4:	6a7b      	ldr	r3, [r7, #36]	@ 0x24
 80058f6:	031b      	lsls	r3, r3, #12
 80058f8:	627b      	str	r3, [r7, #36]	@ 0x24
 80058fa:	6abb      	ldr	r3, [r7, #40]	@ 0x28
 80058fc:	011b      	lsls	r3, r3, #4
 80058fe:	61bb      	str	r3, [r7, #24]
 8005900:	69bb      	ldr	r3, [r7, #24]
 8005902:	09da      	lsrs	r2, r3, #7
 8005904:	6a7b      	ldr	r3, [r7, #36]	@ 0x24
 8005906:	441a      	add	r2, r3
 8005908:	69bb      	ldr	r3, [r7, #24]
 800590a:	099b      	lsrs	r3, r3, #6
 800590c:	fbb2 f3f3 	udiv	r3, r2, r3
 8005910:	3b01      	subs	r3, #1
 8005912:	623b      	str	r3, [r7, #32]
 8005914:	e005      	b.n	8005922 <VL53L4CD_SetRangeTiming+0x18e>
 8005916:	6a3b      	ldr	r3, [r7, #32]
 8005918:	085b      	lsrs	r3, r3, #1
 800591a:	623b      	str	r3, [r7, #32]
 800591c:	8dbb      	ldrh	r3, [r7, #44]	@ 0x2c
 800591e:	3301      	adds	r3, #1
 8005920:	85bb      	strh	r3, [r7, #44]	@ 0x2c
 8005922:	6a3b      	ldr	r3, [r7, #32]
 8005924:	2bff      	cmp	r3, #255	@ 0xff
 8005926:	d8f6      	bhi.n	8005916 <VL53L4CD_SetRangeTiming+0x182>
 8005928:	8dbb      	ldrh	r3, [r7, #44]	@ 0x2c
 800592a:	021b      	lsls	r3, r3, #8
 800592c:	b29a      	uxth	r2, r3
 800592e:	6a3b      	ldr	r3, [r7, #32]
 8005930:	b29b      	uxth	r3, r3
 8005932:	b2db      	uxtb	r3, r3
 8005934:	b29b      	uxth	r3, r3
 8005936:	4413      	add	r3, r2
 8005938:	85bb      	strh	r3, [r7, #44]	@ 0x2c
 800593a:	8dba      	ldrh	r2, [r7, #44]	@ 0x2c
 800593c:	89fb      	ldrh	r3, [r7, #14]
 800593e:	215e      	movs	r1, #94	@ 0x5e
 8005940:	4618      	mov	r0, r3
 8005942:	f7fb ff27 	bl	8001794 <VL53L4CD_WrWord>
 8005946:	4603      	mov	r3, r0
 8005948:	461a      	mov	r2, r3
 800594a:	f897 302f 	ldrb.w	r3, [r7, #47]	@ 0x2f
 800594e:	4313      	orrs	r3, r2
 8005950:	f887 302f 	strb.w	r3, [r7, #47]	@ 0x2f
 8005954:	2300      	movs	r3, #0
 8005956:	85bb      	strh	r3, [r7, #44]	@ 0x2c
 8005958:	6aba      	ldr	r2, [r7, #40]	@ 0x28
 800595a:	4613      	mov	r3, r2
 800595c:	005b      	lsls	r3, r3, #1
 800595e:	4413      	add	r3, r2
 8005960:	009b      	lsls	r3, r3, #2
 8005962:	61bb      	str	r3, [r7, #24]
 8005964:	69bb      	ldr	r3, [r7, #24]
 8005966:	09da      	lsrs	r2, r3, #7
 8005968:	6a7b      	ldr	r3, [r7, #36]	@ 0x24
 800596a:	441a      	add	r2, r3
 800596c:	69bb      	ldr	r3, [r7, #24]
 800596e:	099b      	lsrs	r3, r3, #6
 8005970:	fbb2 f3f3 	udiv	r3, r2, r3
 8005974:	3b01      	subs	r3, #1
 8005976:	623b      	str	r3, [r7, #32]
 8005978:	e005      	b.n	8005986 <VL53L4CD_SetRangeTiming+0x1f2>
 800597a:	6a3b      	ldr	r3, [r7, #32]
 800597c:	085b      	lsrs	r3, r3, #1
 800597e:	623b      	str	r3, [r7, #32]
 8005980:	8dbb      	ldrh	r3, [r7, #44]	@ 0x2c
 8005982:	3301      	adds	r3, #1
 8005984:	85bb      	strh	r3, [r7, #44]	@ 0x2c
 8005986:	6a3b      	ldr	r3, [r7, #32]
 8005988:	2bff      	cmp	r3, #255	@ 0xff
 800598a:	d8f6      	bhi.n	800597a <VL53L4CD_SetRangeTiming+0x1e6>
 800598c:	8dbb      	ldrh	r3, [r7, #44]	@ 0x2c
 800598e:	021b      	lsls	r3, r3, #8
 8005990:	b29a      	uxth	r2, r3
 8005992:	6a3b      	ldr	r3, [r7, #32]
 8005994:	b29b      	uxth	r3, r3
 8005996:	b2db      	uxtb	r3, r3
 8005998:	b29b      	uxth	r3, r3
 800599a:	4413      	add	r3, r2
 800599c:	85bb      	strh	r3, [r7, #44]	@ 0x2c
 800599e:	8dba      	ldrh	r2, [r7, #44]	@ 0x2c
 80059a0:	89fb      	ldrh	r3, [r7, #14]
 80059a2:	2161      	movs	r1, #97	@ 0x61
 80059a4:	4618      	mov	r0, r3
 80059a6:	f7fb fef5 	bl	8001794 <VL53L4CD_WrWord>
 80059aa:	4603      	mov	r3, r0
 80059ac:	461a      	mov	r2, r3
 80059ae:	f897 302f 	ldrb.w	r3, [r7, #47]	@ 0x2f
 80059b2:	4313      	orrs	r3, r2
 80059b4:	f887 302f 	strb.w	r3, [r7, #47]	@ 0x2f
 80059b8:	f897 302f 	ldrb.w	r3, [r7, #47]	@ 0x2f
 80059bc:	4618      	mov	r0, r3
 80059be:	3730      	adds	r7, #48	@ 0x30
 80059c0:	46bd      	mov	sp, r7
 80059c2:	bd80      	pop	{r7, pc}
 80059c4:	3f870a3d 	.word	0x3f870a3d

080059c8 <VL53L4CD_GetResult>:
 80059c8:	b5b0      	push	{r4, r5, r7, lr}
 80059ca:	b08a      	sub	sp, #40	@ 0x28
 80059cc:	af00      	add	r7, sp, #0
 80059ce:	4603      	mov	r3, r0
 80059d0:	6039      	str	r1, [r7, #0]
 80059d2:	80fb      	strh	r3, [r7, #6]
 80059d4:	2300      	movs	r3, #0
 80059d6:	f887 3027 	strb.w	r3, [r7, #39]	@ 0x27
 80059da:	4b51      	ldr	r3, [pc, #324]	@ (8005b20 <VL53L4CD_GetResult+0x158>)
 80059dc:	f107 0408 	add.w	r4, r7, #8
 80059e0:	461d      	mov	r5, r3
 80059e2:	cd0f      	ldmia	r5!, {r0, r1, r2, r3}
 80059e4:	c40f      	stmia	r4!, {r0, r1, r2, r3}
 80059e6:	e895 0003 	ldmia.w	r5, {r0, r1}
 80059ea:	e884 0003 	stmia.w	r4, {r0, r1}
 80059ee:	f107 0221 	add.w	r2, r7, #33	@ 0x21
 80059f2:	88fb      	ldrh	r3, [r7, #6]
 80059f4:	2189      	movs	r1, #137	@ 0x89
 80059f6:	4618      	mov	r0, r3
 80059f8:	f7fb fe82 	bl	8001700 <VL53L4CD_RdByte>
 80059fc:	4603      	mov	r3, r0
 80059fe:	461a      	mov	r2, r3
 8005a00:	f897 3027 	ldrb.w	r3, [r7, #39]	@ 0x27
 8005a04:	4313      	orrs	r3, r2
 8005a06:	f887 3027 	strb.w	r3, [r7, #39]	@ 0x27
 8005a0a:	f897 3021 	ldrb.w	r3, [r7, #33]	@ 0x21
 8005a0e:	f003 031f 	and.w	r3, r3, #31
 8005a12:	b2db      	uxtb	r3, r3
 8005a14:	f887 3021 	strb.w	r3, [r7, #33]	@ 0x21
 8005a18:	f897 3021 	ldrb.w	r3, [r7, #33]	@ 0x21
 8005a1c:	2b17      	cmp	r3, #23
 8005a1e:	d807      	bhi.n	8005a30 <VL53L4CD_GetResult+0x68>
 8005a20:	f897 3021 	ldrb.w	r3, [r7, #33]	@ 0x21
 8005a24:	3328      	adds	r3, #40	@ 0x28
 8005a26:	443b      	add	r3, r7
 8005a28:	f813 3c20 	ldrb.w	r3, [r3, #-32]
 8005a2c:	f887 3021 	strb.w	r3, [r7, #33]	@ 0x21
 8005a30:	f897 2021 	ldrb.w	r2, [r7, #33]	@ 0x21
 8005a34:	683b      	ldr	r3, [r7, #0]
 8005a36:	701a      	strb	r2, [r3, #0]
 8005a38:	f107 0222 	add.w	r2, r7, #34	@ 0x22
 8005a3c:	88fb      	ldrh	r3, [r7, #6]
 8005a3e:	218c      	movs	r1, #140	@ 0x8c
 8005a40:	4618      	mov	r0, r3
 8005a42:	f7fb fe2d 	bl	80016a0 <VL53L4CD_RdWord>
 8005a46:	4603      	mov	r3, r0
 8005a48:	461a      	mov	r2, r3
 8005a4a:	f897 3027 	ldrb.w	r3, [r7, #39]	@ 0x27
 8005a4e:	4313      	orrs	r3, r2
 8005a50:	f887 3027 	strb.w	r3, [r7, #39]	@ 0x27
 8005a54:	8c7b      	ldrh	r3, [r7, #34]	@ 0x22
 8005a56:	84bb      	strh	r3, [r7, #36]	@ 0x24
 8005a58:	8c7b      	ldrh	r3, [r7, #34]	@ 0x22
 8005a5a:	0a1b      	lsrs	r3, r3, #8
 8005a5c:	b29a      	uxth	r2, r3
 8005a5e:	683b      	ldr	r3, [r7, #0]
 8005a60:	829a      	strh	r2, [r3, #20]
 8005a62:	f107 0222 	add.w	r2, r7, #34	@ 0x22
 8005a66:	88fb      	ldrh	r3, [r7, #6]
 8005a68:	218e      	movs	r1, #142	@ 0x8e
 8005a6a:	4618      	mov	r0, r3
 8005a6c:	f7fb fe18 	bl	80016a0 <VL53L4CD_RdWord>
 8005a70:	4603      	mov	r3, r0
 8005a72:	461a      	mov	r2, r3
 8005a74:	f897 3027 	ldrb.w	r3, [r7, #39]	@ 0x27
 8005a78:	4313      	orrs	r3, r2
 8005a7a:	f887 3027 	strb.w	r3, [r7, #39]	@ 0x27
 8005a7e:	8c7b      	ldrh	r3, [r7, #34]	@ 0x22
 8005a80:	00da      	lsls	r2, r3, #3
 8005a82:	683b      	ldr	r3, [r7, #0]
 8005a84:	60da      	str	r2, [r3, #12]
 8005a86:	f107 0222 	add.w	r2, r7, #34	@ 0x22
 8005a8a:	88fb      	ldrh	r3, [r7, #6]
 8005a8c:	2190      	movs	r1, #144	@ 0x90
 8005a8e:	4618      	mov	r0, r3
 8005a90:	f7fb fe06 	bl	80016a0 <VL53L4CD_RdWord>
 8005a94:	4603      	mov	r3, r0
 8005a96:	461a      	mov	r2, r3
 8005a98:	f897 3027 	ldrb.w	r3, [r7, #39]	@ 0x27
 8005a9c:	4313      	orrs	r3, r2
 8005a9e:	f887 3027 	strb.w	r3, [r7, #39]	@ 0x27
 8005aa2:	8c7b      	ldrh	r3, [r7, #34]	@ 0x22
 8005aa4:	00da      	lsls	r2, r3, #3
 8005aa6:	683b      	ldr	r3, [r7, #0]
 8005aa8:	605a      	str	r2, [r3, #4]
 8005aaa:	f107 0222 	add.w	r2, r7, #34	@ 0x22
 8005aae:	88fb      	ldrh	r3, [r7, #6]
 8005ab0:	2192      	movs	r1, #146	@ 0x92
 8005ab2:	4618      	mov	r0, r3
 8005ab4:	f7fb fdf4 	bl	80016a0 <VL53L4CD_RdWord>
 8005ab8:	4603      	mov	r3, r0
 8005aba:	461a      	mov	r2, r3
 8005abc:	f897 3027 	ldrb.w	r3, [r7, #39]	@ 0x27
 8005ac0:	4313      	orrs	r3, r2
 8005ac2:	f887 3027 	strb.w	r3, [r7, #39]	@ 0x27
 8005ac6:	8c7b      	ldrh	r3, [r7, #34]	@ 0x22
 8005ac8:	089b      	lsrs	r3, r3, #2
 8005aca:	b29a      	uxth	r2, r3
 8005acc:	683b      	ldr	r3, [r7, #0]
 8005ace:	82da      	strh	r2, [r3, #22]
 8005ad0:	f107 0222 	add.w	r2, r7, #34	@ 0x22
 8005ad4:	88fb      	ldrh	r3, [r7, #6]
 8005ad6:	2196      	movs	r1, #150	@ 0x96
 8005ad8:	4618      	mov	r0, r3
 8005ada:	f7fb fde1 	bl	80016a0 <VL53L4CD_RdWord>
 8005ade:	4603      	mov	r3, r0
 8005ae0:	461a      	mov	r2, r3
 8005ae2:	f897 3027 	ldrb.w	r3, [r7, #39]	@ 0x27
 8005ae6:	4313      	orrs	r3, r2
 8005ae8:	f887 3027 	strb.w	r3, [r7, #39]	@ 0x27
 8005aec:	8c7a      	ldrh	r2, [r7, #34]	@ 0x22
 8005aee:	683b      	ldr	r3, [r7, #0]
 8005af0:	805a      	strh	r2, [r3, #2]
 8005af2:	683b      	ldr	r3, [r7, #0]
 8005af4:	68db      	ldr	r3, [r3, #12]
 8005af6:	021a      	lsls	r2, r3, #8
 8005af8:	8cbb      	ldrh	r3, [r7, #36]	@ 0x24
 8005afa:	fbb2 f2f3 	udiv	r2, r2, r3
 8005afe:	683b      	ldr	r3, [r7, #0]
 8005b00:	611a      	str	r2, [r3, #16]
 8005b02:	683b      	ldr	r3, [r7, #0]
 8005b04:	685b      	ldr	r3, [r3, #4]
 8005b06:	021a      	lsls	r2, r3, #8
 8005b08:	8cbb      	ldrh	r3, [r7, #36]	@ 0x24
 8005b0a:	fbb2 f2f3 	udiv	r2, r2, r3
 8005b0e:	683b      	ldr	r3, [r7, #0]
 8005b10:	609a      	str	r2, [r3, #8]
 8005b12:	f897 3027 	ldrb.w	r3, [r7, #39]	@ 0x27
 8005b16:	4618      	mov	r0, r3
 8005b18:	3728      	adds	r7, #40	@ 0x28
 8005b1a:	46bd      	mov	sp, r7
 8005b1c:	bdb0      	pop	{r4, r5, r7, pc}
 8005b1e:	bf00      	nop
 8005b20:	08006d2c 	.word	0x08006d2c

08005b24 <__cxa_guard_acquire>:
 8005b24:	6802      	ldr	r2, [r0, #0]
 8005b26:	07d2      	lsls	r2, r2, #31
 8005b28:	4603      	mov	r3, r0
 8005b2a:	d405      	bmi.n	8005b38 <__cxa_guard_acquire+0x14>
 8005b2c:	7842      	ldrb	r2, [r0, #1]
 8005b2e:	b102      	cbz	r2, 8005b32 <__cxa_guard_acquire+0xe>
 8005b30:	deff      	udf	#255	@ 0xff
 8005b32:	2001      	movs	r0, #1
 8005b34:	7058      	strb	r0, [r3, #1]
 8005b36:	4770      	bx	lr
 8005b38:	2000      	movs	r0, #0
 8005b3a:	4770      	bx	lr

08005b3c <__cxa_guard_release>:
 8005b3c:	2301      	movs	r3, #1
 8005b3e:	6003      	str	r3, [r0, #0]
 8005b40:	4770      	bx	lr
	...

08005b44 <std>:
 8005b44:	2300      	movs	r3, #0
 8005b46:	b510      	push	{r4, lr}
 8005b48:	4604      	mov	r4, r0
 8005b4a:	e9c0 3300 	strd	r3, r3, [r0]
 8005b4e:	e9c0 3304 	strd	r3, r3, [r0, #16]
 8005b52:	6083      	str	r3, [r0, #8]
 8005b54:	8181      	strh	r1, [r0, #12]
 8005b56:	6643      	str	r3, [r0, #100]	@ 0x64
 8005b58:	81c2      	strh	r2, [r0, #14]
 8005b5a:	6183      	str	r3, [r0, #24]
 8005b5c:	4619      	mov	r1, r3
 8005b5e:	2208      	movs	r2, #8
 8005b60:	305c      	adds	r0, #92	@ 0x5c
 8005b62:	f000 f9f9 	bl	8005f58 <memset>
 8005b66:	4b0d      	ldr	r3, [pc, #52]	@ (8005b9c <std+0x58>)
 8005b68:	6263      	str	r3, [r4, #36]	@ 0x24
 8005b6a:	4b0d      	ldr	r3, [pc, #52]	@ (8005ba0 <std+0x5c>)
 8005b6c:	62a3      	str	r3, [r4, #40]	@ 0x28
 8005b6e:	4b0d      	ldr	r3, [pc, #52]	@ (8005ba4 <std+0x60>)
 8005b70:	62e3      	str	r3, [r4, #44]	@ 0x2c
 8005b72:	4b0d      	ldr	r3, [pc, #52]	@ (8005ba8 <std+0x64>)
 8005b74:	6323      	str	r3, [r4, #48]	@ 0x30
 8005b76:	4b0d      	ldr	r3, [pc, #52]	@ (8005bac <std+0x68>)
 8005b78:	6224      	str	r4, [r4, #32]
 8005b7a:	429c      	cmp	r4, r3
 8005b7c:	d006      	beq.n	8005b8c <std+0x48>
 8005b7e:	f103 0268 	add.w	r2, r3, #104	@ 0x68
 8005b82:	4294      	cmp	r4, r2
 8005b84:	d002      	beq.n	8005b8c <std+0x48>
 8005b86:	33d0      	adds	r3, #208	@ 0xd0
 8005b88:	429c      	cmp	r4, r3
 8005b8a:	d105      	bne.n	8005b98 <std+0x54>
 8005b8c:	f104 0058 	add.w	r0, r4, #88	@ 0x58
 8005b90:	e8bd 4010 	ldmia.w	sp!, {r4, lr}
 8005b94:	f000 ba58 	b.w	8006048 <__retarget_lock_init_recursive>
 8005b98:	bd10      	pop	{r4, pc}
 8005b9a:	bf00      	nop
 8005b9c:	08005da9 	.word	0x08005da9
 8005ba0:	08005dcb 	.word	0x08005dcb
 8005ba4:	08005e03 	.word	0x08005e03
 8005ba8:	08005e27 	.word	0x08005e27
 8005bac:	20000558 	.word	0x20000558

08005bb0 <stdio_exit_handler>:
 8005bb0:	4a02      	ldr	r2, [pc, #8]	@ (8005bbc <stdio_exit_handler+0xc>)
 8005bb2:	4903      	ldr	r1, [pc, #12]	@ (8005bc0 <stdio_exit_handler+0x10>)
 8005bb4:	4803      	ldr	r0, [pc, #12]	@ (8005bc4 <stdio_exit_handler+0x14>)
 8005bb6:	f000 b869 	b.w	8005c8c <_fwalk_sglue>
 8005bba:	bf00      	nop
 8005bbc:	2000000c 	.word	0x2000000c
 8005bc0:	08006901 	.word	0x08006901
 8005bc4:	2000001c 	.word	0x2000001c

08005bc8 <cleanup_stdio>:
 8005bc8:	6841      	ldr	r1, [r0, #4]
 8005bca:	4b0c      	ldr	r3, [pc, #48]	@ (8005bfc <cleanup_stdio+0x34>)
 8005bcc:	4299      	cmp	r1, r3
 8005bce:	b510      	push	{r4, lr}
 8005bd0:	4604      	mov	r4, r0
 8005bd2:	d001      	beq.n	8005bd8 <cleanup_stdio+0x10>
 8005bd4:	f000 fe94 	bl	8006900 <_fflush_r>
 8005bd8:	68a1      	ldr	r1, [r4, #8]
 8005bda:	4b09      	ldr	r3, [pc, #36]	@ (8005c00 <cleanup_stdio+0x38>)
 8005bdc:	4299      	cmp	r1, r3
 8005bde:	d002      	beq.n	8005be6 <cleanup_stdio+0x1e>
 8005be0:	4620      	mov	r0, r4
 8005be2:	f000 fe8d 	bl	8006900 <_fflush_r>
 8005be6:	68e1      	ldr	r1, [r4, #12]
 8005be8:	4b06      	ldr	r3, [pc, #24]	@ (8005c04 <cleanup_stdio+0x3c>)
 8005bea:	4299      	cmp	r1, r3
 8005bec:	d004      	beq.n	8005bf8 <cleanup_stdio+0x30>
 8005bee:	4620      	mov	r0, r4
 8005bf0:	e8bd 4010 	ldmia.w	sp!, {r4, lr}
 8005bf4:	f000 be84 	b.w	8006900 <_fflush_r>
 8005bf8:	bd10      	pop	{r4, pc}
 8005bfa:	bf00      	nop
 8005bfc:	20000558 	.word	0x20000558
 8005c00:	200005c0 	.word	0x200005c0
 8005c04:	20000628 	.word	0x20000628

08005c08 <global_stdio_init.part.0>:
 8005c08:	b510      	push	{r4, lr}
 8005c0a:	4b0b      	ldr	r3, [pc, #44]	@ (8005c38 <global_stdio_init.part.0+0x30>)
 8005c0c:	4c0b      	ldr	r4, [pc, #44]	@ (8005c3c <global_stdio_init.part.0+0x34>)
 8005c0e:	4a0c      	ldr	r2, [pc, #48]	@ (8005c40 <global_stdio_init.part.0+0x38>)
 8005c10:	601a      	str	r2, [r3, #0]
 8005c12:	4620      	mov	r0, r4
 8005c14:	2200      	movs	r2, #0
 8005c16:	2104      	movs	r1, #4
 8005c18:	f7ff ff94 	bl	8005b44 <std>
 8005c1c:	f104 0068 	add.w	r0, r4, #104	@ 0x68
 8005c20:	2201      	movs	r2, #1
 8005c22:	2109      	movs	r1, #9
 8005c24:	f7ff ff8e 	bl	8005b44 <std>
 8005c28:	f104 00d0 	add.w	r0, r4, #208	@ 0xd0
 8005c2c:	2202      	movs	r2, #2
 8005c2e:	e8bd 4010 	ldmia.w	sp!, {r4, lr}
 8005c32:	2112      	movs	r1, #18
 8005c34:	f7ff bf86 	b.w	8005b44 <std>
 8005c38:	20000690 	.word	0x20000690
 8005c3c:	20000558 	.word	0x20000558
 8005c40:	08005bb1 	.word	0x08005bb1

08005c44 <__sfp_lock_acquire>:
 8005c44:	4801      	ldr	r0, [pc, #4]	@ (8005c4c <__sfp_lock_acquire+0x8>)
 8005c46:	f000 ba00 	b.w	800604a <__retarget_lock_acquire_recursive>
 8005c4a:	bf00      	nop
 8005c4c:	20000699 	.word	0x20000699

08005c50 <__sfp_lock_release>:
 8005c50:	4801      	ldr	r0, [pc, #4]	@ (8005c58 <__sfp_lock_release+0x8>)
 8005c52:	f000 b9fb 	b.w	800604c <__retarget_lock_release_recursive>
 8005c56:	bf00      	nop
 8005c58:	20000699 	.word	0x20000699

08005c5c <__sinit>:
 8005c5c:	b510      	push	{r4, lr}
 8005c5e:	4604      	mov	r4, r0
 8005c60:	f7ff fff0 	bl	8005c44 <__sfp_lock_acquire>
 8005c64:	6a23      	ldr	r3, [r4, #32]
 8005c66:	b11b      	cbz	r3, 8005c70 <__sinit+0x14>
 8005c68:	e8bd 4010 	ldmia.w	sp!, {r4, lr}
 8005c6c:	f7ff bff0 	b.w	8005c50 <__sfp_lock_release>
 8005c70:	4b04      	ldr	r3, [pc, #16]	@ (8005c84 <__sinit+0x28>)
 8005c72:	6223      	str	r3, [r4, #32]
 8005c74:	4b04      	ldr	r3, [pc, #16]	@ (8005c88 <__sinit+0x2c>)
 8005c76:	681b      	ldr	r3, [r3, #0]
 8005c78:	2b00      	cmp	r3, #0
 8005c7a:	d1f5      	bne.n	8005c68 <__sinit+0xc>
 8005c7c:	f7ff ffc4 	bl	8005c08 <global_stdio_init.part.0>
 8005c80:	e7f2      	b.n	8005c68 <__sinit+0xc>
 8005c82:	bf00      	nop
 8005c84:	08005bc9 	.word	0x08005bc9
 8005c88:	20000690 	.word	0x20000690

08005c8c <_fwalk_sglue>:
 8005c8c:	e92d 43f8 	stmdb	sp!, {r3, r4, r5, r6, r7, r8, r9, lr}
 8005c90:	4607      	mov	r7, r0
 8005c92:	4688      	mov	r8, r1
 8005c94:	4614      	mov	r4, r2
 8005c96:	2600      	movs	r6, #0
 8005c98:	e9d4 9501 	ldrd	r9, r5, [r4, #4]
 8005c9c:	f1b9 0901 	subs.w	r9, r9, #1
 8005ca0:	d505      	bpl.n	8005cae <_fwalk_sglue+0x22>
 8005ca2:	6824      	ldr	r4, [r4, #0]
 8005ca4:	2c00      	cmp	r4, #0
 8005ca6:	d1f7      	bne.n	8005c98 <_fwalk_sglue+0xc>
 8005ca8:	4630      	mov	r0, r6
 8005caa:	e8bd 83f8 	ldmia.w	sp!, {r3, r4, r5, r6, r7, r8, r9, pc}
 8005cae:	89ab      	ldrh	r3, [r5, #12]
 8005cb0:	2b01      	cmp	r3, #1
 8005cb2:	d907      	bls.n	8005cc4 <_fwalk_sglue+0x38>
 8005cb4:	f9b5 300e 	ldrsh.w	r3, [r5, #14]
 8005cb8:	3301      	adds	r3, #1
 8005cba:	d003      	beq.n	8005cc4 <_fwalk_sglue+0x38>
 8005cbc:	4629      	mov	r1, r5
 8005cbe:	4638      	mov	r0, r7
 8005cc0:	47c0      	blx	r8
 8005cc2:	4306      	orrs	r6, r0
 8005cc4:	3568      	adds	r5, #104	@ 0x68
 8005cc6:	e7e9      	b.n	8005c9c <_fwalk_sglue+0x10>

08005cc8 <iprintf>:
 8005cc8:	b40f      	push	{r0, r1, r2, r3}
 8005cca:	b507      	push	{r0, r1, r2, lr}
 8005ccc:	4906      	ldr	r1, [pc, #24]	@ (8005ce8 <iprintf+0x20>)
 8005cce:	ab04      	add	r3, sp, #16
 8005cd0:	6808      	ldr	r0, [r1, #0]
 8005cd2:	f853 2b04 	ldr.w	r2, [r3], #4
 8005cd6:	6881      	ldr	r1, [r0, #8]
 8005cd8:	9301      	str	r3, [sp, #4]
 8005cda:	f000 fae9 	bl	80062b0 <_vfiprintf_r>
 8005cde:	b003      	add	sp, #12
 8005ce0:	f85d eb04 	ldr.w	lr, [sp], #4
 8005ce4:	b004      	add	sp, #16
 8005ce6:	4770      	bx	lr
 8005ce8:	20000018 	.word	0x20000018

08005cec <_puts_r>:
 8005cec:	6a03      	ldr	r3, [r0, #32]
 8005cee:	b570      	push	{r4, r5, r6, lr}
 8005cf0:	6884      	ldr	r4, [r0, #8]
 8005cf2:	4605      	mov	r5, r0
 8005cf4:	460e      	mov	r6, r1
 8005cf6:	b90b      	cbnz	r3, 8005cfc <_puts_r+0x10>
 8005cf8:	f7ff ffb0 	bl	8005c5c <__sinit>
 8005cfc:	6e63      	ldr	r3, [r4, #100]	@ 0x64
 8005cfe:	07db      	lsls	r3, r3, #31
 8005d00:	d405      	bmi.n	8005d0e <_puts_r+0x22>
 8005d02:	89a3      	ldrh	r3, [r4, #12]
 8005d04:	0598      	lsls	r0, r3, #22
 8005d06:	d402      	bmi.n	8005d0e <_puts_r+0x22>
 8005d08:	6da0      	ldr	r0, [r4, #88]	@ 0x58
 8005d0a:	f000 f99e 	bl	800604a <__retarget_lock_acquire_recursive>
 8005d0e:	89a3      	ldrh	r3, [r4, #12]
 8005d10:	0719      	lsls	r1, r3, #28
 8005d12:	d502      	bpl.n	8005d1a <_puts_r+0x2e>
 8005d14:	6923      	ldr	r3, [r4, #16]
 8005d16:	2b00      	cmp	r3, #0
 8005d18:	d135      	bne.n	8005d86 <_puts_r+0x9a>
 8005d1a:	4621      	mov	r1, r4
 8005d1c:	4628      	mov	r0, r5
 8005d1e:	f000 f8c5 	bl	8005eac <__swsetup_r>
 8005d22:	b380      	cbz	r0, 8005d86 <_puts_r+0x9a>
 8005d24:	f04f 35ff 	mov.w	r5, #4294967295
 8005d28:	6e63      	ldr	r3, [r4, #100]	@ 0x64
 8005d2a:	07da      	lsls	r2, r3, #31
 8005d2c:	d405      	bmi.n	8005d3a <_puts_r+0x4e>
 8005d2e:	89a3      	ldrh	r3, [r4, #12]
 8005d30:	059b      	lsls	r3, r3, #22
 8005d32:	d402      	bmi.n	8005d3a <_puts_r+0x4e>
 8005d34:	6da0      	ldr	r0, [r4, #88]	@ 0x58
 8005d36:	f000 f989 	bl	800604c <__retarget_lock_release_recursive>
 8005d3a:	4628      	mov	r0, r5
 8005d3c:	bd70      	pop	{r4, r5, r6, pc}
 8005d3e:	2b00      	cmp	r3, #0
 8005d40:	da04      	bge.n	8005d4c <_puts_r+0x60>
 8005d42:	69a2      	ldr	r2, [r4, #24]
 8005d44:	429a      	cmp	r2, r3
 8005d46:	dc17      	bgt.n	8005d78 <_puts_r+0x8c>
 8005d48:	290a      	cmp	r1, #10
 8005d4a:	d015      	beq.n	8005d78 <_puts_r+0x8c>
 8005d4c:	6823      	ldr	r3, [r4, #0]
 8005d4e:	1c5a      	adds	r2, r3, #1
 8005d50:	6022      	str	r2, [r4, #0]
 8005d52:	7019      	strb	r1, [r3, #0]
 8005d54:	68a3      	ldr	r3, [r4, #8]
 8005d56:	f816 1f01 	ldrb.w	r1, [r6, #1]!
 8005d5a:	3b01      	subs	r3, #1
 8005d5c:	60a3      	str	r3, [r4, #8]
 8005d5e:	2900      	cmp	r1, #0
 8005d60:	d1ed      	bne.n	8005d3e <_puts_r+0x52>
 8005d62:	2b00      	cmp	r3, #0
 8005d64:	da11      	bge.n	8005d8a <_puts_r+0x9e>
 8005d66:	4622      	mov	r2, r4
 8005d68:	210a      	movs	r1, #10
 8005d6a:	4628      	mov	r0, r5
 8005d6c:	f000 f85f 	bl	8005e2e <__swbuf_r>
 8005d70:	3001      	adds	r0, #1
 8005d72:	d0d7      	beq.n	8005d24 <_puts_r+0x38>
 8005d74:	250a      	movs	r5, #10
 8005d76:	e7d7      	b.n	8005d28 <_puts_r+0x3c>
 8005d78:	4622      	mov	r2, r4
 8005d7a:	4628      	mov	r0, r5
 8005d7c:	f000 f857 	bl	8005e2e <__swbuf_r>
 8005d80:	3001      	adds	r0, #1
 8005d82:	d1e7      	bne.n	8005d54 <_puts_r+0x68>
 8005d84:	e7ce      	b.n	8005d24 <_puts_r+0x38>
 8005d86:	3e01      	subs	r6, #1
 8005d88:	e7e4      	b.n	8005d54 <_puts_r+0x68>
 8005d8a:	6823      	ldr	r3, [r4, #0]
 8005d8c:	1c5a      	adds	r2, r3, #1
 8005d8e:	6022      	str	r2, [r4, #0]
 8005d90:	220a      	movs	r2, #10
 8005d92:	701a      	strb	r2, [r3, #0]
 8005d94:	e7ee      	b.n	8005d74 <_puts_r+0x88>
	...

08005d98 <puts>:
 8005d98:	4b02      	ldr	r3, [pc, #8]	@ (8005da4 <puts+0xc>)
 8005d9a:	4601      	mov	r1, r0
 8005d9c:	6818      	ldr	r0, [r3, #0]
 8005d9e:	f7ff bfa5 	b.w	8005cec <_puts_r>
 8005da2:	bf00      	nop
 8005da4:	20000018 	.word	0x20000018

08005da8 <__sread>:
 8005da8:	b510      	push	{r4, lr}
 8005daa:	460c      	mov	r4, r1
 8005dac:	f9b1 100e 	ldrsh.w	r1, [r1, #14]
 8005db0:	f000 f8fc 	bl	8005fac <_read_r>
 8005db4:	2800      	cmp	r0, #0
 8005db6:	bfab      	itete	ge
 8005db8:	6d63      	ldrge	r3, [r4, #84]	@ 0x54
 8005dba:	89a3      	ldrhlt	r3, [r4, #12]
 8005dbc:	181b      	addge	r3, r3, r0
 8005dbe:	f423 5380 	biclt.w	r3, r3, #4096	@ 0x1000
 8005dc2:	bfac      	ite	ge
 8005dc4:	6563      	strge	r3, [r4, #84]	@ 0x54
 8005dc6:	81a3      	strhlt	r3, [r4, #12]
 8005dc8:	bd10      	pop	{r4, pc}

08005dca <__swrite>:
 8005dca:	e92d 41f0 	stmdb	sp!, {r4, r5, r6, r7, r8, lr}
 8005dce:	461f      	mov	r7, r3
 8005dd0:	898b      	ldrh	r3, [r1, #12]
 8005dd2:	05db      	lsls	r3, r3, #23
 8005dd4:	4605      	mov	r5, r0
 8005dd6:	460c      	mov	r4, r1
 8005dd8:	4616      	mov	r6, r2
 8005dda:	d505      	bpl.n	8005de8 <__swrite+0x1e>
 8005ddc:	f9b1 100e 	ldrsh.w	r1, [r1, #14]
 8005de0:	2302      	movs	r3, #2
 8005de2:	2200      	movs	r2, #0
 8005de4:	f000 f8d0 	bl	8005f88 <_lseek_r>
 8005de8:	89a3      	ldrh	r3, [r4, #12]
 8005dea:	f9b4 100e 	ldrsh.w	r1, [r4, #14]
 8005dee:	f423 5380 	bic.w	r3, r3, #4096	@ 0x1000
 8005df2:	81a3      	strh	r3, [r4, #12]
 8005df4:	4632      	mov	r2, r6
 8005df6:	463b      	mov	r3, r7
 8005df8:	4628      	mov	r0, r5
 8005dfa:	e8bd 41f0 	ldmia.w	sp!, {r4, r5, r6, r7, r8, lr}
 8005dfe:	f000 b8e7 	b.w	8005fd0 <_write_r>

08005e02 <__sseek>:
 8005e02:	b510      	push	{r4, lr}
 8005e04:	460c      	mov	r4, r1
 8005e06:	f9b1 100e 	ldrsh.w	r1, [r1, #14]
 8005e0a:	f000 f8bd 	bl	8005f88 <_lseek_r>
 8005e0e:	1c43      	adds	r3, r0, #1
 8005e10:	89a3      	ldrh	r3, [r4, #12]
 8005e12:	bf15      	itete	ne
 8005e14:	6560      	strne	r0, [r4, #84]	@ 0x54
 8005e16:	f423 5380 	biceq.w	r3, r3, #4096	@ 0x1000
 8005e1a:	f443 5380 	orrne.w	r3, r3, #4096	@ 0x1000
 8005e1e:	81a3      	strheq	r3, [r4, #12]
 8005e20:	bf18      	it	ne
 8005e22:	81a3      	strhne	r3, [r4, #12]
 8005e24:	bd10      	pop	{r4, pc}

08005e26 <__sclose>:
 8005e26:	f9b1 100e 	ldrsh.w	r1, [r1, #14]
 8005e2a:	f000 b89d 	b.w	8005f68 <_close_r>

08005e2e <__swbuf_r>:
 8005e2e:	b5f8      	push	{r3, r4, r5, r6, r7, lr}
 8005e30:	460e      	mov	r6, r1
 8005e32:	4614      	mov	r4, r2
 8005e34:	4605      	mov	r5, r0
 8005e36:	b118      	cbz	r0, 8005e40 <__swbuf_r+0x12>
 8005e38:	6a03      	ldr	r3, [r0, #32]
 8005e3a:	b90b      	cbnz	r3, 8005e40 <__swbuf_r+0x12>
 8005e3c:	f7ff ff0e 	bl	8005c5c <__sinit>
 8005e40:	69a3      	ldr	r3, [r4, #24]
 8005e42:	60a3      	str	r3, [r4, #8]
 8005e44:	89a3      	ldrh	r3, [r4, #12]
 8005e46:	071a      	lsls	r2, r3, #28
 8005e48:	d501      	bpl.n	8005e4e <__swbuf_r+0x20>
 8005e4a:	6923      	ldr	r3, [r4, #16]
 8005e4c:	b943      	cbnz	r3, 8005e60 <__swbuf_r+0x32>
 8005e4e:	4621      	mov	r1, r4
 8005e50:	4628      	mov	r0, r5
 8005e52:	f000 f82b 	bl	8005eac <__swsetup_r>
 8005e56:	b118      	cbz	r0, 8005e60 <__swbuf_r+0x32>
 8005e58:	f04f 37ff 	mov.w	r7, #4294967295
 8005e5c:	4638      	mov	r0, r7
 8005e5e:	bdf8      	pop	{r3, r4, r5, r6, r7, pc}
 8005e60:	6823      	ldr	r3, [r4, #0]
 8005e62:	6922      	ldr	r2, [r4, #16]
 8005e64:	1a98      	subs	r0, r3, r2
 8005e66:	6963      	ldr	r3, [r4, #20]
 8005e68:	b2f6      	uxtb	r6, r6
 8005e6a:	4283      	cmp	r3, r0
 8005e6c:	4637      	mov	r7, r6
 8005e6e:	dc05      	bgt.n	8005e7c <__swbuf_r+0x4e>
 8005e70:	4621      	mov	r1, r4
 8005e72:	4628      	mov	r0, r5
 8005e74:	f000 fd44 	bl	8006900 <_fflush_r>
 8005e78:	2800      	cmp	r0, #0
 8005e7a:	d1ed      	bne.n	8005e58 <__swbuf_r+0x2a>
 8005e7c:	68a3      	ldr	r3, [r4, #8]
 8005e7e:	3b01      	subs	r3, #1
 8005e80:	60a3      	str	r3, [r4, #8]
 8005e82:	6823      	ldr	r3, [r4, #0]
 8005e84:	1c5a      	adds	r2, r3, #1
 8005e86:	6022      	str	r2, [r4, #0]
 8005e88:	701e      	strb	r6, [r3, #0]
 8005e8a:	6962      	ldr	r2, [r4, #20]
 8005e8c:	1c43      	adds	r3, r0, #1
 8005e8e:	429a      	cmp	r2, r3
 8005e90:	d004      	beq.n	8005e9c <__swbuf_r+0x6e>
 8005e92:	89a3      	ldrh	r3, [r4, #12]
 8005e94:	07db      	lsls	r3, r3, #31
 8005e96:	d5e1      	bpl.n	8005e5c <__swbuf_r+0x2e>
 8005e98:	2e0a      	cmp	r6, #10
 8005e9a:	d1df      	bne.n	8005e5c <__swbuf_r+0x2e>
 8005e9c:	4621      	mov	r1, r4
 8005e9e:	4628      	mov	r0, r5
 8005ea0:	f000 fd2e 	bl	8006900 <_fflush_r>
 8005ea4:	2800      	cmp	r0, #0
 8005ea6:	d0d9      	beq.n	8005e5c <__swbuf_r+0x2e>
 8005ea8:	e7d6      	b.n	8005e58 <__swbuf_r+0x2a>
	...

08005eac <__swsetup_r>:
 8005eac:	b538      	push	{r3, r4, r5, lr}
 8005eae:	4b29      	ldr	r3, [pc, #164]	@ (8005f54 <__swsetup_r+0xa8>)
 8005eb0:	4605      	mov	r5, r0
 8005eb2:	6818      	ldr	r0, [r3, #0]
 8005eb4:	460c      	mov	r4, r1
 8005eb6:	b118      	cbz	r0, 8005ec0 <__swsetup_r+0x14>
 8005eb8:	6a03      	ldr	r3, [r0, #32]
 8005eba:	b90b      	cbnz	r3, 8005ec0 <__swsetup_r+0x14>
 8005ebc:	f7ff fece 	bl	8005c5c <__sinit>
 8005ec0:	f9b4 300c 	ldrsh.w	r3, [r4, #12]
 8005ec4:	0719      	lsls	r1, r3, #28
 8005ec6:	d422      	bmi.n	8005f0e <__swsetup_r+0x62>
 8005ec8:	06da      	lsls	r2, r3, #27
 8005eca:	d407      	bmi.n	8005edc <__swsetup_r+0x30>
 8005ecc:	2209      	movs	r2, #9
 8005ece:	602a      	str	r2, [r5, #0]
 8005ed0:	f043 0340 	orr.w	r3, r3, #64	@ 0x40
 8005ed4:	81a3      	strh	r3, [r4, #12]
 8005ed6:	f04f 30ff 	mov.w	r0, #4294967295
 8005eda:	e033      	b.n	8005f44 <__swsetup_r+0x98>
 8005edc:	0758      	lsls	r0, r3, #29
 8005ede:	d512      	bpl.n	8005f06 <__swsetup_r+0x5a>
 8005ee0:	6b61      	ldr	r1, [r4, #52]	@ 0x34
 8005ee2:	b141      	cbz	r1, 8005ef6 <__swsetup_r+0x4a>
 8005ee4:	f104 0344 	add.w	r3, r4, #68	@ 0x44
 8005ee8:	4299      	cmp	r1, r3
 8005eea:	d002      	beq.n	8005ef2 <__swsetup_r+0x46>
 8005eec:	4628      	mov	r0, r5
 8005eee:	f000 f8bd 	bl	800606c <_free_r>
 8005ef2:	2300      	movs	r3, #0
 8005ef4:	6363      	str	r3, [r4, #52]	@ 0x34
 8005ef6:	89a3      	ldrh	r3, [r4, #12]
 8005ef8:	f023 0324 	bic.w	r3, r3, #36	@ 0x24
 8005efc:	81a3      	strh	r3, [r4, #12]
 8005efe:	2300      	movs	r3, #0
 8005f00:	6063      	str	r3, [r4, #4]
 8005f02:	6923      	ldr	r3, [r4, #16]
 8005f04:	6023      	str	r3, [r4, #0]
 8005f06:	89a3      	ldrh	r3, [r4, #12]
 8005f08:	f043 0308 	orr.w	r3, r3, #8
 8005f0c:	81a3      	strh	r3, [r4, #12]
 8005f0e:	6923      	ldr	r3, [r4, #16]
 8005f10:	b94b      	cbnz	r3, 8005f26 <__swsetup_r+0x7a>
 8005f12:	89a3      	ldrh	r3, [r4, #12]
 8005f14:	f403 7320 	and.w	r3, r3, #640	@ 0x280
 8005f18:	f5b3 7f00 	cmp.w	r3, #512	@ 0x200
 8005f1c:	d003      	beq.n	8005f26 <__swsetup_r+0x7a>
 8005f1e:	4621      	mov	r1, r4
 8005f20:	4628      	mov	r0, r5
 8005f22:	f000 fd3b 	bl	800699c <__smakebuf_r>
 8005f26:	f9b4 300c 	ldrsh.w	r3, [r4, #12]
 8005f2a:	f013 0201 	ands.w	r2, r3, #1
 8005f2e:	d00a      	beq.n	8005f46 <__swsetup_r+0x9a>
 8005f30:	2200      	movs	r2, #0
 8005f32:	60a2      	str	r2, [r4, #8]
 8005f34:	6962      	ldr	r2, [r4, #20]
 8005f36:	4252      	negs	r2, r2
 8005f38:	61a2      	str	r2, [r4, #24]
 8005f3a:	6922      	ldr	r2, [r4, #16]
 8005f3c:	b942      	cbnz	r2, 8005f50 <__swsetup_r+0xa4>
 8005f3e:	f013 0080 	ands.w	r0, r3, #128	@ 0x80
 8005f42:	d1c5      	bne.n	8005ed0 <__swsetup_r+0x24>
 8005f44:	bd38      	pop	{r3, r4, r5, pc}
 8005f46:	0799      	lsls	r1, r3, #30
 8005f48:	bf58      	it	pl
 8005f4a:	6962      	ldrpl	r2, [r4, #20]
 8005f4c:	60a2      	str	r2, [r4, #8]
 8005f4e:	e7f4      	b.n	8005f3a <__swsetup_r+0x8e>
 8005f50:	2000      	movs	r0, #0
 8005f52:	e7f7      	b.n	8005f44 <__swsetup_r+0x98>
 8005f54:	20000018 	.word	0x20000018

08005f58 <memset>:
 8005f58:	4402      	add	r2, r0
 8005f5a:	4603      	mov	r3, r0
 8005f5c:	4293      	cmp	r3, r2
 8005f5e:	d100      	bne.n	8005f62 <memset+0xa>
 8005f60:	4770      	bx	lr
 8005f62:	f803 1b01 	strb.w	r1, [r3], #1
 8005f66:	e7f9      	b.n	8005f5c <memset+0x4>

08005f68 <_close_r>:
 8005f68:	b538      	push	{r3, r4, r5, lr}
 8005f6a:	4d06      	ldr	r5, [pc, #24]	@ (8005f84 <_close_r+0x1c>)
 8005f6c:	2300      	movs	r3, #0
 8005f6e:	4604      	mov	r4, r0
 8005f70:	4608      	mov	r0, r1
 8005f72:	602b      	str	r3, [r5, #0]
 8005f74:	f7fb fa03 	bl	800137e <_close>
 8005f78:	1c43      	adds	r3, r0, #1
 8005f7a:	d102      	bne.n	8005f82 <_close_r+0x1a>
 8005f7c:	682b      	ldr	r3, [r5, #0]
 8005f7e:	b103      	cbz	r3, 8005f82 <_close_r+0x1a>
 8005f80:	6023      	str	r3, [r4, #0]
 8005f82:	bd38      	pop	{r3, r4, r5, pc}
 8005f84:	20000694 	.word	0x20000694

08005f88 <_lseek_r>:
 8005f88:	b538      	push	{r3, r4, r5, lr}
 8005f8a:	4d07      	ldr	r5, [pc, #28]	@ (8005fa8 <_lseek_r+0x20>)
 8005f8c:	4604      	mov	r4, r0
 8005f8e:	4608      	mov	r0, r1
 8005f90:	4611      	mov	r1, r2
 8005f92:	2200      	movs	r2, #0
 8005f94:	602a      	str	r2, [r5, #0]
 8005f96:	461a      	mov	r2, r3
 8005f98:	f7fb fa18 	bl	80013cc <_lseek>
 8005f9c:	1c43      	adds	r3, r0, #1
 8005f9e:	d102      	bne.n	8005fa6 <_lseek_r+0x1e>
 8005fa0:	682b      	ldr	r3, [r5, #0]
 8005fa2:	b103      	cbz	r3, 8005fa6 <_lseek_r+0x1e>
 8005fa4:	6023      	str	r3, [r4, #0]
 8005fa6:	bd38      	pop	{r3, r4, r5, pc}
 8005fa8:	20000694 	.word	0x20000694

08005fac <_read_r>:
 8005fac:	b538      	push	{r3, r4, r5, lr}
 8005fae:	4d07      	ldr	r5, [pc, #28]	@ (8005fcc <_read_r+0x20>)
 8005fb0:	4604      	mov	r4, r0
 8005fb2:	4608      	mov	r0, r1
 8005fb4:	4611      	mov	r1, r2
 8005fb6:	2200      	movs	r2, #0
 8005fb8:	602a      	str	r2, [r5, #0]
 8005fba:	461a      	mov	r2, r3
 8005fbc:	f7fb f9c2 	bl	8001344 <_read>
 8005fc0:	1c43      	adds	r3, r0, #1
 8005fc2:	d102      	bne.n	8005fca <_read_r+0x1e>
 8005fc4:	682b      	ldr	r3, [r5, #0]
 8005fc6:	b103      	cbz	r3, 8005fca <_read_r+0x1e>
 8005fc8:	6023      	str	r3, [r4, #0]
 8005fca:	bd38      	pop	{r3, r4, r5, pc}
 8005fcc:	20000694 	.word	0x20000694

08005fd0 <_write_r>:
 8005fd0:	b538      	push	{r3, r4, r5, lr}
 8005fd2:	4d07      	ldr	r5, [pc, #28]	@ (8005ff0 <_write_r+0x20>)
 8005fd4:	4604      	mov	r4, r0
 8005fd6:	4608      	mov	r0, r1
 8005fd8:	4611      	mov	r1, r2
 8005fda:	2200      	movs	r2, #0
 8005fdc:	602a      	str	r2, [r5, #0]
 8005fde:	461a      	mov	r2, r3
 8005fe0:	f7fb fa02 	bl	80013e8 <_write>
 8005fe4:	1c43      	adds	r3, r0, #1
 8005fe6:	d102      	bne.n	8005fee <_write_r+0x1e>
 8005fe8:	682b      	ldr	r3, [r5, #0]
 8005fea:	b103      	cbz	r3, 8005fee <_write_r+0x1e>
 8005fec:	6023      	str	r3, [r4, #0]
 8005fee:	bd38      	pop	{r3, r4, r5, pc}
 8005ff0:	20000694 	.word	0x20000694

08005ff4 <__errno>:
 8005ff4:	4b01      	ldr	r3, [pc, #4]	@ (8005ffc <__errno+0x8>)
 8005ff6:	6818      	ldr	r0, [r3, #0]
 8005ff8:	4770      	bx	lr
 8005ffa:	bf00      	nop
 8005ffc:	20000018 	.word	0x20000018

08006000 <__libc_init_array>:
 8006000:	b570      	push	{r4, r5, r6, lr}
 8006002:	4d0d      	ldr	r5, [pc, #52]	@ (8006038 <__libc_init_array+0x38>)
 8006004:	4c0d      	ldr	r4, [pc, #52]	@ (800603c <__libc_init_array+0x3c>)
 8006006:	1b64      	subs	r4, r4, r5
 8006008:	10a4      	asrs	r4, r4, #2
 800600a:	2600      	movs	r6, #0
 800600c:	42a6      	cmp	r6, r4
 800600e:	d109      	bne.n	8006024 <__libc_init_array+0x24>
 8006010:	4d0b      	ldr	r5, [pc, #44]	@ (8006040 <__libc_init_array+0x40>)
 8006012:	4c0c      	ldr	r4, [pc, #48]	@ (8006044 <__libc_init_array+0x44>)
 8006014:	f000 fd30 	bl	8006a78 <_init>
 8006018:	1b64      	subs	r4, r4, r5
 800601a:	10a4      	asrs	r4, r4, #2
 800601c:	2600      	movs	r6, #0
 800601e:	42a6      	cmp	r6, r4
 8006020:	d105      	bne.n	800602e <__libc_init_array+0x2e>
 8006022:	bd70      	pop	{r4, r5, r6, pc}
 8006024:	f855 3b04 	ldr.w	r3, [r5], #4
 8006028:	4798      	blx	r3
 800602a:	3601      	adds	r6, #1
 800602c:	e7ee      	b.n	800600c <__libc_init_array+0xc>
 800602e:	f855 3b04 	ldr.w	r3, [r5], #4
 8006032:	4798      	blx	r3
 8006034:	3601      	adds	r6, #1
 8006036:	e7f2      	b.n	800601e <__libc_init_array+0x1e>
 8006038:	08006e2c 	.word	0x08006e2c
 800603c:	08006e2c 	.word	0x08006e2c
 8006040:	08006e2c 	.word	0x08006e2c
 8006044:	08006e30 	.word	0x08006e30

08006048 <__retarget_lock_init_recursive>:
 8006048:	4770      	bx	lr

0800604a <__retarget_lock_acquire_recursive>:
 800604a:	4770      	bx	lr

0800604c <__retarget_lock_release_recursive>:
 800604c:	4770      	bx	lr

0800604e <memcpy>:
 800604e:	440a      	add	r2, r1
 8006050:	4291      	cmp	r1, r2
 8006052:	f100 33ff 	add.w	r3, r0, #4294967295
 8006056:	d100      	bne.n	800605a <memcpy+0xc>
 8006058:	4770      	bx	lr
 800605a:	b510      	push	{r4, lr}
 800605c:	f811 4b01 	ldrb.w	r4, [r1], #1
 8006060:	f803 4f01 	strb.w	r4, [r3, #1]!
 8006064:	4291      	cmp	r1, r2
 8006066:	d1f9      	bne.n	800605c <memcpy+0xe>
 8006068:	bd10      	pop	{r4, pc}
	...

0800606c <_free_r>:
 800606c:	b538      	push	{r3, r4, r5, lr}
 800606e:	4605      	mov	r5, r0
 8006070:	2900      	cmp	r1, #0
 8006072:	d041      	beq.n	80060f8 <_free_r+0x8c>
 8006074:	f851 3c04 	ldr.w	r3, [r1, #-4]
 8006078:	1f0c      	subs	r4, r1, #4
 800607a:	2b00      	cmp	r3, #0
 800607c:	bfb8      	it	lt
 800607e:	18e4      	addlt	r4, r4, r3
 8006080:	f000 f8e0 	bl	8006244 <__malloc_lock>
 8006084:	4a1d      	ldr	r2, [pc, #116]	@ (80060fc <_free_r+0x90>)
 8006086:	6813      	ldr	r3, [r2, #0]
 8006088:	b933      	cbnz	r3, 8006098 <_free_r+0x2c>
 800608a:	6063      	str	r3, [r4, #4]
 800608c:	6014      	str	r4, [r2, #0]
 800608e:	4628      	mov	r0, r5
 8006090:	e8bd 4038 	ldmia.w	sp!, {r3, r4, r5, lr}
 8006094:	f000 b8dc 	b.w	8006250 <__malloc_unlock>
 8006098:	42a3      	cmp	r3, r4
 800609a:	d908      	bls.n	80060ae <_free_r+0x42>
 800609c:	6820      	ldr	r0, [r4, #0]
 800609e:	1821      	adds	r1, r4, r0
 80060a0:	428b      	cmp	r3, r1
 80060a2:	bf01      	itttt	eq
 80060a4:	6819      	ldreq	r1, [r3, #0]
 80060a6:	685b      	ldreq	r3, [r3, #4]
 80060a8:	1809      	addeq	r1, r1, r0
 80060aa:	6021      	streq	r1, [r4, #0]
 80060ac:	e7ed      	b.n	800608a <_free_r+0x1e>
 80060ae:	461a      	mov	r2, r3
 80060b0:	685b      	ldr	r3, [r3, #4]
 80060b2:	b10b      	cbz	r3, 80060b8 <_free_r+0x4c>
 80060b4:	42a3      	cmp	r3, r4
 80060b6:	d9fa      	bls.n	80060ae <_free_r+0x42>
 80060b8:	6811      	ldr	r1, [r2, #0]
 80060ba:	1850      	adds	r0, r2, r1
 80060bc:	42a0      	cmp	r0, r4
 80060be:	d10b      	bne.n	80060d8 <_free_r+0x6c>
 80060c0:	6820      	ldr	r0, [r4, #0]
 80060c2:	4401      	add	r1, r0
 80060c4:	1850      	adds	r0, r2, r1
 80060c6:	4283      	cmp	r3, r0
 80060c8:	6011      	str	r1, [r2, #0]
 80060ca:	d1e0      	bne.n	800608e <_free_r+0x22>
 80060cc:	6818      	ldr	r0, [r3, #0]
 80060ce:	685b      	ldr	r3, [r3, #4]
 80060d0:	6053      	str	r3, [r2, #4]
 80060d2:	4408      	add	r0, r1
 80060d4:	6010      	str	r0, [r2, #0]
 80060d6:	e7da      	b.n	800608e <_free_r+0x22>
 80060d8:	d902      	bls.n	80060e0 <_free_r+0x74>
 80060da:	230c      	movs	r3, #12
 80060dc:	602b      	str	r3, [r5, #0]
 80060de:	e7d6      	b.n	800608e <_free_r+0x22>
 80060e0:	6820      	ldr	r0, [r4, #0]
 80060e2:	1821      	adds	r1, r4, r0
 80060e4:	428b      	cmp	r3, r1
 80060e6:	bf04      	itt	eq
 80060e8:	6819      	ldreq	r1, [r3, #0]
 80060ea:	685b      	ldreq	r3, [r3, #4]
 80060ec:	6063      	str	r3, [r4, #4]
 80060ee:	bf04      	itt	eq
 80060f0:	1809      	addeq	r1, r1, r0
 80060f2:	6021      	streq	r1, [r4, #0]
 80060f4:	6054      	str	r4, [r2, #4]
 80060f6:	e7ca      	b.n	800608e <_free_r+0x22>
 80060f8:	bd38      	pop	{r3, r4, r5, pc}
 80060fa:	bf00      	nop
 80060fc:	200006a0 	.word	0x200006a0

08006100 <sbrk_aligned>:
 8006100:	b570      	push	{r4, r5, r6, lr}
 8006102:	4e0f      	ldr	r6, [pc, #60]	@ (8006140 <sbrk_aligned+0x40>)
 8006104:	460c      	mov	r4, r1
 8006106:	6831      	ldr	r1, [r6, #0]
 8006108:	4605      	mov	r5, r0
 800610a:	b911      	cbnz	r1, 8006112 <sbrk_aligned+0x12>
 800610c:	f000 fca4 	bl	8006a58 <_sbrk_r>
 8006110:	6030      	str	r0, [r6, #0]
 8006112:	4621      	mov	r1, r4
 8006114:	4628      	mov	r0, r5
 8006116:	f000 fc9f 	bl	8006a58 <_sbrk_r>
 800611a:	1c43      	adds	r3, r0, #1
 800611c:	d103      	bne.n	8006126 <sbrk_aligned+0x26>
 800611e:	f04f 34ff 	mov.w	r4, #4294967295
 8006122:	4620      	mov	r0, r4
 8006124:	bd70      	pop	{r4, r5, r6, pc}
 8006126:	1cc4      	adds	r4, r0, #3
 8006128:	f024 0403 	bic.w	r4, r4, #3
 800612c:	42a0      	cmp	r0, r4
 800612e:	d0f8      	beq.n	8006122 <sbrk_aligned+0x22>
 8006130:	1a21      	subs	r1, r4, r0
 8006132:	4628      	mov	r0, r5
 8006134:	f000 fc90 	bl	8006a58 <_sbrk_r>
 8006138:	3001      	adds	r0, #1
 800613a:	d1f2      	bne.n	8006122 <sbrk_aligned+0x22>
 800613c:	e7ef      	b.n	800611e <sbrk_aligned+0x1e>
 800613e:	bf00      	nop
 8006140:	2000069c 	.word	0x2000069c

08006144 <_malloc_r>:
 8006144:	e92d 43f8 	stmdb	sp!, {r3, r4, r5, r6, r7, r8, r9, lr}
 8006148:	1ccd      	adds	r5, r1, #3
 800614a:	f025 0503 	bic.w	r5, r5, #3
 800614e:	3508      	adds	r5, #8
 8006150:	2d0c      	cmp	r5, #12
 8006152:	bf38      	it	cc
 8006154:	250c      	movcc	r5, #12
 8006156:	2d00      	cmp	r5, #0
 8006158:	4606      	mov	r6, r0
 800615a:	db01      	blt.n	8006160 <_malloc_r+0x1c>
 800615c:	42a9      	cmp	r1, r5
 800615e:	d904      	bls.n	800616a <_malloc_r+0x26>
 8006160:	230c      	movs	r3, #12
 8006162:	6033      	str	r3, [r6, #0]
 8006164:	2000      	movs	r0, #0
 8006166:	e8bd 83f8 	ldmia.w	sp!, {r3, r4, r5, r6, r7, r8, r9, pc}
 800616a:	f8df 80d4 	ldr.w	r8, [pc, #212]	@ 8006240 <_malloc_r+0xfc>
 800616e:	f000 f869 	bl	8006244 <__malloc_lock>
 8006172:	f8d8 3000 	ldr.w	r3, [r8]
 8006176:	461c      	mov	r4, r3
 8006178:	bb44      	cbnz	r4, 80061cc <_malloc_r+0x88>
 800617a:	4629      	mov	r1, r5
 800617c:	4630      	mov	r0, r6
 800617e:	f7ff ffbf 	bl	8006100 <sbrk_aligned>
 8006182:	1c43      	adds	r3, r0, #1
 8006184:	4604      	mov	r4, r0
 8006186:	d158      	bne.n	800623a <_malloc_r+0xf6>
 8006188:	f8d8 4000 	ldr.w	r4, [r8]
 800618c:	4627      	mov	r7, r4
 800618e:	2f00      	cmp	r7, #0
 8006190:	d143      	bne.n	800621a <_malloc_r+0xd6>
 8006192:	2c00      	cmp	r4, #0
 8006194:	d04b      	beq.n	800622e <_malloc_r+0xea>
 8006196:	6823      	ldr	r3, [r4, #0]
 8006198:	4639      	mov	r1, r7
 800619a:	4630      	mov	r0, r6
 800619c:	eb04 0903 	add.w	r9, r4, r3
 80061a0:	f000 fc5a 	bl	8006a58 <_sbrk_r>
 80061a4:	4581      	cmp	r9, r0
 80061a6:	d142      	bne.n	800622e <_malloc_r+0xea>
 80061a8:	6821      	ldr	r1, [r4, #0]
 80061aa:	1a6d      	subs	r5, r5, r1
 80061ac:	4629      	mov	r1, r5
 80061ae:	4630      	mov	r0, r6
 80061b0:	f7ff ffa6 	bl	8006100 <sbrk_aligned>
 80061b4:	3001      	adds	r0, #1
 80061b6:	d03a      	beq.n	800622e <_malloc_r+0xea>
 80061b8:	6823      	ldr	r3, [r4, #0]
 80061ba:	442b      	add	r3, r5
 80061bc:	6023      	str	r3, [r4, #0]
 80061be:	f8d8 3000 	ldr.w	r3, [r8]
 80061c2:	685a      	ldr	r2, [r3, #4]
 80061c4:	bb62      	cbnz	r2, 8006220 <_malloc_r+0xdc>
 80061c6:	f8c8 7000 	str.w	r7, [r8]
 80061ca:	e00f      	b.n	80061ec <_malloc_r+0xa8>
 80061cc:	6822      	ldr	r2, [r4, #0]
 80061ce:	1b52      	subs	r2, r2, r5
 80061d0:	d420      	bmi.n	8006214 <_malloc_r+0xd0>
 80061d2:	2a0b      	cmp	r2, #11
 80061d4:	d917      	bls.n	8006206 <_malloc_r+0xc2>
 80061d6:	1961      	adds	r1, r4, r5
 80061d8:	42a3      	cmp	r3, r4
 80061da:	6025      	str	r5, [r4, #0]
 80061dc:	bf18      	it	ne
 80061de:	6059      	strne	r1, [r3, #4]
 80061e0:	6863      	ldr	r3, [r4, #4]
 80061e2:	bf08      	it	eq
 80061e4:	f8c8 1000 	streq.w	r1, [r8]
 80061e8:	5162      	str	r2, [r4, r5]
 80061ea:	604b      	str	r3, [r1, #4]
 80061ec:	4630      	mov	r0, r6
 80061ee:	f000 f82f 	bl	8006250 <__malloc_unlock>
 80061f2:	f104 000b 	add.w	r0, r4, #11
 80061f6:	1d23      	adds	r3, r4, #4
 80061f8:	f020 0007 	bic.w	r0, r0, #7
 80061fc:	1ac2      	subs	r2, r0, r3
 80061fe:	bf1c      	itt	ne
 8006200:	1a1b      	subne	r3, r3, r0
 8006202:	50a3      	strne	r3, [r4, r2]
 8006204:	e7af      	b.n	8006166 <_malloc_r+0x22>
 8006206:	6862      	ldr	r2, [r4, #4]
 8006208:	42a3      	cmp	r3, r4
 800620a:	bf0c      	ite	eq
 800620c:	f8c8 2000 	streq.w	r2, [r8]
 8006210:	605a      	strne	r2, [r3, #4]
 8006212:	e7eb      	b.n	80061ec <_malloc_r+0xa8>
 8006214:	4623      	mov	r3, r4
 8006216:	6864      	ldr	r4, [r4, #4]
 8006218:	e7ae      	b.n	8006178 <_malloc_r+0x34>
 800621a:	463c      	mov	r4, r7
 800621c:	687f      	ldr	r7, [r7, #4]
 800621e:	e7b6      	b.n	800618e <_malloc_r+0x4a>
 8006220:	461a      	mov	r2, r3
 8006222:	685b      	ldr	r3, [r3, #4]
 8006224:	42a3      	cmp	r3, r4
 8006226:	d1fb      	bne.n	8006220 <_malloc_r+0xdc>
 8006228:	2300      	movs	r3, #0
 800622a:	6053      	str	r3, [r2, #4]
 800622c:	e7de      	b.n	80061ec <_malloc_r+0xa8>
 800622e:	230c      	movs	r3, #12
 8006230:	6033      	str	r3, [r6, #0]
 8006232:	4630      	mov	r0, r6
 8006234:	f000 f80c 	bl	8006250 <__malloc_unlock>
 8006238:	e794      	b.n	8006164 <_malloc_r+0x20>
 800623a:	6005      	str	r5, [r0, #0]
 800623c:	e7d6      	b.n	80061ec <_malloc_r+0xa8>
 800623e:	bf00      	nop
 8006240:	200006a0 	.word	0x200006a0

08006244 <__malloc_lock>:
 8006244:	4801      	ldr	r0, [pc, #4]	@ (800624c <__malloc_lock+0x8>)
 8006246:	f7ff bf00 	b.w	800604a <__retarget_lock_acquire_recursive>
 800624a:	bf00      	nop
 800624c:	20000698 	.word	0x20000698

08006250 <__malloc_unlock>:
 8006250:	4801      	ldr	r0, [pc, #4]	@ (8006258 <__malloc_unlock+0x8>)
 8006252:	f7ff befb 	b.w	800604c <__retarget_lock_release_recursive>
 8006256:	bf00      	nop
 8006258:	20000698 	.word	0x20000698

0800625c <__sfputc_r>:
 800625c:	6893      	ldr	r3, [r2, #8]
 800625e:	3b01      	subs	r3, #1
 8006260:	2b00      	cmp	r3, #0
 8006262:	b410      	push	{r4}
 8006264:	6093      	str	r3, [r2, #8]
 8006266:	da08      	bge.n	800627a <__sfputc_r+0x1e>
 8006268:	6994      	ldr	r4, [r2, #24]
 800626a:	42a3      	cmp	r3, r4
 800626c:	db01      	blt.n	8006272 <__sfputc_r+0x16>
 800626e:	290a      	cmp	r1, #10
 8006270:	d103      	bne.n	800627a <__sfputc_r+0x1e>
 8006272:	f85d 4b04 	ldr.w	r4, [sp], #4
 8006276:	f7ff bdda 	b.w	8005e2e <__swbuf_r>
 800627a:	6813      	ldr	r3, [r2, #0]
 800627c:	1c58      	adds	r0, r3, #1
 800627e:	6010      	str	r0, [r2, #0]
 8006280:	7019      	strb	r1, [r3, #0]
 8006282:	4608      	mov	r0, r1
 8006284:	f85d 4b04 	ldr.w	r4, [sp], #4
 8006288:	4770      	bx	lr

0800628a <__sfputs_r>:
 800628a:	b5f8      	push	{r3, r4, r5, r6, r7, lr}
 800628c:	4606      	mov	r6, r0
 800628e:	460f      	mov	r7, r1
 8006290:	4614      	mov	r4, r2
 8006292:	18d5      	adds	r5, r2, r3
 8006294:	42ac      	cmp	r4, r5
 8006296:	d101      	bne.n	800629c <__sfputs_r+0x12>
 8006298:	2000      	movs	r0, #0
 800629a:	e007      	b.n	80062ac <__sfputs_r+0x22>
 800629c:	f814 1b01 	ldrb.w	r1, [r4], #1
 80062a0:	463a      	mov	r2, r7
 80062a2:	4630      	mov	r0, r6
 80062a4:	f7ff ffda 	bl	800625c <__sfputc_r>
 80062a8:	1c43      	adds	r3, r0, #1
 80062aa:	d1f3      	bne.n	8006294 <__sfputs_r+0xa>
 80062ac:	bdf8      	pop	{r3, r4, r5, r6, r7, pc}
	...

080062b0 <_vfiprintf_r>:
 80062b0:	e92d 4ff0 	stmdb	sp!, {r4, r5, r6, r7, r8, r9, sl, fp, lr}
 80062b4:	460d      	mov	r5, r1
 80062b6:	b09d      	sub	sp, #116	@ 0x74
 80062b8:	4614      	mov	r4, r2
 80062ba:	4698      	mov	r8, r3
 80062bc:	4606      	mov	r6, r0
 80062be:	b118      	cbz	r0, 80062c8 <_vfiprintf_r+0x18>
 80062c0:	6a03      	ldr	r3, [r0, #32]
 80062c2:	b90b      	cbnz	r3, 80062c8 <_vfiprintf_r+0x18>
 80062c4:	f7ff fcca 	bl	8005c5c <__sinit>
 80062c8:	6e6b      	ldr	r3, [r5, #100]	@ 0x64
 80062ca:	07d9      	lsls	r1, r3, #31
 80062cc:	d405      	bmi.n	80062da <_vfiprintf_r+0x2a>
 80062ce:	89ab      	ldrh	r3, [r5, #12]
 80062d0:	059a      	lsls	r2, r3, #22
 80062d2:	d402      	bmi.n	80062da <_vfiprintf_r+0x2a>
 80062d4:	6da8      	ldr	r0, [r5, #88]	@ 0x58
 80062d6:	f7ff feb8 	bl	800604a <__retarget_lock_acquire_recursive>
 80062da:	89ab      	ldrh	r3, [r5, #12]
 80062dc:	071b      	lsls	r3, r3, #28
 80062de:	d501      	bpl.n	80062e4 <_vfiprintf_r+0x34>
 80062e0:	692b      	ldr	r3, [r5, #16]
 80062e2:	b99b      	cbnz	r3, 800630c <_vfiprintf_r+0x5c>
 80062e4:	4629      	mov	r1, r5
 80062e6:	4630      	mov	r0, r6
 80062e8:	f7ff fde0 	bl	8005eac <__swsetup_r>
 80062ec:	b170      	cbz	r0, 800630c <_vfiprintf_r+0x5c>
 80062ee:	6e6b      	ldr	r3, [r5, #100]	@ 0x64
 80062f0:	07dc      	lsls	r4, r3, #31
 80062f2:	d504      	bpl.n	80062fe <_vfiprintf_r+0x4e>
 80062f4:	f04f 30ff 	mov.w	r0, #4294967295
 80062f8:	b01d      	add	sp, #116	@ 0x74
 80062fa:	e8bd 8ff0 	ldmia.w	sp!, {r4, r5, r6, r7, r8, r9, sl, fp, pc}
 80062fe:	89ab      	ldrh	r3, [r5, #12]
 8006300:	0598      	lsls	r0, r3, #22
 8006302:	d4f7      	bmi.n	80062f4 <_vfiprintf_r+0x44>
 8006304:	6da8      	ldr	r0, [r5, #88]	@ 0x58
 8006306:	f7ff fea1 	bl	800604c <__retarget_lock_release_recursive>
 800630a:	e7f3      	b.n	80062f4 <_vfiprintf_r+0x44>
 800630c:	2300      	movs	r3, #0
 800630e:	9309      	str	r3, [sp, #36]	@ 0x24
 8006310:	2320      	movs	r3, #32
 8006312:	f88d 3029 	strb.w	r3, [sp, #41]	@ 0x29
 8006316:	f8cd 800c 	str.w	r8, [sp, #12]
 800631a:	2330      	movs	r3, #48	@ 0x30
 800631c:	f8df 81ac 	ldr.w	r8, [pc, #428]	@ 80064cc <_vfiprintf_r+0x21c>
 8006320:	f88d 302a 	strb.w	r3, [sp, #42]	@ 0x2a
 8006324:	f04f 0901 	mov.w	r9, #1
 8006328:	4623      	mov	r3, r4
 800632a:	469a      	mov	sl, r3
 800632c:	f813 2b01 	ldrb.w	r2, [r3], #1
 8006330:	b10a      	cbz	r2, 8006336 <_vfiprintf_r+0x86>
 8006332:	2a25      	cmp	r2, #37	@ 0x25
 8006334:	d1f9      	bne.n	800632a <_vfiprintf_r+0x7a>
 8006336:	ebba 0b04 	subs.w	fp, sl, r4
 800633a:	d00b      	beq.n	8006354 <_vfiprintf_r+0xa4>
 800633c:	465b      	mov	r3, fp
 800633e:	4622      	mov	r2, r4
 8006340:	4629      	mov	r1, r5
 8006342:	4630      	mov	r0, r6
 8006344:	f7ff ffa1 	bl	800628a <__sfputs_r>
 8006348:	3001      	adds	r0, #1
 800634a:	f000 80a7 	beq.w	800649c <_vfiprintf_r+0x1ec>
 800634e:	9a09      	ldr	r2, [sp, #36]	@ 0x24
 8006350:	445a      	add	r2, fp
 8006352:	9209      	str	r2, [sp, #36]	@ 0x24
 8006354:	f89a 3000 	ldrb.w	r3, [sl]
 8006358:	2b00      	cmp	r3, #0
 800635a:	f000 809f 	beq.w	800649c <_vfiprintf_r+0x1ec>
 800635e:	2300      	movs	r3, #0
 8006360:	f04f 32ff 	mov.w	r2, #4294967295
 8006364:	e9cd 2305 	strd	r2, r3, [sp, #20]
 8006368:	f10a 0a01 	add.w	sl, sl, #1
 800636c:	9304      	str	r3, [sp, #16]
 800636e:	9307      	str	r3, [sp, #28]
 8006370:	f88d 3053 	strb.w	r3, [sp, #83]	@ 0x53
 8006374:	931a      	str	r3, [sp, #104]	@ 0x68
 8006376:	4654      	mov	r4, sl
 8006378:	2205      	movs	r2, #5
 800637a:	f814 1b01 	ldrb.w	r1, [r4], #1
 800637e:	4853      	ldr	r0, [pc, #332]	@ (80064cc <_vfiprintf_r+0x21c>)
 8006380:	f7f9 ff4e 	bl	8000220 <memchr>
 8006384:	9a04      	ldr	r2, [sp, #16]
 8006386:	b9d8      	cbnz	r0, 80063c0 <_vfiprintf_r+0x110>
 8006388:	06d1      	lsls	r1, r2, #27
 800638a:	bf44      	itt	mi
 800638c:	2320      	movmi	r3, #32
 800638e:	f88d 3053 	strbmi.w	r3, [sp, #83]	@ 0x53
 8006392:	0713      	lsls	r3, r2, #28
 8006394:	bf44      	itt	mi
 8006396:	232b      	movmi	r3, #43	@ 0x2b
 8006398:	f88d 3053 	strbmi.w	r3, [sp, #83]	@ 0x53
 800639c:	f89a 3000 	ldrb.w	r3, [sl]
 80063a0:	2b2a      	cmp	r3, #42	@ 0x2a
 80063a2:	d015      	beq.n	80063d0 <_vfiprintf_r+0x120>
 80063a4:	9a07      	ldr	r2, [sp, #28]
 80063a6:	4654      	mov	r4, sl
 80063a8:	2000      	movs	r0, #0
 80063aa:	f04f 0c0a 	mov.w	ip, #10
 80063ae:	4621      	mov	r1, r4
 80063b0:	f811 3b01 	ldrb.w	r3, [r1], #1
 80063b4:	3b30      	subs	r3, #48	@ 0x30
 80063b6:	2b09      	cmp	r3, #9
 80063b8:	d94b      	bls.n	8006452 <_vfiprintf_r+0x1a2>
 80063ba:	b1b0      	cbz	r0, 80063ea <_vfiprintf_r+0x13a>
 80063bc:	9207      	str	r2, [sp, #28]
 80063be:	e014      	b.n	80063ea <_vfiprintf_r+0x13a>
 80063c0:	eba0 0308 	sub.w	r3, r0, r8
 80063c4:	fa09 f303 	lsl.w	r3, r9, r3
 80063c8:	4313      	orrs	r3, r2
 80063ca:	9304      	str	r3, [sp, #16]
 80063cc:	46a2      	mov	sl, r4
 80063ce:	e7d2      	b.n	8006376 <_vfiprintf_r+0xc6>
 80063d0:	9b03      	ldr	r3, [sp, #12]
 80063d2:	1d19      	adds	r1, r3, #4
 80063d4:	681b      	ldr	r3, [r3, #0]
 80063d6:	9103      	str	r1, [sp, #12]
 80063d8:	2b00      	cmp	r3, #0
 80063da:	bfbb      	ittet	lt
 80063dc:	425b      	neglt	r3, r3
 80063de:	f042 0202 	orrlt.w	r2, r2, #2
 80063e2:	9307      	strge	r3, [sp, #28]
 80063e4:	9307      	strlt	r3, [sp, #28]
 80063e6:	bfb8      	it	lt
 80063e8:	9204      	strlt	r2, [sp, #16]
 80063ea:	7823      	ldrb	r3, [r4, #0]
 80063ec:	2b2e      	cmp	r3, #46	@ 0x2e
 80063ee:	d10a      	bne.n	8006406 <_vfiprintf_r+0x156>
 80063f0:	7863      	ldrb	r3, [r4, #1]
 80063f2:	2b2a      	cmp	r3, #42	@ 0x2a
 80063f4:	d132      	bne.n	800645c <_vfiprintf_r+0x1ac>
 80063f6:	9b03      	ldr	r3, [sp, #12]
 80063f8:	1d1a      	adds	r2, r3, #4
 80063fa:	681b      	ldr	r3, [r3, #0]
 80063fc:	9203      	str	r2, [sp, #12]
 80063fe:	ea43 73e3 	orr.w	r3, r3, r3, asr #31
 8006402:	3402      	adds	r4, #2
 8006404:	9305      	str	r3, [sp, #20]
 8006406:	f8df a0d4 	ldr.w	sl, [pc, #212]	@ 80064dc <_vfiprintf_r+0x22c>
 800640a:	7821      	ldrb	r1, [r4, #0]
 800640c:	2203      	movs	r2, #3
 800640e:	4650      	mov	r0, sl
 8006410:	f7f9 ff06 	bl	8000220 <memchr>
 8006414:	b138      	cbz	r0, 8006426 <_vfiprintf_r+0x176>
 8006416:	9b04      	ldr	r3, [sp, #16]
 8006418:	eba0 000a 	sub.w	r0, r0, sl
 800641c:	2240      	movs	r2, #64	@ 0x40
 800641e:	4082      	lsls	r2, r0
 8006420:	4313      	orrs	r3, r2
 8006422:	3401      	adds	r4, #1
 8006424:	9304      	str	r3, [sp, #16]
 8006426:	f814 1b01 	ldrb.w	r1, [r4], #1
 800642a:	4829      	ldr	r0, [pc, #164]	@ (80064d0 <_vfiprintf_r+0x220>)
 800642c:	f88d 1028 	strb.w	r1, [sp, #40]	@ 0x28
 8006430:	2206      	movs	r2, #6
 8006432:	f7f9 fef5 	bl	8000220 <memchr>
 8006436:	2800      	cmp	r0, #0
 8006438:	d03f      	beq.n	80064ba <_vfiprintf_r+0x20a>
 800643a:	4b26      	ldr	r3, [pc, #152]	@ (80064d4 <_vfiprintf_r+0x224>)
 800643c:	bb1b      	cbnz	r3, 8006486 <_vfiprintf_r+0x1d6>
 800643e:	9b03      	ldr	r3, [sp, #12]
 8006440:	3307      	adds	r3, #7
 8006442:	f023 0307 	bic.w	r3, r3, #7
 8006446:	3308      	adds	r3, #8
 8006448:	9303      	str	r3, [sp, #12]
 800644a:	9b09      	ldr	r3, [sp, #36]	@ 0x24
 800644c:	443b      	add	r3, r7
 800644e:	9309      	str	r3, [sp, #36]	@ 0x24
 8006450:	e76a      	b.n	8006328 <_vfiprintf_r+0x78>
 8006452:	fb0c 3202 	mla	r2, ip, r2, r3
 8006456:	460c      	mov	r4, r1
 8006458:	2001      	movs	r0, #1
 800645a:	e7a8      	b.n	80063ae <_vfiprintf_r+0xfe>
 800645c:	2300      	movs	r3, #0
 800645e:	3401      	adds	r4, #1
 8006460:	9305      	str	r3, [sp, #20]
 8006462:	4619      	mov	r1, r3
 8006464:	f04f 0c0a 	mov.w	ip, #10
 8006468:	4620      	mov	r0, r4
 800646a:	f810 2b01 	ldrb.w	r2, [r0], #1
 800646e:	3a30      	subs	r2, #48	@ 0x30
 8006470:	2a09      	cmp	r2, #9
 8006472:	d903      	bls.n	800647c <_vfiprintf_r+0x1cc>
 8006474:	2b00      	cmp	r3, #0
 8006476:	d0c6      	beq.n	8006406 <_vfiprintf_r+0x156>
 8006478:	9105      	str	r1, [sp, #20]
 800647a:	e7c4      	b.n	8006406 <_vfiprintf_r+0x156>
 800647c:	fb0c 2101 	mla	r1, ip, r1, r2
 8006480:	4604      	mov	r4, r0
 8006482:	2301      	movs	r3, #1
 8006484:	e7f0      	b.n	8006468 <_vfiprintf_r+0x1b8>
 8006486:	ab03      	add	r3, sp, #12
 8006488:	9300      	str	r3, [sp, #0]
 800648a:	462a      	mov	r2, r5
 800648c:	4b12      	ldr	r3, [pc, #72]	@ (80064d8 <_vfiprintf_r+0x228>)
 800648e:	a904      	add	r1, sp, #16
 8006490:	4630      	mov	r0, r6
 8006492:	f3af 8000 	nop.w
 8006496:	4607      	mov	r7, r0
 8006498:	1c78      	adds	r0, r7, #1
 800649a:	d1d6      	bne.n	800644a <_vfiprintf_r+0x19a>
 800649c:	6e6b      	ldr	r3, [r5, #100]	@ 0x64
 800649e:	07d9      	lsls	r1, r3, #31
 80064a0:	d405      	bmi.n	80064ae <_vfiprintf_r+0x1fe>
 80064a2:	89ab      	ldrh	r3, [r5, #12]
 80064a4:	059a      	lsls	r2, r3, #22
 80064a6:	d402      	bmi.n	80064ae <_vfiprintf_r+0x1fe>
 80064a8:	6da8      	ldr	r0, [r5, #88]	@ 0x58
 80064aa:	f7ff fdcf 	bl	800604c <__retarget_lock_release_recursive>
 80064ae:	89ab      	ldrh	r3, [r5, #12]
 80064b0:	065b      	lsls	r3, r3, #25
 80064b2:	f53f af1f 	bmi.w	80062f4 <_vfiprintf_r+0x44>
 80064b6:	9809      	ldr	r0, [sp, #36]	@ 0x24
 80064b8:	e71e      	b.n	80062f8 <_vfiprintf_r+0x48>
 80064ba:	ab03      	add	r3, sp, #12
 80064bc:	9300      	str	r3, [sp, #0]
 80064be:	462a      	mov	r2, r5
 80064c0:	4b05      	ldr	r3, [pc, #20]	@ (80064d8 <_vfiprintf_r+0x228>)
 80064c2:	a904      	add	r1, sp, #16
 80064c4:	4630      	mov	r0, r6
 80064c6:	f000 f879 	bl	80065bc <_printf_i>
 80064ca:	e7e4      	b.n	8006496 <_vfiprintf_r+0x1e6>
 80064cc:	08006def 	.word	0x08006def
 80064d0:	08006df9 	.word	0x08006df9
 80064d4:	00000000 	.word	0x00000000
 80064d8:	0800628b 	.word	0x0800628b
 80064dc:	08006df5 	.word	0x08006df5

080064e0 <_printf_common>:
 80064e0:	e92d 47f0 	stmdb	sp!, {r4, r5, r6, r7, r8, r9, sl, lr}
 80064e4:	4616      	mov	r6, r2
 80064e6:	4698      	mov	r8, r3
 80064e8:	688a      	ldr	r2, [r1, #8]
 80064ea:	690b      	ldr	r3, [r1, #16]
 80064ec:	f8dd 9020 	ldr.w	r9, [sp, #32]
 80064f0:	4293      	cmp	r3, r2
 80064f2:	bfb8      	it	lt
 80064f4:	4613      	movlt	r3, r2
 80064f6:	6033      	str	r3, [r6, #0]
 80064f8:	f891 2043 	ldrb.w	r2, [r1, #67]	@ 0x43
 80064fc:	4607      	mov	r7, r0
 80064fe:	460c      	mov	r4, r1
 8006500:	b10a      	cbz	r2, 8006506 <_printf_common+0x26>
 8006502:	3301      	adds	r3, #1
 8006504:	6033      	str	r3, [r6, #0]
 8006506:	6823      	ldr	r3, [r4, #0]
 8006508:	0699      	lsls	r1, r3, #26
 800650a:	bf42      	ittt	mi
 800650c:	6833      	ldrmi	r3, [r6, #0]
 800650e:	3302      	addmi	r3, #2
 8006510:	6033      	strmi	r3, [r6, #0]
 8006512:	6825      	ldr	r5, [r4, #0]
 8006514:	f015 0506 	ands.w	r5, r5, #6
 8006518:	d106      	bne.n	8006528 <_printf_common+0x48>
 800651a:	f104 0a19 	add.w	sl, r4, #25
 800651e:	68e3      	ldr	r3, [r4, #12]
 8006520:	6832      	ldr	r2, [r6, #0]
 8006522:	1a9b      	subs	r3, r3, r2
 8006524:	42ab      	cmp	r3, r5
 8006526:	dc26      	bgt.n	8006576 <_printf_common+0x96>
 8006528:	f894 3043 	ldrb.w	r3, [r4, #67]	@ 0x43
 800652c:	6822      	ldr	r2, [r4, #0]
 800652e:	3b00      	subs	r3, #0
 8006530:	bf18      	it	ne
 8006532:	2301      	movne	r3, #1
 8006534:	0692      	lsls	r2, r2, #26
 8006536:	d42b      	bmi.n	8006590 <_printf_common+0xb0>
 8006538:	f104 0243 	add.w	r2, r4, #67	@ 0x43
 800653c:	4641      	mov	r1, r8
 800653e:	4638      	mov	r0, r7
 8006540:	47c8      	blx	r9
 8006542:	3001      	adds	r0, #1
 8006544:	d01e      	beq.n	8006584 <_printf_common+0xa4>
 8006546:	6823      	ldr	r3, [r4, #0]
 8006548:	6922      	ldr	r2, [r4, #16]
 800654a:	f003 0306 	and.w	r3, r3, #6
 800654e:	2b04      	cmp	r3, #4
 8006550:	bf02      	ittt	eq
 8006552:	68e5      	ldreq	r5, [r4, #12]
 8006554:	6833      	ldreq	r3, [r6, #0]
 8006556:	1aed      	subeq	r5, r5, r3
 8006558:	68a3      	ldr	r3, [r4, #8]
 800655a:	bf0c      	ite	eq
 800655c:	ea25 75e5 	biceq.w	r5, r5, r5, asr #31
 8006560:	2500      	movne	r5, #0
 8006562:	4293      	cmp	r3, r2
 8006564:	bfc4      	itt	gt
 8006566:	1a9b      	subgt	r3, r3, r2
 8006568:	18ed      	addgt	r5, r5, r3
 800656a:	2600      	movs	r6, #0
 800656c:	341a      	adds	r4, #26
 800656e:	42b5      	cmp	r5, r6
 8006570:	d11a      	bne.n	80065a8 <_printf_common+0xc8>
 8006572:	2000      	movs	r0, #0
 8006574:	e008      	b.n	8006588 <_printf_common+0xa8>
 8006576:	2301      	movs	r3, #1
 8006578:	4652      	mov	r2, sl
 800657a:	4641      	mov	r1, r8
 800657c:	4638      	mov	r0, r7
 800657e:	47c8      	blx	r9
 8006580:	3001      	adds	r0, #1
 8006582:	d103      	bne.n	800658c <_printf_common+0xac>
 8006584:	f04f 30ff 	mov.w	r0, #4294967295
 8006588:	e8bd 87f0 	ldmia.w	sp!, {r4, r5, r6, r7, r8, r9, sl, pc}
 800658c:	3501      	adds	r5, #1
 800658e:	e7c6      	b.n	800651e <_printf_common+0x3e>
 8006590:	18e1      	adds	r1, r4, r3
 8006592:	1c5a      	adds	r2, r3, #1
 8006594:	2030      	movs	r0, #48	@ 0x30
 8006596:	f881 0043 	strb.w	r0, [r1, #67]	@ 0x43
 800659a:	4422      	add	r2, r4
 800659c:	f894 1045 	ldrb.w	r1, [r4, #69]	@ 0x45
 80065a0:	f882 1043 	strb.w	r1, [r2, #67]	@ 0x43
 80065a4:	3302      	adds	r3, #2
 80065a6:	e7c7      	b.n	8006538 <_printf_common+0x58>
 80065a8:	2301      	movs	r3, #1
 80065aa:	4622      	mov	r2, r4
 80065ac:	4641      	mov	r1, r8
 80065ae:	4638      	mov	r0, r7
 80065b0:	47c8      	blx	r9
 80065b2:	3001      	adds	r0, #1
 80065b4:	d0e6      	beq.n	8006584 <_printf_common+0xa4>
 80065b6:	3601      	adds	r6, #1
 80065b8:	e7d9      	b.n	800656e <_printf_common+0x8e>
	...

080065bc <_printf_i>:
 80065bc:	e92d 47ff 	stmdb	sp!, {r0, r1, r2, r3, r4, r5, r6, r7, r8, r9, sl, lr}
 80065c0:	7e0f      	ldrb	r7, [r1, #24]
 80065c2:	9e0c      	ldr	r6, [sp, #48]	@ 0x30
 80065c4:	2f78      	cmp	r7, #120	@ 0x78
 80065c6:	4691      	mov	r9, r2
 80065c8:	4680      	mov	r8, r0
 80065ca:	460c      	mov	r4, r1
 80065cc:	469a      	mov	sl, r3
 80065ce:	f101 0243 	add.w	r2, r1, #67	@ 0x43
 80065d2:	d807      	bhi.n	80065e4 <_printf_i+0x28>
 80065d4:	2f62      	cmp	r7, #98	@ 0x62
 80065d6:	d80a      	bhi.n	80065ee <_printf_i+0x32>
 80065d8:	2f00      	cmp	r7, #0
 80065da:	f000 80d1 	beq.w	8006780 <_printf_i+0x1c4>
 80065de:	2f58      	cmp	r7, #88	@ 0x58
 80065e0:	f000 80b8 	beq.w	8006754 <_printf_i+0x198>
 80065e4:	f104 0642 	add.w	r6, r4, #66	@ 0x42
 80065e8:	f884 7042 	strb.w	r7, [r4, #66]	@ 0x42
 80065ec:	e03a      	b.n	8006664 <_printf_i+0xa8>
 80065ee:	f1a7 0363 	sub.w	r3, r7, #99	@ 0x63
 80065f2:	2b15      	cmp	r3, #21
 80065f4:	d8f6      	bhi.n	80065e4 <_printf_i+0x28>
 80065f6:	a101      	add	r1, pc, #4	@ (adr r1, 80065fc <_printf_i+0x40>)
 80065f8:	f851 f023 	ldr.w	pc, [r1, r3, lsl #2]
 80065fc:	08006655 	.word	0x08006655
 8006600:	08006669 	.word	0x08006669
 8006604:	080065e5 	.word	0x080065e5
 8006608:	080065e5 	.word	0x080065e5
 800660c:	080065e5 	.word	0x080065e5
 8006610:	080065e5 	.word	0x080065e5
 8006614:	08006669 	.word	0x08006669
 8006618:	080065e5 	.word	0x080065e5
 800661c:	080065e5 	.word	0x080065e5
 8006620:	080065e5 	.word	0x080065e5
 8006624:	080065e5 	.word	0x080065e5
 8006628:	08006767 	.word	0x08006767
 800662c:	08006693 	.word	0x08006693
 8006630:	08006721 	.word	0x08006721
 8006634:	080065e5 	.word	0x080065e5
 8006638:	080065e5 	.word	0x080065e5
 800663c:	08006789 	.word	0x08006789
 8006640:	080065e5 	.word	0x080065e5
 8006644:	08006693 	.word	0x08006693
 8006648:	080065e5 	.word	0x080065e5
 800664c:	080065e5 	.word	0x080065e5
 8006650:	08006729 	.word	0x08006729
 8006654:	6833      	ldr	r3, [r6, #0]
 8006656:	1d1a      	adds	r2, r3, #4
 8006658:	681b      	ldr	r3, [r3, #0]
 800665a:	6032      	str	r2, [r6, #0]
 800665c:	f104 0642 	add.w	r6, r4, #66	@ 0x42
 8006660:	f884 3042 	strb.w	r3, [r4, #66]	@ 0x42
 8006664:	2301      	movs	r3, #1
 8006666:	e09c      	b.n	80067a2 <_printf_i+0x1e6>
 8006668:	6833      	ldr	r3, [r6, #0]
 800666a:	6820      	ldr	r0, [r4, #0]
 800666c:	1d19      	adds	r1, r3, #4
 800666e:	6031      	str	r1, [r6, #0]
 8006670:	0606      	lsls	r6, r0, #24
 8006672:	d501      	bpl.n	8006678 <_printf_i+0xbc>
 8006674:	681d      	ldr	r5, [r3, #0]
 8006676:	e003      	b.n	8006680 <_printf_i+0xc4>
 8006678:	0645      	lsls	r5, r0, #25
 800667a:	d5fb      	bpl.n	8006674 <_printf_i+0xb8>
 800667c:	f9b3 5000 	ldrsh.w	r5, [r3]
 8006680:	2d00      	cmp	r5, #0
 8006682:	da03      	bge.n	800668c <_printf_i+0xd0>
 8006684:	232d      	movs	r3, #45	@ 0x2d
 8006686:	426d      	negs	r5, r5
 8006688:	f884 3043 	strb.w	r3, [r4, #67]	@ 0x43
 800668c:	4858      	ldr	r0, [pc, #352]	@ (80067f0 <_printf_i+0x234>)
 800668e:	230a      	movs	r3, #10
 8006690:	e011      	b.n	80066b6 <_printf_i+0xfa>
 8006692:	6821      	ldr	r1, [r4, #0]
 8006694:	6833      	ldr	r3, [r6, #0]
 8006696:	0608      	lsls	r0, r1, #24
 8006698:	f853 5b04 	ldr.w	r5, [r3], #4
 800669c:	d402      	bmi.n	80066a4 <_printf_i+0xe8>
 800669e:	0649      	lsls	r1, r1, #25
 80066a0:	bf48      	it	mi
 80066a2:	b2ad      	uxthmi	r5, r5
 80066a4:	2f6f      	cmp	r7, #111	@ 0x6f
 80066a6:	4852      	ldr	r0, [pc, #328]	@ (80067f0 <_printf_i+0x234>)
 80066a8:	6033      	str	r3, [r6, #0]
 80066aa:	bf14      	ite	ne
 80066ac:	230a      	movne	r3, #10
 80066ae:	2308      	moveq	r3, #8
 80066b0:	2100      	movs	r1, #0
 80066b2:	f884 1043 	strb.w	r1, [r4, #67]	@ 0x43
 80066b6:	6866      	ldr	r6, [r4, #4]
 80066b8:	60a6      	str	r6, [r4, #8]
 80066ba:	2e00      	cmp	r6, #0
 80066bc:	db05      	blt.n	80066ca <_printf_i+0x10e>
 80066be:	6821      	ldr	r1, [r4, #0]
 80066c0:	432e      	orrs	r6, r5
 80066c2:	f021 0104 	bic.w	r1, r1, #4
 80066c6:	6021      	str	r1, [r4, #0]
 80066c8:	d04b      	beq.n	8006762 <_printf_i+0x1a6>
 80066ca:	4616      	mov	r6, r2
 80066cc:	fbb5 f1f3 	udiv	r1, r5, r3
 80066d0:	fb03 5711 	mls	r7, r3, r1, r5
 80066d4:	5dc7      	ldrb	r7, [r0, r7]
 80066d6:	f806 7d01 	strb.w	r7, [r6, #-1]!
 80066da:	462f      	mov	r7, r5
 80066dc:	42bb      	cmp	r3, r7
 80066de:	460d      	mov	r5, r1
 80066e0:	d9f4      	bls.n	80066cc <_printf_i+0x110>
 80066e2:	2b08      	cmp	r3, #8
 80066e4:	d10b      	bne.n	80066fe <_printf_i+0x142>
 80066e6:	6823      	ldr	r3, [r4, #0]
 80066e8:	07df      	lsls	r7, r3, #31
 80066ea:	d508      	bpl.n	80066fe <_printf_i+0x142>
 80066ec:	6923      	ldr	r3, [r4, #16]
 80066ee:	6861      	ldr	r1, [r4, #4]
 80066f0:	4299      	cmp	r1, r3
 80066f2:	bfde      	ittt	le
 80066f4:	2330      	movle	r3, #48	@ 0x30
 80066f6:	f806 3c01 	strble.w	r3, [r6, #-1]
 80066fa:	f106 36ff 	addle.w	r6, r6, #4294967295
 80066fe:	1b92      	subs	r2, r2, r6
 8006700:	6122      	str	r2, [r4, #16]
 8006702:	f8cd a000 	str.w	sl, [sp]
 8006706:	464b      	mov	r3, r9
 8006708:	aa03      	add	r2, sp, #12
 800670a:	4621      	mov	r1, r4
 800670c:	4640      	mov	r0, r8
 800670e:	f7ff fee7 	bl	80064e0 <_printf_common>
 8006712:	3001      	adds	r0, #1
 8006714:	d14a      	bne.n	80067ac <_printf_i+0x1f0>
 8006716:	f04f 30ff 	mov.w	r0, #4294967295
 800671a:	b004      	add	sp, #16
 800671c:	e8bd 87f0 	ldmia.w	sp!, {r4, r5, r6, r7, r8, r9, sl, pc}
 8006720:	6823      	ldr	r3, [r4, #0]
 8006722:	f043 0320 	orr.w	r3, r3, #32
 8006726:	6023      	str	r3, [r4, #0]
 8006728:	4832      	ldr	r0, [pc, #200]	@ (80067f4 <_printf_i+0x238>)
 800672a:	2778      	movs	r7, #120	@ 0x78
 800672c:	f884 7045 	strb.w	r7, [r4, #69]	@ 0x45
 8006730:	6823      	ldr	r3, [r4, #0]
 8006732:	6831      	ldr	r1, [r6, #0]
 8006734:	061f      	lsls	r7, r3, #24
 8006736:	f851 5b04 	ldr.w	r5, [r1], #4
 800673a:	d402      	bmi.n	8006742 <_printf_i+0x186>
 800673c:	065f      	lsls	r7, r3, #25
 800673e:	bf48      	it	mi
 8006740:	b2ad      	uxthmi	r5, r5
 8006742:	6031      	str	r1, [r6, #0]
 8006744:	07d9      	lsls	r1, r3, #31
 8006746:	bf44      	itt	mi
 8006748:	f043 0320 	orrmi.w	r3, r3, #32
 800674c:	6023      	strmi	r3, [r4, #0]
 800674e:	b11d      	cbz	r5, 8006758 <_printf_i+0x19c>
 8006750:	2310      	movs	r3, #16
 8006752:	e7ad      	b.n	80066b0 <_printf_i+0xf4>
 8006754:	4826      	ldr	r0, [pc, #152]	@ (80067f0 <_printf_i+0x234>)
 8006756:	e7e9      	b.n	800672c <_printf_i+0x170>
 8006758:	6823      	ldr	r3, [r4, #0]
 800675a:	f023 0320 	bic.w	r3, r3, #32
 800675e:	6023      	str	r3, [r4, #0]
 8006760:	e7f6      	b.n	8006750 <_printf_i+0x194>
 8006762:	4616      	mov	r6, r2
 8006764:	e7bd      	b.n	80066e2 <_printf_i+0x126>
 8006766:	6833      	ldr	r3, [r6, #0]
 8006768:	6825      	ldr	r5, [r4, #0]
 800676a:	6961      	ldr	r1, [r4, #20]
 800676c:	1d18      	adds	r0, r3, #4
 800676e:	6030      	str	r0, [r6, #0]
 8006770:	062e      	lsls	r6, r5, #24
 8006772:	681b      	ldr	r3, [r3, #0]
 8006774:	d501      	bpl.n	800677a <_printf_i+0x1be>
 8006776:	6019      	str	r1, [r3, #0]
 8006778:	e002      	b.n	8006780 <_printf_i+0x1c4>
 800677a:	0668      	lsls	r0, r5, #25
 800677c:	d5fb      	bpl.n	8006776 <_printf_i+0x1ba>
 800677e:	8019      	strh	r1, [r3, #0]
 8006780:	2300      	movs	r3, #0
 8006782:	6123      	str	r3, [r4, #16]
 8006784:	4616      	mov	r6, r2
 8006786:	e7bc      	b.n	8006702 <_printf_i+0x146>
 8006788:	6833      	ldr	r3, [r6, #0]
 800678a:	1d1a      	adds	r2, r3, #4
 800678c:	6032      	str	r2, [r6, #0]
 800678e:	681e      	ldr	r6, [r3, #0]
 8006790:	6862      	ldr	r2, [r4, #4]
 8006792:	2100      	movs	r1, #0
 8006794:	4630      	mov	r0, r6
 8006796:	f7f9 fd43 	bl	8000220 <memchr>
 800679a:	b108      	cbz	r0, 80067a0 <_printf_i+0x1e4>
 800679c:	1b80      	subs	r0, r0, r6
 800679e:	6060      	str	r0, [r4, #4]
 80067a0:	6863      	ldr	r3, [r4, #4]
 80067a2:	6123      	str	r3, [r4, #16]
 80067a4:	2300      	movs	r3, #0
 80067a6:	f884 3043 	strb.w	r3, [r4, #67]	@ 0x43
 80067aa:	e7aa      	b.n	8006702 <_printf_i+0x146>
 80067ac:	6923      	ldr	r3, [r4, #16]
 80067ae:	4632      	mov	r2, r6
 80067b0:	4649      	mov	r1, r9
 80067b2:	4640      	mov	r0, r8
 80067b4:	47d0      	blx	sl
 80067b6:	3001      	adds	r0, #1
 80067b8:	d0ad      	beq.n	8006716 <_printf_i+0x15a>
 80067ba:	6823      	ldr	r3, [r4, #0]
 80067bc:	079b      	lsls	r3, r3, #30
 80067be:	d413      	bmi.n	80067e8 <_printf_i+0x22c>
 80067c0:	68e0      	ldr	r0, [r4, #12]
 80067c2:	9b03      	ldr	r3, [sp, #12]
 80067c4:	4298      	cmp	r0, r3
 80067c6:	bfb8      	it	lt
 80067c8:	4618      	movlt	r0, r3
 80067ca:	e7a6      	b.n	800671a <_printf_i+0x15e>
 80067cc:	2301      	movs	r3, #1
 80067ce:	4632      	mov	r2, r6
 80067d0:	4649      	mov	r1, r9
 80067d2:	4640      	mov	r0, r8
 80067d4:	47d0      	blx	sl
 80067d6:	3001      	adds	r0, #1
 80067d8:	d09d      	beq.n	8006716 <_printf_i+0x15a>
 80067da:	3501      	adds	r5, #1
 80067dc:	68e3      	ldr	r3, [r4, #12]
 80067de:	9903      	ldr	r1, [sp, #12]
 80067e0:	1a5b      	subs	r3, r3, r1
 80067e2:	42ab      	cmp	r3, r5
 80067e4:	dcf2      	bgt.n	80067cc <_printf_i+0x210>
 80067e6:	e7eb      	b.n	80067c0 <_printf_i+0x204>
 80067e8:	2500      	movs	r5, #0
 80067ea:	f104 0619 	add.w	r6, r4, #25
 80067ee:	e7f5      	b.n	80067dc <_printf_i+0x220>
 80067f0:	08006e00 	.word	0x08006e00
 80067f4:	08006e11 	.word	0x08006e11

080067f8 <__sflush_r>:
 80067f8:	f9b1 200c 	ldrsh.w	r2, [r1, #12]
 80067fc:	e92d 41f0 	stmdb	sp!, {r4, r5, r6, r7, r8, lr}
 8006800:	0716      	lsls	r6, r2, #28
 8006802:	4605      	mov	r5, r0
 8006804:	460c      	mov	r4, r1
 8006806:	d454      	bmi.n	80068b2 <__sflush_r+0xba>
 8006808:	684b      	ldr	r3, [r1, #4]
 800680a:	2b00      	cmp	r3, #0
 800680c:	dc02      	bgt.n	8006814 <__sflush_r+0x1c>
 800680e:	6c0b      	ldr	r3, [r1, #64]	@ 0x40
 8006810:	2b00      	cmp	r3, #0
 8006812:	dd48      	ble.n	80068a6 <__sflush_r+0xae>
 8006814:	6ae6      	ldr	r6, [r4, #44]	@ 0x2c
 8006816:	2e00      	cmp	r6, #0
 8006818:	d045      	beq.n	80068a6 <__sflush_r+0xae>
 800681a:	2300      	movs	r3, #0
 800681c:	f412 5280 	ands.w	r2, r2, #4096	@ 0x1000
 8006820:	682f      	ldr	r7, [r5, #0]
 8006822:	6a21      	ldr	r1, [r4, #32]
 8006824:	602b      	str	r3, [r5, #0]
 8006826:	d030      	beq.n	800688a <__sflush_r+0x92>
 8006828:	6d62      	ldr	r2, [r4, #84]	@ 0x54
 800682a:	89a3      	ldrh	r3, [r4, #12]
 800682c:	0759      	lsls	r1, r3, #29
 800682e:	d505      	bpl.n	800683c <__sflush_r+0x44>
 8006830:	6863      	ldr	r3, [r4, #4]
 8006832:	1ad2      	subs	r2, r2, r3
 8006834:	6b63      	ldr	r3, [r4, #52]	@ 0x34
 8006836:	b10b      	cbz	r3, 800683c <__sflush_r+0x44>
 8006838:	6c23      	ldr	r3, [r4, #64]	@ 0x40
 800683a:	1ad2      	subs	r2, r2, r3
 800683c:	2300      	movs	r3, #0
 800683e:	6ae6      	ldr	r6, [r4, #44]	@ 0x2c
 8006840:	6a21      	ldr	r1, [r4, #32]
 8006842:	4628      	mov	r0, r5
 8006844:	47b0      	blx	r6
 8006846:	1c43      	adds	r3, r0, #1
 8006848:	89a3      	ldrh	r3, [r4, #12]
 800684a:	d106      	bne.n	800685a <__sflush_r+0x62>
 800684c:	6829      	ldr	r1, [r5, #0]
 800684e:	291d      	cmp	r1, #29
 8006850:	d82b      	bhi.n	80068aa <__sflush_r+0xb2>
 8006852:	4a2a      	ldr	r2, [pc, #168]	@ (80068fc <__sflush_r+0x104>)
 8006854:	40ca      	lsrs	r2, r1
 8006856:	07d6      	lsls	r6, r2, #31
 8006858:	d527      	bpl.n	80068aa <__sflush_r+0xb2>
 800685a:	2200      	movs	r2, #0
 800685c:	6062      	str	r2, [r4, #4]
 800685e:	04d9      	lsls	r1, r3, #19
 8006860:	6922      	ldr	r2, [r4, #16]
 8006862:	6022      	str	r2, [r4, #0]
 8006864:	d504      	bpl.n	8006870 <__sflush_r+0x78>
 8006866:	1c42      	adds	r2, r0, #1
 8006868:	d101      	bne.n	800686e <__sflush_r+0x76>
 800686a:	682b      	ldr	r3, [r5, #0]
 800686c:	b903      	cbnz	r3, 8006870 <__sflush_r+0x78>
 800686e:	6560      	str	r0, [r4, #84]	@ 0x54
 8006870:	6b61      	ldr	r1, [r4, #52]	@ 0x34
 8006872:	602f      	str	r7, [r5, #0]
 8006874:	b1b9      	cbz	r1, 80068a6 <__sflush_r+0xae>
 8006876:	f104 0344 	add.w	r3, r4, #68	@ 0x44
 800687a:	4299      	cmp	r1, r3
 800687c:	d002      	beq.n	8006884 <__sflush_r+0x8c>
 800687e:	4628      	mov	r0, r5
 8006880:	f7ff fbf4 	bl	800606c <_free_r>
 8006884:	2300      	movs	r3, #0
 8006886:	6363      	str	r3, [r4, #52]	@ 0x34
 8006888:	e00d      	b.n	80068a6 <__sflush_r+0xae>
 800688a:	2301      	movs	r3, #1
 800688c:	4628      	mov	r0, r5
 800688e:	47b0      	blx	r6
 8006890:	4602      	mov	r2, r0
 8006892:	1c50      	adds	r0, r2, #1
 8006894:	d1c9      	bne.n	800682a <__sflush_r+0x32>
 8006896:	682b      	ldr	r3, [r5, #0]
 8006898:	2b00      	cmp	r3, #0
 800689a:	d0c6      	beq.n	800682a <__sflush_r+0x32>
 800689c:	2b1d      	cmp	r3, #29
 800689e:	d001      	beq.n	80068a4 <__sflush_r+0xac>
 80068a0:	2b16      	cmp	r3, #22
 80068a2:	d11e      	bne.n	80068e2 <__sflush_r+0xea>
 80068a4:	602f      	str	r7, [r5, #0]
 80068a6:	2000      	movs	r0, #0
 80068a8:	e022      	b.n	80068f0 <__sflush_r+0xf8>
 80068aa:	f043 0340 	orr.w	r3, r3, #64	@ 0x40
 80068ae:	b21b      	sxth	r3, r3
 80068b0:	e01b      	b.n	80068ea <__sflush_r+0xf2>
 80068b2:	690f      	ldr	r7, [r1, #16]
 80068b4:	2f00      	cmp	r7, #0
 80068b6:	d0f6      	beq.n	80068a6 <__sflush_r+0xae>
 80068b8:	0793      	lsls	r3, r2, #30
 80068ba:	680e      	ldr	r6, [r1, #0]
 80068bc:	bf08      	it	eq
 80068be:	694b      	ldreq	r3, [r1, #20]
 80068c0:	600f      	str	r7, [r1, #0]
 80068c2:	bf18      	it	ne
 80068c4:	2300      	movne	r3, #0
 80068c6:	eba6 0807 	sub.w	r8, r6, r7
 80068ca:	608b      	str	r3, [r1, #8]
 80068cc:	f1b8 0f00 	cmp.w	r8, #0
 80068d0:	dde9      	ble.n	80068a6 <__sflush_r+0xae>
 80068d2:	6a21      	ldr	r1, [r4, #32]
 80068d4:	6aa6      	ldr	r6, [r4, #40]	@ 0x28
 80068d6:	4643      	mov	r3, r8
 80068d8:	463a      	mov	r2, r7
 80068da:	4628      	mov	r0, r5
 80068dc:	47b0      	blx	r6
 80068de:	2800      	cmp	r0, #0
 80068e0:	dc08      	bgt.n	80068f4 <__sflush_r+0xfc>
 80068e2:	f9b4 300c 	ldrsh.w	r3, [r4, #12]
 80068e6:	f043 0340 	orr.w	r3, r3, #64	@ 0x40
 80068ea:	81a3      	strh	r3, [r4, #12]
 80068ec:	f04f 30ff 	mov.w	r0, #4294967295
 80068f0:	e8bd 81f0 	ldmia.w	sp!, {r4, r5, r6, r7, r8, pc}
 80068f4:	4407      	add	r7, r0
 80068f6:	eba8 0800 	sub.w	r8, r8, r0
 80068fa:	e7e7      	b.n	80068cc <__sflush_r+0xd4>
 80068fc:	20400001 	.word	0x20400001

08006900 <_fflush_r>:
 8006900:	b538      	push	{r3, r4, r5, lr}
 8006902:	690b      	ldr	r3, [r1, #16]
 8006904:	4605      	mov	r5, r0
 8006906:	460c      	mov	r4, r1
 8006908:	b913      	cbnz	r3, 8006910 <_fflush_r+0x10>
 800690a:	2500      	movs	r5, #0
 800690c:	4628      	mov	r0, r5
 800690e:	bd38      	pop	{r3, r4, r5, pc}
 8006910:	b118      	cbz	r0, 800691a <_fflush_r+0x1a>
 8006912:	6a03      	ldr	r3, [r0, #32]
 8006914:	b90b      	cbnz	r3, 800691a <_fflush_r+0x1a>
 8006916:	f7ff f9a1 	bl	8005c5c <__sinit>
 800691a:	f9b4 300c 	ldrsh.w	r3, [r4, #12]
 800691e:	2b00      	cmp	r3, #0
 8006920:	d0f3      	beq.n	800690a <_fflush_r+0xa>
 8006922:	6e62      	ldr	r2, [r4, #100]	@ 0x64
 8006924:	07d0      	lsls	r0, r2, #31
 8006926:	d404      	bmi.n	8006932 <_fflush_r+0x32>
 8006928:	0599      	lsls	r1, r3, #22
 800692a:	d402      	bmi.n	8006932 <_fflush_r+0x32>
 800692c:	6da0      	ldr	r0, [r4, #88]	@ 0x58
 800692e:	f7ff fb8c 	bl	800604a <__retarget_lock_acquire_recursive>
 8006932:	4628      	mov	r0, r5
 8006934:	4621      	mov	r1, r4
 8006936:	f7ff ff5f 	bl	80067f8 <__sflush_r>
 800693a:	6e63      	ldr	r3, [r4, #100]	@ 0x64
 800693c:	07da      	lsls	r2, r3, #31
 800693e:	4605      	mov	r5, r0
 8006940:	d4e4      	bmi.n	800690c <_fflush_r+0xc>
 8006942:	89a3      	ldrh	r3, [r4, #12]
 8006944:	059b      	lsls	r3, r3, #22
 8006946:	d4e1      	bmi.n	800690c <_fflush_r+0xc>
 8006948:	6da0      	ldr	r0, [r4, #88]	@ 0x58
 800694a:	f7ff fb7f 	bl	800604c <__retarget_lock_release_recursive>
 800694e:	e7dd      	b.n	800690c <_fflush_r+0xc>

08006950 <__swhatbuf_r>:
 8006950:	b570      	push	{r4, r5, r6, lr}
 8006952:	460c      	mov	r4, r1
 8006954:	f9b1 100e 	ldrsh.w	r1, [r1, #14]
 8006958:	2900      	cmp	r1, #0
 800695a:	b096      	sub	sp, #88	@ 0x58
 800695c:	4615      	mov	r5, r2
 800695e:	461e      	mov	r6, r3
 8006960:	da0d      	bge.n	800697e <__swhatbuf_r+0x2e>
 8006962:	89a3      	ldrh	r3, [r4, #12]
 8006964:	f013 0f80 	tst.w	r3, #128	@ 0x80
 8006968:	f04f 0100 	mov.w	r1, #0
 800696c:	bf14      	ite	ne
 800696e:	2340      	movne	r3, #64	@ 0x40
 8006970:	f44f 6380 	moveq.w	r3, #1024	@ 0x400
 8006974:	2000      	movs	r0, #0
 8006976:	6031      	str	r1, [r6, #0]
 8006978:	602b      	str	r3, [r5, #0]
 800697a:	b016      	add	sp, #88	@ 0x58
 800697c:	bd70      	pop	{r4, r5, r6, pc}
 800697e:	466a      	mov	r2, sp
 8006980:	f000 f848 	bl	8006a14 <_fstat_r>
 8006984:	2800      	cmp	r0, #0
 8006986:	dbec      	blt.n	8006962 <__swhatbuf_r+0x12>
 8006988:	9901      	ldr	r1, [sp, #4]
 800698a:	f401 4170 	and.w	r1, r1, #61440	@ 0xf000
 800698e:	f5a1 5300 	sub.w	r3, r1, #8192	@ 0x2000
 8006992:	4259      	negs	r1, r3
 8006994:	4159      	adcs	r1, r3
 8006996:	f44f 6380 	mov.w	r3, #1024	@ 0x400
 800699a:	e7eb      	b.n	8006974 <__swhatbuf_r+0x24>

0800699c <__smakebuf_r>:
 800699c:	898b      	ldrh	r3, [r1, #12]
 800699e:	b5f7      	push	{r0, r1, r2, r4, r5, r6, r7, lr}
 80069a0:	079d      	lsls	r5, r3, #30
 80069a2:	4606      	mov	r6, r0
 80069a4:	460c      	mov	r4, r1
 80069a6:	d507      	bpl.n	80069b8 <__smakebuf_r+0x1c>
 80069a8:	f104 0347 	add.w	r3, r4, #71	@ 0x47
 80069ac:	6023      	str	r3, [r4, #0]
 80069ae:	6123      	str	r3, [r4, #16]
 80069b0:	2301      	movs	r3, #1
 80069b2:	6163      	str	r3, [r4, #20]
 80069b4:	b003      	add	sp, #12
 80069b6:	bdf0      	pop	{r4, r5, r6, r7, pc}
 80069b8:	ab01      	add	r3, sp, #4
 80069ba:	466a      	mov	r2, sp
 80069bc:	f7ff ffc8 	bl	8006950 <__swhatbuf_r>
 80069c0:	9f00      	ldr	r7, [sp, #0]
 80069c2:	4605      	mov	r5, r0
 80069c4:	4639      	mov	r1, r7
 80069c6:	4630      	mov	r0, r6
 80069c8:	f7ff fbbc 	bl	8006144 <_malloc_r>
 80069cc:	b948      	cbnz	r0, 80069e2 <__smakebuf_r+0x46>
 80069ce:	f9b4 300c 	ldrsh.w	r3, [r4, #12]
 80069d2:	059a      	lsls	r2, r3, #22
 80069d4:	d4ee      	bmi.n	80069b4 <__smakebuf_r+0x18>
 80069d6:	f023 0303 	bic.w	r3, r3, #3
 80069da:	f043 0302 	orr.w	r3, r3, #2
 80069de:	81a3      	strh	r3, [r4, #12]
 80069e0:	e7e2      	b.n	80069a8 <__smakebuf_r+0xc>
 80069e2:	89a3      	ldrh	r3, [r4, #12]
 80069e4:	6020      	str	r0, [r4, #0]
 80069e6:	f043 0380 	orr.w	r3, r3, #128	@ 0x80
 80069ea:	81a3      	strh	r3, [r4, #12]
 80069ec:	9b01      	ldr	r3, [sp, #4]
 80069ee:	e9c4 0704 	strd	r0, r7, [r4, #16]
 80069f2:	b15b      	cbz	r3, 8006a0c <__smakebuf_r+0x70>
 80069f4:	f9b4 100e 	ldrsh.w	r1, [r4, #14]
 80069f8:	4630      	mov	r0, r6
 80069fa:	f000 f81d 	bl	8006a38 <_isatty_r>
 80069fe:	b128      	cbz	r0, 8006a0c <__smakebuf_r+0x70>
 8006a00:	89a3      	ldrh	r3, [r4, #12]
 8006a02:	f023 0303 	bic.w	r3, r3, #3
 8006a06:	f043 0301 	orr.w	r3, r3, #1
 8006a0a:	81a3      	strh	r3, [r4, #12]
 8006a0c:	89a3      	ldrh	r3, [r4, #12]
 8006a0e:	431d      	orrs	r5, r3
 8006a10:	81a5      	strh	r5, [r4, #12]
 8006a12:	e7cf      	b.n	80069b4 <__smakebuf_r+0x18>

08006a14 <_fstat_r>:
 8006a14:	b538      	push	{r3, r4, r5, lr}
 8006a16:	4d07      	ldr	r5, [pc, #28]	@ (8006a34 <_fstat_r+0x20>)
 8006a18:	2300      	movs	r3, #0
 8006a1a:	4604      	mov	r4, r0
 8006a1c:	4608      	mov	r0, r1
 8006a1e:	4611      	mov	r1, r2
 8006a20:	602b      	str	r3, [r5, #0]
 8006a22:	f7fa fcb8 	bl	8001396 <_fstat>
 8006a26:	1c43      	adds	r3, r0, #1
 8006a28:	d102      	bne.n	8006a30 <_fstat_r+0x1c>
 8006a2a:	682b      	ldr	r3, [r5, #0]
 8006a2c:	b103      	cbz	r3, 8006a30 <_fstat_r+0x1c>
 8006a2e:	6023      	str	r3, [r4, #0]
 8006a30:	bd38      	pop	{r3, r4, r5, pc}
 8006a32:	bf00      	nop
 8006a34:	20000694 	.word	0x20000694

08006a38 <_isatty_r>:
 8006a38:	b538      	push	{r3, r4, r5, lr}
 8006a3a:	4d06      	ldr	r5, [pc, #24]	@ (8006a54 <_isatty_r+0x1c>)
 8006a3c:	2300      	movs	r3, #0
 8006a3e:	4604      	mov	r4, r0
 8006a40:	4608      	mov	r0, r1
 8006a42:	602b      	str	r3, [r5, #0]
 8006a44:	f7fa fcb7 	bl	80013b6 <_isatty>
 8006a48:	1c43      	adds	r3, r0, #1
 8006a4a:	d102      	bne.n	8006a52 <_isatty_r+0x1a>
 8006a4c:	682b      	ldr	r3, [r5, #0]
 8006a4e:	b103      	cbz	r3, 8006a52 <_isatty_r+0x1a>
 8006a50:	6023      	str	r3, [r4, #0]
 8006a52:	bd38      	pop	{r3, r4, r5, pc}
 8006a54:	20000694 	.word	0x20000694

08006a58 <_sbrk_r>:
 8006a58:	b538      	push	{r3, r4, r5, lr}
 8006a5a:	4d06      	ldr	r5, [pc, #24]	@ (8006a74 <_sbrk_r+0x1c>)
 8006a5c:	2300      	movs	r3, #0
 8006a5e:	4604      	mov	r4, r0
 8006a60:	4608      	mov	r0, r1
 8006a62:	602b      	str	r3, [r5, #0]
 8006a64:	f7fa fcd4 	bl	8001410 <_sbrk>
 8006a68:	1c43      	adds	r3, r0, #1
 8006a6a:	d102      	bne.n	8006a72 <_sbrk_r+0x1a>
 8006a6c:	682b      	ldr	r3, [r5, #0]
 8006a6e:	b103      	cbz	r3, 8006a72 <_sbrk_r+0x1a>
 8006a70:	6023      	str	r3, [r4, #0]
 8006a72:	bd38      	pop	{r3, r4, r5, pc}
 8006a74:	20000694 	.word	0x20000694

08006a78 <_init>:
 8006a78:	b5f8      	push	{r3, r4, r5, r6, r7, lr}
 8006a7a:	bf00      	nop
 8006a7c:	bcf8      	pop	{r3, r4, r5, r6, r7}
 8006a7e:	bc08      	pop	{r3}
 8006a80:	469e      	mov	lr, r3
 8006a82:	4770      	bx	lr

08006a84 <_fini>:
 8006a84:	b5f8      	push	{r3, r4, r5, r6, r7, lr}
 8006a86:	bf00      	nop
 8006a88:	bcf8      	pop	{r3, r4, r5, r6, r7}
 8006a8a:	bc08      	pop	{r3}
 8006a8c:	469e      	mov	lr, r3
 8006a8e:	4770      	bx	lr
